SF:/Users/andrei/git/proposalsapp/apps/detective/database.rs
FN:55,_RNvNtCsmdD2PK2ogL_9detective8database15store_proposals
FN:59,_RNCNvNtCsmdD2PK2ogL_9detective8database15store_proposals0B5_
FN:64,_RNCNCNvNtCsmdD2PK2ogL_9detective8database15store_proposals00B7_
FN:76,_RNCNCNvNtCsmdD2PK2ogL_9detective8database15store_proposals0s_0B7_
FN:81,_RNCNCNvNtCsmdD2PK2ogL_9detective8database15store_proposals0s0_0B7_
FN:101,_RNvNtCsmdD2PK2ogL_9detective8database11store_votes
FN:105,_RNCNvNtCsmdD2PK2ogL_9detective8database11store_votes0B5_
FN:114,_RNCNCNvNtCsmdD2PK2ogL_9detective8database11store_votes00B7_
FN:182,_RNCNCNvNtCsmdD2PK2ogL_9detective8database11store_votes0s_0B7_
FN:193,_RNCNCNvNtCsmdD2PK2ogL_9detective8database11store_votes0s0_0B7_
FN:245,_RNvNtCsmdD2PK2ogL_9detective8database19ensure_voters_exist
FN:248,_RNCNvNtCsmdD2PK2ogL_9detective8database19ensure_voters_exist0B5_
FN:261,_RNCNCNvNtCsmdD2PK2ogL_9detective8database19ensure_voters_exist00B7_
FN:266,_RNCNCNvNtCsmdD2PK2ogL_9detective8database19ensure_voters_exist0s_0B7_
FN:267,_RNCNCNvNtCsmdD2PK2ogL_9detective8database19ensure_voters_exist0s0_0B7_
FN:282,_RNvNtCsmdD2PK2ogL_9detective8database30update_indexer_speed_and_index
FN:287,_RNCNvNtCsmdD2PK2ogL_9detective8database30update_indexer_speed_and_index0B5_
FN:299,_RNvNtCsmdD2PK2ogL_9detective8database20update_indexer_speed
FN:303,_RNCNvNtCsmdD2PK2ogL_9detective8database20update_indexer_speed0B5_
FN:314,_RNvNtCsmdD2PK2ogL_9detective8database18fetch_dao_indexers
FN:316,_RNCNvNtCsmdD2PK2ogL_9detective8database18fetch_dao_indexers0B5_
FN:324,_RNCNCNvNtCsmdD2PK2ogL_9detective8database18fetch_dao_indexers00B7_
FN:324,_RNCNCNCNvNtCsmdD2PK2ogL_9detective8database18fetch_dao_indexers000B9_
FN:36,_RNCNvMNtCsmdD2PK2ogL_9detective8databaseNtB4_13DatabaseStore7connect0B6_
FN:36,_RNvMNtCsmdD2PK2ogL_9detective8databaseNtB2_13DatabaseStore7connect
FNDA:0,_RNvNtCsmdD2PK2ogL_9detective8database15store_proposals
FNDA:0,_RNCNvNtCsmdD2PK2ogL_9detective8database15store_proposals0B5_
FNDA:0,_RNCNCNvNtCsmdD2PK2ogL_9detective8database15store_proposals00B7_
FNDA:0,_RNCNCNvNtCsmdD2PK2ogL_9detective8database15store_proposals0s_0B7_
FNDA:0,_RNCNCNvNtCsmdD2PK2ogL_9detective8database15store_proposals0s0_0B7_
FNDA:0,_RNvNtCsmdD2PK2ogL_9detective8database11store_votes
FNDA:0,_RNCNvNtCsmdD2PK2ogL_9detective8database11store_votes0B5_
FNDA:0,_RNCNCNvNtCsmdD2PK2ogL_9detective8database11store_votes00B7_
FNDA:0,_RNCNCNvNtCsmdD2PK2ogL_9detective8database11store_votes0s_0B7_
FNDA:0,_RNCNCNvNtCsmdD2PK2ogL_9detective8database11store_votes0s0_0B7_
FNDA:0,_RNvNtCsmdD2PK2ogL_9detective8database19ensure_voters_exist
FNDA:0,_RNCNvNtCsmdD2PK2ogL_9detective8database19ensure_voters_exist0B5_
FNDA:0,_RNCNCNvNtCsmdD2PK2ogL_9detective8database19ensure_voters_exist00B7_
FNDA:0,_RNCNCNvNtCsmdD2PK2ogL_9detective8database19ensure_voters_exist0s_0B7_
FNDA:0,_RNCNCNvNtCsmdD2PK2ogL_9detective8database19ensure_voters_exist0s0_0B7_
FNDA:0,_RNvNtCsmdD2PK2ogL_9detective8database30update_indexer_speed_and_index
FNDA:0,_RNCNvNtCsmdD2PK2ogL_9detective8database30update_indexer_speed_and_index0B5_
FNDA:0,_RNvNtCsmdD2PK2ogL_9detective8database20update_indexer_speed
FNDA:0,_RNCNvNtCsmdD2PK2ogL_9detective8database20update_indexer_speed0B5_
FNDA:0,_RNvNtCsmdD2PK2ogL_9detective8database18fetch_dao_indexers
FNDA:0,_RNCNvNtCsmdD2PK2ogL_9detective8database18fetch_dao_indexers0B5_
FNDA:0,_RNCNCNvNtCsmdD2PK2ogL_9detective8database18fetch_dao_indexers00B7_
FNDA:0,_RNCNCNCNvNtCsmdD2PK2ogL_9detective8database18fetch_dao_indexers000B9_
FNDA:0,_RNCNvMNtCsmdD2PK2ogL_9detective8databaseNtB4_13DatabaseStore7connect0B6_
FNDA:0,_RNvMNtCsmdD2PK2ogL_9detective8databaseNtB2_13DatabaseStore7connect
FNF:25
FNH:0
DA:36,0
DA:37,0
DA:38,0
DA:40,0
DA:41,0
DA:42,0
DA:43,0
DA:44,0
DA:45,0
DA:46,0
DA:47,0
DA:48,0
DA:49,0
DA:50,0
DA:51,0
DA:52,0
DA:55,0
DA:56,0
DA:57,0
DA:58,0
DA:59,0
DA:60,0
DA:62,0
DA:63,0
DA:64,0
DA:65,0
DA:67,0
DA:68,0
DA:69,0
DA:70,0
DA:71,0
DA:72,0
DA:73,0
DA:74,0
DA:75,0
DA:76,0
DA:77,0
DA:78,0
DA:79,0
DA:80,0
DA:81,0
DA:82,0
DA:83,0
DA:84,0
DA:85,0
DA:86,0
DA:89,0
DA:90,0
DA:91,0
DA:92,0
DA:93,0
DA:94,0
DA:97,0
DA:98,0
DA:99,0
DA:101,0
DA:102,0
DA:103,0
DA:104,0
DA:105,0
DA:106,0
DA:107,0
DA:108,0
DA:110,0
DA:112,0
DA:113,0
DA:114,0
DA:115,0
DA:118,0
DA:119,0
DA:120,0
DA:121,0
DA:123,0
DA:126,0
DA:129,0
DA:132,0
DA:134,0
DA:135,0
DA:137,0
DA:140,0
DA:143,0
DA:146,0
DA:148,0
DA:150,0
DA:153,0
DA:156,0
DA:159,0
DA:161,0
DA:163,0
DA:166,0
DA:168,0
DA:172,0
DA:173,0
DA:174,0
DA:175,0
DA:176,0
DA:177,0
DA:178,0
DA:180,0
DA:181,0
DA:182,0
DA:183,0
DA:184,0
DA:185,0
DA:186,0
DA:187,0
DA:189,0
DA:190,0
DA:191,0
DA:192,0
DA:193,0
DA:194,0
DA:195,0
DA:196,0
DA:197,0
DA:198,0
DA:199,0
DA:200,0
DA:201,0
DA:204,0
DA:205,0
DA:206,0
DA:207,0
DA:208,0
DA:209,0
DA:210,0
DA:211,0
DA:215,0
DA:216,0
DA:217,0
DA:218,0
DA:220,0
DA:221,0
DA:222,0
DA:223,0
DA:224,0
DA:225,0
DA:226,0
DA:227,0
DA:228,0
DA:229,0
DA:230,0
DA:231,0
DA:232,0
DA:233,0
DA:234,0
DA:235,0
DA:236,0
DA:237,0
DA:240,0
DA:242,0
DA:243,0
DA:245,0
DA:246,0
DA:247,0
DA:248,0
DA:251,0
DA:252,0
DA:253,0
DA:254,0
DA:256,0
DA:257,0
DA:258,0
DA:259,0
DA:260,0
DA:261,0
DA:262,0
DA:263,0
DA:264,0
DA:265,0
DA:266,0
DA:267,0
DA:268,0
DA:269,0
DA:270,0
DA:271,0
DA:272,0
DA:273,0
DA:274,0
DA:275,0
DA:276,0
DA:279,0
DA:280,0
DA:282,0
DA:283,0
DA:284,0
DA:285,0
DA:286,0
DA:287,0
DA:288,0
DA:289,0
DA:290,0
DA:291,0
DA:292,0
DA:293,0
DA:294,0
DA:295,0
DA:296,0
DA:297,0
DA:299,0
DA:300,0
DA:301,0
DA:302,0
DA:303,0
DA:304,0
DA:305,0
DA:306,0
DA:307,0
DA:308,0
DA:309,0
DA:310,0
DA:311,0
DA:312,0
DA:314,0
DA:315,0
DA:316,0
DA:317,0
DA:318,0
DA:319,0
DA:320,0
DA:321,0
DA:322,0
DA:323,0
DA:324,0
DA:325,0
DA:326,0
BRF:0
BRH:0
LF:246
LH:0
end_of_record
SF:/Users/andrei/git/proposalsapp/apps/detective/indexer.rs
FN:16,_RNvYpNtNtCsmdD2PK2ogL_9detective7indexer7Indexer12adjust_speedB7_
FNDA:0,_RNvYpNtNtCsmdD2PK2ogL_9detective7indexer7Indexer12adjust_speedB7_
FNF:1
FNH:0
DA:16,0
DA:17,0
DA:19,0
DA:20,0
DA:21,0
DA:24,0
DA:25,0
DA:27,0
BRF:0
BRH:0
LF:8
LH:0
end_of_record
SF:/Users/andrei/git/proposalsapp/apps/detective/indexers/aave_v2_mainnet_proposals.rs
FN:110,_RNvXNtNtCsmdD2PK2ogL_9detective8indexers25aave_v2_mainnet_proposalsNtB2_29AaveV2MainnetProposalsIndexerNtNtB6_7indexer7Indexer17min_refresh_speed
FN:113,_RNvXNtNtCsmdD2PK2ogL_9detective8indexers25aave_v2_mainnet_proposalsNtB2_29AaveV2MainnetProposalsIndexerNtNtB6_7indexer7Indexer17max_refresh_speed
FN:118,_RNvNtNtCsmdD2PK2ogL_9detective8indexers25aave_v2_mainnet_proposals17data_for_proposal
FN:305,_RNvNtNtCsmdD2PK2ogL_9detective8indexers25aave_v2_mainnet_proposals9get_title
FN:375,_RNvNtNtCsmdD2PK2ogL_9detective8indexers25aave_v2_mainnet_proposals14get_discussion
FN:448,_RNvNtNtCsmdD2PK2ogL_9detective8indexers25aave_v2_mainnet_proposals8get_body
FN:109,_RNvXNtNtCsmdD2PK2ogL_9detective8indexers25aave_v2_mainnet_proposalsNtB2_29AaveV2MainnetProposalsIndexerNtNtB6_7indexer7Indexer7process
FN:123,_RNCNvNtNtCsmdD2PK2ogL_9detective8indexers25aave_v2_mainnet_proposals17data_for_proposal0B7_
FN:197,_RNCNCNvNtNtCsmdD2PK2ogL_9detective8indexers25aave_v2_mainnet_proposals17data_for_proposal00B9_
FN:253,_RNCNCNvNtNtCsmdD2PK2ogL_9detective8indexers25aave_v2_mainnet_proposals17data_for_proposal0s_0B9_
FN:254,_RNCNCNvNtNtCsmdD2PK2ogL_9detective8indexers25aave_v2_mainnet_proposals17data_for_proposal0s0_0B9_
FN:305,_RNCNvNtNtCsmdD2PK2ogL_9detective8indexers25aave_v2_mainnet_proposals9get_title0B7_
FN:375,_RNCNvNtNtCsmdD2PK2ogL_9detective8indexers25aave_v2_mainnet_proposals14get_discussion0B7_
FN:448,_RNCNvNtNtCsmdD2PK2ogL_9detective8indexers25aave_v2_mainnet_proposals8get_body0B7_
FN:54,_RNCNvXNtNtCsmdD2PK2ogL_9detective8indexers25aave_v2_mainnet_proposalsNtB4_29AaveV2MainnetProposalsIndexerNtNtB8_7indexer7Indexer7process0B8_
FN:95,_RNCNCNvXNtNtCsmdD2PK2ogL_9detective8indexers25aave_v2_mainnet_proposalsNtB6_29AaveV2MainnetProposalsIndexerNtNtBa_7indexer7Indexer7process00Ba_
FN:101,_RNCNCNvXNtNtCsmdD2PK2ogL_9detective8indexers25aave_v2_mainnet_proposalsNtB6_29AaveV2MainnetProposalsIndexerNtNtBa_7indexer7Indexer7process0s_0Ba_
FN:492,_RNvNtNtNtCsmdD2PK2ogL_9detective8indexers25aave_v2_mainnet_proposals15aave_v2_contents_18get_markdown_title
FN:511,_RNvNtNtNtCsmdD2PK2ogL_9detective8indexers25aave_v2_mainnet_proposals15aave_v2_contents_14get_json_title
FN:523,_RNvNtNtNtCsmdD2PK2ogL_9detective8indexers25aave_v2_mainnet_proposals15aave_v2_contents_26get_markdown_discussionurl
FN:546,_RNvNtNtNtCsmdD2PK2ogL_9detective8indexers25aave_v2_mainnet_proposals15aave_v2_contents_22get_json_discussionurl
FN:560,_RNvNtNtNtCsmdD2PK2ogL_9detective8indexers25aave_v2_mainnet_proposals15aave_v2_contents_17get_markdown_body
FN:572,_RNvNtNtNtCsmdD2PK2ogL_9detective8indexers25aave_v2_mainnet_proposals15aave_v2_contents_13get_json_body
FN:596,_RNvNtNtNtCsmdD2PK2ogL_9detective8indexers25aave_v2_mainnet_proposals17aave_v2_proposalss_9aave_v2_1
FN:660,_RNvNtNtNtCsmdD2PK2ogL_9detective8indexers25aave_v2_mainnet_proposals17aave_v2_proposalss_9aave_v2_2
FN:722,_RNvNtNtNtCsmdD2PK2ogL_9detective8indexers25aave_v2_mainnet_proposals17aave_v2_proposalss_9aave_v2_3
FN:492,_RNCNvNtNtNtCsmdD2PK2ogL_9detective8indexers25aave_v2_mainnet_proposals15aave_v2_contents_18get_markdown_title0B9_
FN:511,_RNCNvNtNtNtCsmdD2PK2ogL_9detective8indexers25aave_v2_mainnet_proposals15aave_v2_contents_14get_json_title0B9_
FN:523,_RNCNvNtNtNtCsmdD2PK2ogL_9detective8indexers25aave_v2_mainnet_proposals15aave_v2_contents_26get_markdown_discussionurl0B9_
FN:546,_RNCNvNtNtNtCsmdD2PK2ogL_9detective8indexers25aave_v2_mainnet_proposals15aave_v2_contents_22get_json_discussionurl0B9_
FN:560,_RNCNvNtNtNtCsmdD2PK2ogL_9detective8indexers25aave_v2_mainnet_proposals15aave_v2_contents_17get_markdown_body0B9_
FN:572,_RNCNvNtNtNtCsmdD2PK2ogL_9detective8indexers25aave_v2_mainnet_proposals15aave_v2_contents_13get_json_body0B9_
FN:596,_RNCNvNtNtNtCsmdD2PK2ogL_9detective8indexers25aave_v2_mainnet_proposals17aave_v2_proposalss_9aave_v2_10B9_
FN:660,_RNCNvNtNtNtCsmdD2PK2ogL_9detective8indexers25aave_v2_mainnet_proposals17aave_v2_proposalss_9aave_v2_20B9_
FN:722,_RNCNvNtNtNtCsmdD2PK2ogL_9detective8indexers25aave_v2_mainnet_proposals17aave_v2_proposalss_9aave_v2_30B9_
FNDA:0,_RNvXNtNtCsmdD2PK2ogL_9detective8indexers25aave_v2_mainnet_proposalsNtB2_29AaveV2MainnetProposalsIndexerNtNtB6_7indexer7Indexer17min_refresh_speed
FNDA:0,_RNvXNtNtCsmdD2PK2ogL_9detective8indexers25aave_v2_mainnet_proposalsNtB2_29AaveV2MainnetProposalsIndexerNtNtB6_7indexer7Indexer17max_refresh_speed
FNDA:3,_RNvNtNtCsmdD2PK2ogL_9detective8indexers25aave_v2_mainnet_proposals17data_for_proposal
FNDA:8,_RNvNtNtCsmdD2PK2ogL_9detective8indexers25aave_v2_mainnet_proposals9get_title
FNDA:8,_RNvNtNtCsmdD2PK2ogL_9detective8indexers25aave_v2_mainnet_proposals14get_discussion
FNDA:7,_RNvNtNtCsmdD2PK2ogL_9detective8indexers25aave_v2_mainnet_proposals8get_body
FNDA:3,_RNvXNtNtCsmdD2PK2ogL_9detective8indexers25aave_v2_mainnet_proposalsNtB2_29AaveV2MainnetProposalsIndexerNtNtB6_7indexer7Indexer7process
FNDA:3,_RNCNvNtNtCsmdD2PK2ogL_9detective8indexers25aave_v2_mainnet_proposals17data_for_proposal0B7_
FNDA:0,_RNCNCNvNtNtCsmdD2PK2ogL_9detective8indexers25aave_v2_mainnet_proposals17data_for_proposal00B9_
FNDA:1,_RNCNCNvNtNtCsmdD2PK2ogL_9detective8indexers25aave_v2_mainnet_proposals17data_for_proposal0s_0B9_
FNDA:2,_RNCNCNvNtNtCsmdD2PK2ogL_9detective8indexers25aave_v2_mainnet_proposals17data_for_proposal0s0_0B9_
FNDA:8,_RNCNvNtNtCsmdD2PK2ogL_9detective8indexers25aave_v2_mainnet_proposals9get_title0B7_
FNDA:8,_RNCNvNtNtCsmdD2PK2ogL_9detective8indexers25aave_v2_mainnet_proposals14get_discussion0B7_
FNDA:7,_RNCNvNtNtCsmdD2PK2ogL_9detective8indexers25aave_v2_mainnet_proposals8get_body0B7_
FNDA:3,_RNCNvXNtNtCsmdD2PK2ogL_9detective8indexers25aave_v2_mainnet_proposalsNtB4_29AaveV2MainnetProposalsIndexerNtNtB8_7indexer7Indexer7process0B8_
FNDA:3,_RNCNCNvXNtNtCsmdD2PK2ogL_9detective8indexers25aave_v2_mainnet_proposalsNtB6_29AaveV2MainnetProposalsIndexerNtNtBa_7indexer7Indexer7process00Ba_
FNDA:0,_RNCNCNvXNtNtCsmdD2PK2ogL_9detective8indexers25aave_v2_mainnet_proposalsNtB6_29AaveV2MainnetProposalsIndexerNtNtBa_7indexer7Indexer7process0s_0Ba_
FNDA:1,_RNvNtNtNtCsmdD2PK2ogL_9detective8indexers25aave_v2_mainnet_proposals15aave_v2_contents_18get_markdown_title
FNDA:1,_RNvNtNtNtCsmdD2PK2ogL_9detective8indexers25aave_v2_mainnet_proposals15aave_v2_contents_14get_json_title
FNDA:1,_RNvNtNtNtCsmdD2PK2ogL_9detective8indexers25aave_v2_mainnet_proposals15aave_v2_contents_26get_markdown_discussionurl
FNDA:1,_RNvNtNtNtCsmdD2PK2ogL_9detective8indexers25aave_v2_mainnet_proposals15aave_v2_contents_22get_json_discussionurl
FNDA:1,_RNvNtNtNtCsmdD2PK2ogL_9detective8indexers25aave_v2_mainnet_proposals15aave_v2_contents_17get_markdown_body
FNDA:1,_RNvNtNtNtCsmdD2PK2ogL_9detective8indexers25aave_v2_mainnet_proposals15aave_v2_contents_13get_json_body
FNDA:1,_RNvNtNtNtCsmdD2PK2ogL_9detective8indexers25aave_v2_mainnet_proposals17aave_v2_proposalss_9aave_v2_1
FNDA:1,_RNvNtNtNtCsmdD2PK2ogL_9detective8indexers25aave_v2_mainnet_proposals17aave_v2_proposalss_9aave_v2_2
FNDA:1,_RNvNtNtNtCsmdD2PK2ogL_9detective8indexers25aave_v2_mainnet_proposals17aave_v2_proposalss_9aave_v2_3
FNDA:1,_RNCNvNtNtNtCsmdD2PK2ogL_9detective8indexers25aave_v2_mainnet_proposals15aave_v2_contents_18get_markdown_title0B9_
FNDA:1,_RNCNvNtNtNtCsmdD2PK2ogL_9detective8indexers25aave_v2_mainnet_proposals15aave_v2_contents_14get_json_title0B9_
FNDA:1,_RNCNvNtNtNtCsmdD2PK2ogL_9detective8indexers25aave_v2_mainnet_proposals15aave_v2_contents_26get_markdown_discussionurl0B9_
FNDA:1,_RNCNvNtNtNtCsmdD2PK2ogL_9detective8indexers25aave_v2_mainnet_proposals15aave_v2_contents_22get_json_discussionurl0B9_
FNDA:1,_RNCNvNtNtNtCsmdD2PK2ogL_9detective8indexers25aave_v2_mainnet_proposals15aave_v2_contents_17get_markdown_body0B9_
FNDA:1,_RNCNvNtNtNtCsmdD2PK2ogL_9detective8indexers25aave_v2_mainnet_proposals15aave_v2_contents_13get_json_body0B9_
FNDA:1,_RNCNvNtNtNtCsmdD2PK2ogL_9detective8indexers25aave_v2_mainnet_proposals17aave_v2_proposalss_9aave_v2_10B9_
FNDA:1,_RNCNvNtNtNtCsmdD2PK2ogL_9detective8indexers25aave_v2_mainnet_proposals17aave_v2_proposalss_9aave_v2_20B9_
FNDA:1,_RNCNvNtNtNtCsmdD2PK2ogL_9detective8indexers25aave_v2_mainnet_proposals17aave_v2_proposalss_9aave_v2_30B9_
FNF:35
FNH:31
DA:54,3
DA:55,3
DA:57,3
DA:59,3
DA:60,3
DA:61,18
DA:62,3
DA:64,3
DA:65,3
DA:66,0
DA:68,3
DA:71,3
DA:72,3
DA:73,3
DA:75,3
DA:76,3
DA:77,3
DA:78,3
DA:79,3
DA:80,3
DA:81,11
DA:82,3
DA:84,3
DA:86,3
DA:87,3
DA:88,639
DA:89,3
DA:90,3
DA:93,3
DA:94,3
DA:95,3
DA:96,3
DA:97,3
DA:100,3
DA:101,3
DA:102,0
DA:103,0
DA:104,3
DA:105,3
DA:106,3
DA:107,3
DA:108,3
DA:109,6
DA:110,0
DA:111,0
DA:112,0
DA:113,0
DA:114,0
DA:115,0
DA:118,3
DA:119,3
DA:120,3
DA:121,3
DA:122,3
DA:123,3
DA:124,3
DA:125,3
DA:126,3
DA:127,3
DA:129,3
DA:130,3
DA:131,40
DA:132,3
DA:133,3
DA:134,3
DA:135,3
DA:136,3
DA:137,3
DA:138,3
DA:139,3
DA:140,3
DA:141,3
DA:142,3
DA:144,253
DA:145,3
DA:147,0
DA:148,0
DA:149,0
DA:150,0
DA:151,0
DA:152,0
DA:153,0
DA:154,0
DA:155,0
DA:158,0
DA:159,0
DA:163,238
DA:164,3
DA:166,0
DA:167,0
DA:168,0
DA:169,0
DA:170,0
DA:171,0
DA:172,0
DA:173,0
DA:174,0
DA:177,0
DA:178,0
DA:182,3
DA:183,3
DA:184,3
DA:185,3
DA:186,3
DA:187,3
DA:188,3
DA:189,3
DA:190,3
DA:192,3
DA:193,3
DA:194,3
DA:195,3
DA:196,3
DA:197,3
DA:198,3
DA:200,3
DA:201,3
DA:202,3
DA:203,3
DA:204,3
DA:207,3
DA:208,3
DA:209,3
DA:210,3
DA:211,3
DA:214,3
DA:215,3
DA:216,3
DA:218,3
DA:219,3
DA:220,3
DA:221,11
DA:222,3
DA:225,3
DA:226,3
DA:227,3
DA:228,3
DA:229,3
DA:230,3
DA:231,3
DA:232,3
DA:233,3
DA:234,3
DA:235,3
DA:236,3
DA:238,3
DA:239,29
DA:240,3
DA:241,3
DA:242,28
DA:243,3
DA:244,3
DA:245,28
DA:246,3
DA:248,3
DA:249,3
DA:250,3
DA:251,3
DA:252,3
DA:253,3
DA:254,3
DA:255,2
DA:256,2
DA:257,0
DA:258,0
DA:260,0
DA:262,3
DA:264,3
DA:265,0
DA:266,1
DA:267,0
DA:268,0
DA:269,0
DA:270,0
DA:271,0
DA:272,2
DA:273,0
DA:276,3
DA:277,3
DA:278,3
DA:279,3
DA:280,3
DA:281,3
DA:282,3
DA:283,3
DA:284,3
DA:285,3
DA:286,3
DA:287,3
DA:288,3
DA:289,3
DA:290,3
DA:291,3
DA:292,3
DA:293,3
DA:294,3
DA:295,3
DA:296,3
DA:297,3
DA:298,3
DA:299,3
DA:300,3
DA:301,3
DA:302,3
DA:303,3
DA:305,8
DA:306,8
DA:307,8
DA:308,8
DA:310,8
DA:311,8
DA:312,8
DA:313,8
DA:314,8
DA:317,18
DA:318,18
DA:319,18
DA:320,18
DA:321,91
DA:323,14
DA:324,14
DA:326,21
DA:328,6
DA:330,6
DA:331,3
DA:332,3
DA:334,3
DA:335,3
DA:336,3
DA:337,0
DA:339,6
DA:340,6
DA:341,6
DA:342,0
DA:343,6
DA:345,6
DA:346,2
DA:347,4
DA:349,6
DA:350,2
DA:351,4
DA:353,6
DA:354,0
DA:355,6
DA:357,6
DA:359,12
DA:360,12
DA:361,12
DA:362,12
DA:363,12
DA:364,12
DA:365,12
DA:366,10
DA:367,10
DA:368,10
DA:370,2
DA:373,8
DA:375,8
DA:376,8
DA:377,8
DA:378,8
DA:380,8
DA:381,8
DA:382,8
DA:383,8
DA:384,8
DA:387,18
DA:388,18
DA:389,18
DA:390,18
DA:391,90
DA:393,14
DA:394,14
DA:396,20
DA:398,6
DA:400,6
DA:401,3
DA:402,3
DA:403,3
DA:404,3
DA:405,3
DA:407,3
DA:408,3
DA:409,3
DA:410,0
DA:412,6
DA:413,6
DA:414,6
DA:415,0
DA:416,6
DA:418,6
DA:419,2
DA:420,4
DA:422,6
DA:423,2
DA:424,4
DA:426,6
DA:427,0
DA:428,6
DA:430,6
DA:432,12
DA:433,12
DA:434,12
DA:435,12
DA:436,12
DA:437,12
DA:438,12
DA:439,10
DA:440,10
DA:441,10
DA:443,2
DA:446,8
DA:448,7
DA:449,7
DA:450,7
DA:451,7
DA:452,7
DA:453,7
DA:454,7
DA:455,7
DA:456,7
DA:459,17
DA:460,17
DA:461,17
DA:462,17
DA:463,82
DA:465,13
DA:466,13
DA:467,18
DA:469,5
DA:471,12
DA:472,12
DA:473,12
DA:474,12
DA:475,12
DA:476,12
DA:477,12
DA:478,10
DA:479,10
DA:480,10
DA:482,2
DA:485,7
DA:492,1
DA:493,1
DA:494,1
DA:495,11
DA:496,1
DA:497,1
DA:498,1
DA:499,1
DA:500,1
DA:501,1
DA:502,8
DA:503,1
DA:504,1
DA:505,1
DA:506,1
DA:507,31
DA:508,1
DA:511,1
DA:512,1
DA:513,1
DA:514,11
DA:515,1
DA:516,1
DA:517,1
DA:518,1
DA:519,32
DA:520,1
DA:523,1
DA:524,1
DA:525,1
DA:526,1
DA:527,1
DA:528,10
DA:529,1
DA:530,1
DA:531,1
DA:532,1
DA:533,1
DA:534,1
DA:535,1
DA:536,1
DA:537,8
DA:538,1
DA:539,1
DA:540,1
DA:541,1
DA:542,33
DA:543,1
DA:546,1
DA:547,1
DA:548,1
DA:549,1
DA:550,1
DA:551,10
DA:552,1
DA:553,1
DA:554,1
DA:555,1
DA:556,31
DA:557,1
DA:560,1
DA:561,1
DA:562,1
DA:563,10
DA:564,1
DA:565,1
DA:566,1
DA:567,1
DA:568,31
DA:569,1
DA:572,1
DA:573,1
DA:574,1
DA:575,10
DA:576,1
DA:577,1
DA:578,1
DA:579,1
DA:580,31
DA:581,1
DA:596,1
DA:597,1
DA:598,1
DA:599,1
DA:600,1
DA:601,1
DA:602,1
DA:603,1
DA:604,1
DA:605,1
DA:606,1
DA:607,1
DA:608,1
DA:609,1
DA:610,1
DA:611,1
DA:612,1
DA:613,1
DA:614,1
DA:615,1
DA:616,1
DA:617,1
DA:618,1
DA:619,1
DA:620,1
DA:621,1
DA:622,217
DA:623,1
DA:624,1
DA:625,1
DA:626,1
DA:627,1
DA:628,1
DA:629,1
DA:630,1
DA:631,1
DA:632,1
DA:633,1
DA:634,1
DA:635,1
DA:636,1
DA:637,1
DA:638,1
DA:639,1
DA:640,1
DA:641,1
DA:642,1
DA:643,1
DA:644,1
DA:645,1
DA:646,1
DA:647,1
DA:648,1
DA:649,1
DA:650,1
DA:651,1
DA:652,1
DA:653,1
DA:654,1
DA:655,1
DA:656,1
DA:657,1
DA:660,1
DA:661,1
DA:662,1
DA:663,1
DA:664,1
DA:665,1
DA:666,1
DA:667,1
DA:668,1
DA:669,1
DA:670,1
DA:671,1
DA:672,1
DA:673,1
DA:674,1
DA:675,1
DA:676,1
DA:677,1
DA:678,1
DA:679,1
DA:680,1
DA:681,1
DA:682,1
DA:683,1
DA:684,1
DA:685,1
DA:686,235
DA:687,1
DA:688,1
DA:689,1
DA:690,1
DA:691,1
DA:692,1
DA:693,1
DA:694,1
DA:695,1
DA:696,1
DA:697,1
DA:698,1
DA:699,1
DA:700,1
DA:701,1
DA:702,1
DA:703,1
DA:704,1
DA:705,1
DA:706,1
DA:707,1
DA:708,1
DA:709,1
DA:710,1
DA:711,1
DA:712,1
DA:713,1
DA:714,1
DA:715,1
DA:716,1
DA:717,1
DA:718,1
DA:719,1
DA:722,1
DA:723,1
DA:724,1
DA:725,1
DA:726,1
DA:727,1
DA:728,1
DA:729,1
DA:730,1
DA:731,1
DA:732,1
DA:733,1
DA:734,1
DA:735,1
DA:736,1
DA:737,1
DA:738,1
DA:739,1
DA:740,1
DA:741,1
DA:742,1
DA:743,1
DA:744,1
DA:745,1
DA:746,1
DA:747,1
DA:748,216
DA:749,1
DA:750,1
DA:751,1
DA:752,1
DA:753,1
DA:754,1
DA:755,1
DA:756,1
DA:757,1
DA:758,1
DA:759,1
DA:760,1
DA:761,1
DA:762,1
DA:763,1
DA:764,1
DA:765,1
DA:766,1
DA:767,1
DA:768,1
DA:769,1
DA:770,1
DA:771,1
DA:772,1
DA:773,1
DA:774,1
DA:775,1
DA:776,1
DA:777,1
DA:778,1
DA:779,1
BRF:0
BRH:0
LF:833
LH:780
end_of_record
SF:/Users/andrei/git/proposalsapp/apps/detective/indexers/aave_v2_mainnet_votes.rs
FN:20,_RNvMNtNtCsmdD2PK2ogL_9detective8indexers21aave_v2_mainnet_votesNtB2_25AaveV2MainnetVotesIndexer24proposal_indexer_variant
FN:74,_RNvXs_NtNtCsmdD2PK2ogL_9detective8indexers21aave_v2_mainnet_votesNtB4_25AaveV2MainnetVotesIndexerNtNtB8_7indexer7Indexer17min_refresh_speed
FN:77,_RNvXs_NtNtCsmdD2PK2ogL_9detective8indexers21aave_v2_mainnet_votesNtB4_25AaveV2MainnetVotesIndexerNtNtB8_7indexer7Indexer17max_refresh_speed
FN:86,_RNCNvNtNtCsmdD2PK2ogL_9detective8indexers21aave_v2_mainnet_votes9get_votes0B7_
FN:38,_RNCNvXs_NtNtCsmdD2PK2ogL_9detective8indexers21aave_v2_mainnet_votesNtB6_25AaveV2MainnetVotesIndexerNtNtBa_7indexer7Indexer7process0Ba_
FN:82,_RNvNtNtCsmdD2PK2ogL_9detective8indexers21aave_v2_mainnet_votes9get_votes
FN:73,_RNvXs_NtNtCsmdD2PK2ogL_9detective8indexers21aave_v2_mainnet_votesNtB4_25AaveV2MainnetVotesIndexerNtNtB8_7indexer7Indexer7process
FN:142,_RNCNvNtNtNtCsmdD2PK2ogL_9detective8indexers21aave_v2_mainnet_votes21aave_v2_mainnet_votess_17aave_v2_mainnet_10B9_
FN:142,_RNvNtNtNtCsmdD2PK2ogL_9detective8indexers21aave_v2_mainnet_votes21aave_v2_mainnet_votess_17aave_v2_mainnet_1
FNDA:0,_RNvMNtNtCsmdD2PK2ogL_9detective8indexers21aave_v2_mainnet_votesNtB2_25AaveV2MainnetVotesIndexer24proposal_indexer_variant
FNDA:0,_RNvXs_NtNtCsmdD2PK2ogL_9detective8indexers21aave_v2_mainnet_votesNtB4_25AaveV2MainnetVotesIndexerNtNtB8_7indexer7Indexer17min_refresh_speed
FNDA:0,_RNvXs_NtNtCsmdD2PK2ogL_9detective8indexers21aave_v2_mainnet_votesNtB4_25AaveV2MainnetVotesIndexerNtNtB8_7indexer7Indexer17max_refresh_speed
FNDA:1,_RNCNvNtNtCsmdD2PK2ogL_9detective8indexers21aave_v2_mainnet_votes9get_votes0B7_
FNDA:1,_RNCNvXs_NtNtCsmdD2PK2ogL_9detective8indexers21aave_v2_mainnet_votesNtB6_25AaveV2MainnetVotesIndexerNtNtBa_7indexer7Indexer7process0Ba_
FNDA:1,_RNvNtNtCsmdD2PK2ogL_9detective8indexers21aave_v2_mainnet_votes9get_votes
FNDA:1,_RNvXs_NtNtCsmdD2PK2ogL_9detective8indexers21aave_v2_mainnet_votesNtB4_25AaveV2MainnetVotesIndexerNtNtB8_7indexer7Indexer7process
FNDA:1,_RNCNvNtNtNtCsmdD2PK2ogL_9detective8indexers21aave_v2_mainnet_votes21aave_v2_mainnet_votess_17aave_v2_mainnet_10B9_
FNDA:1,_RNvNtNtNtCsmdD2PK2ogL_9detective8indexers21aave_v2_mainnet_votes21aave_v2_mainnet_votess_17aave_v2_mainnet_1
FNF:9
FNH:6
DA:20,0
DA:21,0
DA:22,0
DA:38,1
DA:39,1
DA:41,1
DA:43,1
DA:44,1
DA:45,6
DA:46,1
DA:48,1
DA:49,1
DA:50,0
DA:52,1
DA:55,1
DA:56,1
DA:57,1
DA:59,1
DA:60,1
DA:61,1
DA:62,1
DA:63,1
DA:64,1
DA:65,1
DA:66,1
DA:68,1
DA:69,12
DA:70,1
DA:72,1
DA:73,2
DA:74,0
DA:75,0
DA:76,0
DA:77,0
DA:78,0
DA:79,0
DA:82,1
DA:83,1
DA:84,1
DA:85,1
DA:86,1
DA:87,1
DA:88,1
DA:89,1
DA:91,2
DA:92,1
DA:93,1
DA:94,1
DA:95,12
DA:96,1
DA:97,1
DA:98,1
DA:99,1
DA:100,1
DA:101,1
DA:102,1
DA:103,1
DA:104,1
DA:105,1
DA:106,1
DA:107,1
DA:108,1
DA:109,1
DA:110,1
DA:111,1
DA:112,0
DA:114,1
DA:115,1
DA:116,1
DA:117,1
DA:118,1
DA:119,1
DA:120,1
DA:121,1
DA:122,1
DA:123,1
DA:124,1
DA:125,1
DA:129,1
DA:130,1
DA:142,1
DA:143,1
DA:144,1
DA:145,1
DA:146,1
DA:147,1
DA:148,1
DA:149,1
DA:150,1
DA:151,1
DA:152,1
DA:153,1
DA:154,1
DA:155,1
DA:156,1
DA:157,1
DA:158,1
DA:159,1
DA:160,1
DA:161,1
DA:162,1
DA:163,1
DA:164,1
DA:165,1
DA:166,19
DA:167,1
DA:168,1
DA:169,1
DA:170,1
DA:171,1
DA:172,1
DA:173,1
DA:174,1
DA:175,1
DA:176,1
DA:177,1
DA:178,1
DA:179,1
DA:180,1
DA:181,1
DA:182,1
DA:183,1
DA:184,1
DA:185,1
DA:186,1
DA:187,1
DA:188,1
BRF:0
BRH:0
LF:173
LH:161
end_of_record
SF:/Users/andrei/git/proposalsapp/apps/detective/indexers/aave_v3_avalanche_votes.rs
FN:20,_RNvMNtNtCsmdD2PK2ogL_9detective8indexers23aave_v3_avalanche_votesNtB2_27AaveV3AvalancheVotesIndexer24proposal_indexer_variant
FN:73,_RNvXs_NtNtCsmdD2PK2ogL_9detective8indexers23aave_v3_avalanche_votesNtB4_27AaveV3AvalancheVotesIndexerNtNtB8_7indexer7Indexer7process
FN:38,_RNCNvXs_NtNtCsmdD2PK2ogL_9detective8indexers23aave_v3_avalanche_votesNtB6_27AaveV3AvalancheVotesIndexerNtNtBa_7indexer7Indexer7process0Ba_
FN:74,_RNvXs_NtNtCsmdD2PK2ogL_9detective8indexers23aave_v3_avalanche_votesNtB4_27AaveV3AvalancheVotesIndexerNtNtB8_7indexer7Indexer17min_refresh_speed
FN:77,_RNvXs_NtNtCsmdD2PK2ogL_9detective8indexers23aave_v3_avalanche_votesNtB4_27AaveV3AvalancheVotesIndexerNtNtB8_7indexer7Indexer17max_refresh_speed
FN:82,_RNvNtNtCsmdD2PK2ogL_9detective8indexers23aave_v3_avalanche_votes9get_votes
FN:86,_RNCNvNtNtCsmdD2PK2ogL_9detective8indexers23aave_v3_avalanche_votes9get_votes0B7_
FNDA:0,_RNvMNtNtCsmdD2PK2ogL_9detective8indexers23aave_v3_avalanche_votesNtB2_27AaveV3AvalancheVotesIndexer24proposal_indexer_variant
FNDA:0,_RNvXs_NtNtCsmdD2PK2ogL_9detective8indexers23aave_v3_avalanche_votesNtB4_27AaveV3AvalancheVotesIndexerNtNtB8_7indexer7Indexer7process
FNDA:0,_RNCNvXs_NtNtCsmdD2PK2ogL_9detective8indexers23aave_v3_avalanche_votesNtB6_27AaveV3AvalancheVotesIndexerNtNtBa_7indexer7Indexer7process0Ba_
FNDA:0,_RNvXs_NtNtCsmdD2PK2ogL_9detective8indexers23aave_v3_avalanche_votesNtB4_27AaveV3AvalancheVotesIndexerNtNtB8_7indexer7Indexer17min_refresh_speed
FNDA:0,_RNvXs_NtNtCsmdD2PK2ogL_9detective8indexers23aave_v3_avalanche_votesNtB4_27AaveV3AvalancheVotesIndexerNtNtB8_7indexer7Indexer17max_refresh_speed
FNDA:0,_RNvNtNtCsmdD2PK2ogL_9detective8indexers23aave_v3_avalanche_votes9get_votes
FNDA:0,_RNCNvNtNtCsmdD2PK2ogL_9detective8indexers23aave_v3_avalanche_votes9get_votes0B7_
FNF:7
FNH:0
DA:20,0
DA:21,0
DA:22,0
DA:38,0
DA:39,0
DA:41,0
DA:43,0
DA:44,0
DA:45,0
DA:46,0
DA:48,0
DA:49,0
DA:50,0
DA:52,0
DA:55,0
DA:56,0
DA:57,0
DA:59,0
DA:60,0
DA:61,0
DA:62,0
DA:63,0
DA:64,0
DA:65,0
DA:66,0
DA:68,0
DA:69,0
DA:70,0
DA:72,0
DA:73,0
DA:74,0
DA:75,0
DA:76,0
DA:77,0
DA:78,0
DA:79,0
DA:82,0
DA:83,0
DA:84,0
DA:85,0
DA:86,0
DA:87,0
DA:88,0
DA:89,0
DA:91,0
DA:92,0
DA:93,0
DA:94,0
DA:95,0
DA:96,0
DA:97,0
DA:98,0
DA:99,0
DA:100,0
DA:101,0
DA:102,0
DA:103,0
DA:104,0
DA:105,0
DA:106,0
DA:107,0
DA:108,0
DA:109,0
DA:110,0
DA:111,0
DA:112,0
DA:114,0
DA:115,0
DA:116,0
DA:117,0
DA:118,0
DA:119,0
DA:120,0
DA:121,0
DA:122,0
DA:123,0
DA:124,0
DA:125,0
DA:129,0
DA:130,0
BRF:0
BRH:0
LF:82
LH:0
end_of_record
SF:/Users/andrei/git/proposalsapp/apps/detective/indexers/aave_v3_mainnet_proposals.rs
FN:94,_RNvXNtNtCsmdD2PK2ogL_9detective8indexers25aave_v3_mainnet_proposalsNtB2_29AaveV3MainnetProposalsIndexerNtNtB6_7indexer7Indexer17min_refresh_speed
FN:97,_RNvXNtNtCsmdD2PK2ogL_9detective8indexers25aave_v3_mainnet_proposalsNtB2_29AaveV3MainnetProposalsIndexerNtNtB6_7indexer7Indexer17max_refresh_speed
FN:106,_RNCNvNtNtCsmdD2PK2ogL_9detective8indexers25aave_v3_mainnet_proposals17data_for_proposal0B7_
FN:188,_RNCNCNvNtNtCsmdD2PK2ogL_9detective8indexers25aave_v3_mainnet_proposals17data_for_proposal00B9_
FN:232,_RNCNvNtNtCsmdD2PK2ogL_9detective8indexers25aave_v3_mainnet_proposals9get_title0B7_
FN:302,_RNCNvNtNtCsmdD2PK2ogL_9detective8indexers25aave_v3_mainnet_proposals14get_discussion0B7_
FN:375,_RNCNvNtNtCsmdD2PK2ogL_9detective8indexers25aave_v3_mainnet_proposals8get_body0B7_
FN:38,_RNCNvXNtNtCsmdD2PK2ogL_9detective8indexers25aave_v3_mainnet_proposalsNtB4_29AaveV3MainnetProposalsIndexerNtNtB8_7indexer7Indexer7process0B8_
FN:79,_RNCNCNvXNtNtCsmdD2PK2ogL_9detective8indexers25aave_v3_mainnet_proposalsNtB6_29AaveV3MainnetProposalsIndexerNtNtBa_7indexer7Indexer7process00Ba_
FN:85,_RNCNCNvXNtNtCsmdD2PK2ogL_9detective8indexers25aave_v3_mainnet_proposalsNtB6_29AaveV3MainnetProposalsIndexerNtNtBa_7indexer7Indexer7process0s_0Ba_
FN:102,_RNvNtNtCsmdD2PK2ogL_9detective8indexers25aave_v3_mainnet_proposals17data_for_proposal
FN:232,_RNvNtNtCsmdD2PK2ogL_9detective8indexers25aave_v3_mainnet_proposals9get_title
FN:302,_RNvNtNtCsmdD2PK2ogL_9detective8indexers25aave_v3_mainnet_proposals14get_discussion
FN:375,_RNvNtNtCsmdD2PK2ogL_9detective8indexers25aave_v3_mainnet_proposals8get_body
FN:93,_RNvXNtNtCsmdD2PK2ogL_9detective8indexers25aave_v3_mainnet_proposalsNtB2_29AaveV3MainnetProposalsIndexerNtNtB6_7indexer7Indexer7process
FN:424,_RNCNvNtNtNtCsmdD2PK2ogL_9detective8indexers25aave_v3_mainnet_proposals17aave_v3_proposalss_9aave_v3_10B9_
FN:481,_RNCNvNtNtNtCsmdD2PK2ogL_9detective8indexers25aave_v3_mainnet_proposals17aave_v3_proposalss_9aave_v3_20B9_
FN:561,_RNCNvNtNtNtCsmdD2PK2ogL_9detective8indexers25aave_v3_mainnet_proposals17aave_v3_proposalss_9aave_v3_30B9_
FN:424,_RNvNtNtNtCsmdD2PK2ogL_9detective8indexers25aave_v3_mainnet_proposals17aave_v3_proposalss_9aave_v3_1
FN:481,_RNvNtNtNtCsmdD2PK2ogL_9detective8indexers25aave_v3_mainnet_proposals17aave_v3_proposalss_9aave_v3_2
FN:561,_RNvNtNtNtCsmdD2PK2ogL_9detective8indexers25aave_v3_mainnet_proposals17aave_v3_proposalss_9aave_v3_3
FNDA:0,_RNvXNtNtCsmdD2PK2ogL_9detective8indexers25aave_v3_mainnet_proposalsNtB2_29AaveV3MainnetProposalsIndexerNtNtB6_7indexer7Indexer17min_refresh_speed
FNDA:0,_RNvXNtNtCsmdD2PK2ogL_9detective8indexers25aave_v3_mainnet_proposalsNtB2_29AaveV3MainnetProposalsIndexerNtNtB6_7indexer7Indexer17max_refresh_speed
FNDA:4,_RNCNvNtNtCsmdD2PK2ogL_9detective8indexers25aave_v3_mainnet_proposals17data_for_proposal0B7_
FNDA:4,_RNCNCNvNtNtCsmdD2PK2ogL_9detective8indexers25aave_v3_mainnet_proposals17data_for_proposal00B9_
FNDA:4,_RNCNvNtNtCsmdD2PK2ogL_9detective8indexers25aave_v3_mainnet_proposals9get_title0B7_
FNDA:4,_RNCNvNtNtCsmdD2PK2ogL_9detective8indexers25aave_v3_mainnet_proposals14get_discussion0B7_
FNDA:4,_RNCNvNtNtCsmdD2PK2ogL_9detective8indexers25aave_v3_mainnet_proposals8get_body0B7_
FNDA:3,_RNCNvXNtNtCsmdD2PK2ogL_9detective8indexers25aave_v3_mainnet_proposalsNtB4_29AaveV3MainnetProposalsIndexerNtNtB8_7indexer7Indexer7process0B8_
FNDA:4,_RNCNCNvXNtNtCsmdD2PK2ogL_9detective8indexers25aave_v3_mainnet_proposalsNtB6_29AaveV3MainnetProposalsIndexerNtNtBa_7indexer7Indexer7process00Ba_
FNDA:0,_RNCNCNvXNtNtCsmdD2PK2ogL_9detective8indexers25aave_v3_mainnet_proposalsNtB6_29AaveV3MainnetProposalsIndexerNtNtBa_7indexer7Indexer7process0s_0Ba_
FNDA:4,_RNvNtNtCsmdD2PK2ogL_9detective8indexers25aave_v3_mainnet_proposals17data_for_proposal
FNDA:4,_RNvNtNtCsmdD2PK2ogL_9detective8indexers25aave_v3_mainnet_proposals9get_title
FNDA:4,_RNvNtNtCsmdD2PK2ogL_9detective8indexers25aave_v3_mainnet_proposals14get_discussion
FNDA:4,_RNvNtNtCsmdD2PK2ogL_9detective8indexers25aave_v3_mainnet_proposals8get_body
FNDA:3,_RNvXNtNtCsmdD2PK2ogL_9detective8indexers25aave_v3_mainnet_proposalsNtB2_29AaveV3MainnetProposalsIndexerNtNtB6_7indexer7Indexer7process
FNDA:1,_RNCNvNtNtNtCsmdD2PK2ogL_9detective8indexers25aave_v3_mainnet_proposals17aave_v3_proposalss_9aave_v3_10B9_
FNDA:1,_RNCNvNtNtNtCsmdD2PK2ogL_9detective8indexers25aave_v3_mainnet_proposals17aave_v3_proposalss_9aave_v3_20B9_
FNDA:1,_RNCNvNtNtNtCsmdD2PK2ogL_9detective8indexers25aave_v3_mainnet_proposals17aave_v3_proposalss_9aave_v3_30B9_
FNDA:1,_RNvNtNtNtCsmdD2PK2ogL_9detective8indexers25aave_v3_mainnet_proposals17aave_v3_proposalss_9aave_v3_1
FNDA:1,_RNvNtNtNtCsmdD2PK2ogL_9detective8indexers25aave_v3_mainnet_proposals17aave_v3_proposalss_9aave_v3_2
FNDA:1,_RNvNtNtNtCsmdD2PK2ogL_9detective8indexers25aave_v3_mainnet_proposals17aave_v3_proposalss_9aave_v3_3
FNF:21
FNH:18
DA:38,3
DA:39,3
DA:41,3
DA:43,3
DA:44,3
DA:45,18
DA:46,3
DA:48,3
DA:49,3
DA:50,0
DA:52,3
DA:55,3
DA:56,3
DA:57,3
DA:59,3
DA:60,3
DA:61,3
DA:62,3
DA:63,3
DA:64,3
DA:65,5
DA:66,3
DA:68,3
DA:70,4
DA:71,4
DA:72,143
DA:73,4
DA:74,4
DA:77,3
DA:78,3
DA:79,4
DA:80,4
DA:81,4
DA:84,4
DA:85,3
DA:86,0
DA:87,0
DA:88,3
DA:89,3
DA:90,3
DA:91,3
DA:92,3
DA:93,6
DA:94,0
DA:95,0
DA:96,0
DA:97,0
DA:98,0
DA:99,0
DA:102,4
DA:103,4
DA:104,4
DA:105,4
DA:106,4
DA:107,4
DA:109,4
DA:110,4
DA:111,4
DA:112,13
DA:113,4
DA:116,4
DA:117,4
DA:118,4
DA:119,4
DA:120,4
DA:121,4
DA:122,4
DA:124,4
DA:125,4
DA:126,4
DA:127,4
DA:128,4
DA:129,4
DA:130,4
DA:132,4
DA:133,4
DA:134,4
DA:135,4
DA:136,4
DA:137,4
DA:138,4
DA:139,4
DA:140,4
DA:141,4
DA:142,4
DA:143,4
DA:144,4
DA:145,4
DA:146,4
DA:147,4
DA:148,4
DA:149,4
DA:150,4
DA:151,4
DA:152,4
DA:153,4
DA:154,4
DA:155,4
DA:156,4
DA:158,4
DA:159,4
DA:160,4
DA:161,4
DA:162,4
DA:165,4
DA:166,4
DA:167,4
DA:168,4
DA:169,4
DA:171,4
DA:172,40
DA:173,4
DA:175,4
DA:176,41
DA:177,4
DA:179,4
DA:180,41
DA:181,4
DA:183,4
DA:184,4
DA:185,4
DA:186,4
DA:187,4
DA:188,4
DA:189,4
DA:191,4
DA:192,0
DA:193,0
DA:194,0
DA:195,0
DA:196,2
DA:197,1
DA:198,1
DA:199,0
DA:200,0
DA:203,4
DA:204,4
DA:205,4
DA:206,4
DA:207,4
DA:208,4
DA:209,4
DA:210,4
DA:211,4
DA:212,4
DA:213,4
DA:214,4
DA:215,4
DA:216,4
DA:217,4
DA:218,4
DA:219,4
DA:220,4
DA:221,4
DA:222,4
DA:223,4
DA:224,4
DA:225,4
DA:226,4
DA:227,4
DA:228,4
DA:229,4
DA:230,4
DA:232,4
DA:233,4
DA:234,4
DA:235,4
DA:237,4
DA:238,4
DA:239,4
DA:240,4
DA:241,4
DA:244,4
DA:245,4
DA:246,4
DA:247,4
DA:248,24
DA:250,4
DA:251,4
DA:253,16
DA:255,4
DA:257,4
DA:258,0
DA:259,4
DA:261,4
DA:262,4
DA:263,4
DA:264,0
DA:266,4
DA:267,4
DA:268,4
DA:269,0
DA:270,4
DA:272,4
DA:273,4
DA:274,4
DA:276,4
DA:277,4
DA:278,4
DA:280,4
DA:281,0
DA:282,4
DA:284,4
DA:286,0
DA:287,0
DA:288,0
DA:289,0
DA:290,0
DA:291,0
DA:292,0
DA:293,0
DA:294,0
DA:295,0
DA:297,0
DA:300,4
DA:302,4
DA:303,4
DA:304,4
DA:305,4
DA:307,4
DA:308,4
DA:309,4
DA:310,4
DA:311,4
DA:314,4
DA:315,4
DA:316,4
DA:317,4
DA:318,25
DA:320,4
DA:321,4
DA:323,16
DA:325,4
DA:327,4
DA:328,0
DA:329,0
DA:330,0
DA:331,0
DA:332,4
DA:334,4
DA:335,4
DA:336,4
DA:337,0
DA:339,4
DA:340,4
DA:341,4
DA:342,0
DA:343,4
DA:345,4
DA:346,4
DA:347,4
DA:349,4
DA:350,4
DA:351,4
DA:353,4
DA:354,0
DA:355,4
DA:357,4
DA:359,0
DA:360,0
DA:361,0
DA:362,0
DA:363,0
DA:364,0
DA:365,0
DA:366,0
DA:367,0
DA:368,0
DA:370,0
DA:373,4
DA:375,4
DA:376,4
DA:377,4
DA:378,4
DA:379,4
DA:380,4
DA:381,4
DA:382,4
DA:383,4
DA:386,4
DA:387,4
DA:388,4
DA:389,4
DA:390,24
DA:392,4
DA:393,4
DA:394,17
DA:396,4
DA:398,0
DA:399,0
DA:400,0
DA:401,0
DA:402,0
DA:403,0
DA:404,0
DA:405,0
DA:406,0
DA:407,0
DA:409,0
DA:412,4
DA:424,1
DA:425,1
DA:426,1
DA:427,1
DA:428,1
DA:429,1
DA:430,1
DA:431,1
DA:432,1
DA:433,1
DA:434,1
DA:435,1
DA:436,1
DA:437,1
DA:438,1
DA:439,1
DA:440,1
DA:441,1
DA:442,1
DA:443,1
DA:444,1
DA:445,1
DA:446,1
DA:447,1
DA:448,36
DA:449,1
DA:450,1
DA:451,1
DA:452,1
DA:453,1
DA:454,1
DA:455,1
DA:456,1
DA:457,1
DA:458,1
DA:459,1
DA:460,1
DA:461,1
DA:462,1
DA:463,1
DA:464,1
DA:465,1
DA:466,1
DA:467,1
DA:468,1
DA:469,1
DA:470,1
DA:471,1
DA:472,1
DA:473,1
DA:474,1
DA:475,1
DA:476,1
DA:477,1
DA:478,1
DA:481,1
DA:482,1
DA:483,1
DA:484,1
DA:485,1
DA:486,1
DA:487,1
DA:488,1
DA:489,1
DA:490,1
DA:491,1
DA:492,1
DA:493,1
DA:494,1
DA:495,1
DA:496,1
DA:497,1
DA:498,1
DA:499,1
DA:500,1
DA:501,1
DA:502,1
DA:503,1
DA:504,1
DA:505,94
DA:506,1
DA:507,1
DA:508,1
DA:509,1
DA:510,1
DA:511,1
DA:512,1
DA:513,1
DA:514,1
DA:515,1
DA:516,1
DA:517,1
DA:518,1
DA:519,1
DA:520,1
DA:521,1
DA:522,1
DA:523,1
DA:524,1
DA:525,1
DA:526,1
DA:527,1
DA:528,1
DA:529,1
DA:530,1
DA:531,1
DA:532,1
DA:533,1
DA:534,1
DA:535,1
DA:536,1
DA:537,1
DA:538,1
DA:539,1
DA:540,1
DA:541,1
DA:542,1
DA:543,1
DA:544,1
DA:545,1
DA:546,1
DA:547,1
DA:548,1
DA:549,1
DA:550,1
DA:551,1
DA:552,2
DA:553,2
DA:554,2
DA:555,1
DA:556,1
DA:557,1
DA:558,1
DA:561,1
DA:562,1
DA:563,1
DA:564,1
DA:565,1
DA:566,1
DA:567,1
DA:568,1
DA:569,1
DA:570,1
DA:571,1
DA:572,1
DA:573,1
DA:574,1
DA:575,1
DA:576,1
DA:577,1
DA:578,1
DA:579,1
DA:580,1
DA:581,1
DA:582,1
DA:583,1
DA:584,1
DA:585,36
DA:586,1
DA:587,1
DA:588,1
DA:589,1
DA:590,1
DA:591,1
DA:592,1
DA:593,1
DA:594,1
DA:595,1
DA:596,1
DA:597,1
DA:598,1
DA:599,1
DA:600,1
DA:601,1
DA:602,1
DA:603,1
DA:604,1
DA:605,1
DA:606,1
DA:607,1
DA:608,1
DA:609,1
DA:610,1
DA:611,1
DA:612,1
DA:613,1
DA:614,1
DA:615,1
BRF:0
BRH:0
LF:677
LH:613
end_of_record
SF:/Users/andrei/git/proposalsapp/apps/detective/indexers/aave_v3_mainnet_votes.rs
FN:20,_RNvMNtNtCsmdD2PK2ogL_9detective8indexers21aave_v3_mainnet_votesNtB2_25AaveV3MainnetVotesIndexer24proposal_indexer_variant
FN:73,_RNvXs_NtNtCsmdD2PK2ogL_9detective8indexers21aave_v3_mainnet_votesNtB4_25AaveV3MainnetVotesIndexerNtNtB8_7indexer7Indexer7process
FN:38,_RNCNvXs_NtNtCsmdD2PK2ogL_9detective8indexers21aave_v3_mainnet_votesNtB6_25AaveV3MainnetVotesIndexerNtNtBa_7indexer7Indexer7process0Ba_
FN:74,_RNvXs_NtNtCsmdD2PK2ogL_9detective8indexers21aave_v3_mainnet_votesNtB4_25AaveV3MainnetVotesIndexerNtNtB8_7indexer7Indexer17min_refresh_speed
FN:77,_RNvXs_NtNtCsmdD2PK2ogL_9detective8indexers21aave_v3_mainnet_votesNtB4_25AaveV3MainnetVotesIndexerNtNtB8_7indexer7Indexer17max_refresh_speed
FN:82,_RNvNtNtCsmdD2PK2ogL_9detective8indexers21aave_v3_mainnet_votes9get_votes
FN:86,_RNCNvNtNtCsmdD2PK2ogL_9detective8indexers21aave_v3_mainnet_votes9get_votes0B7_
FNDA:0,_RNvMNtNtCsmdD2PK2ogL_9detective8indexers21aave_v3_mainnet_votesNtB2_25AaveV3MainnetVotesIndexer24proposal_indexer_variant
FNDA:0,_RNvXs_NtNtCsmdD2PK2ogL_9detective8indexers21aave_v3_mainnet_votesNtB4_25AaveV3MainnetVotesIndexerNtNtB8_7indexer7Indexer7process
FNDA:0,_RNCNvXs_NtNtCsmdD2PK2ogL_9detective8indexers21aave_v3_mainnet_votesNtB6_25AaveV3MainnetVotesIndexerNtNtBa_7indexer7Indexer7process0Ba_
FNDA:0,_RNvXs_NtNtCsmdD2PK2ogL_9detective8indexers21aave_v3_mainnet_votesNtB4_25AaveV3MainnetVotesIndexerNtNtB8_7indexer7Indexer17min_refresh_speed
FNDA:0,_RNvXs_NtNtCsmdD2PK2ogL_9detective8indexers21aave_v3_mainnet_votesNtB4_25AaveV3MainnetVotesIndexerNtNtB8_7indexer7Indexer17max_refresh_speed
FNDA:0,_RNvNtNtCsmdD2PK2ogL_9detective8indexers21aave_v3_mainnet_votes9get_votes
FNDA:0,_RNCNvNtNtCsmdD2PK2ogL_9detective8indexers21aave_v3_mainnet_votes9get_votes0B7_
FNF:7
FNH:0
DA:20,0
DA:21,0
DA:22,0
DA:38,0
DA:39,0
DA:41,0
DA:43,0
DA:44,0
DA:45,0
DA:46,0
DA:48,0
DA:49,0
DA:50,0
DA:52,0
DA:55,0
DA:56,0
DA:57,0
DA:59,0
DA:60,0
DA:61,0
DA:62,0
DA:63,0
DA:64,0
DA:65,0
DA:66,0
DA:68,0
DA:69,0
DA:70,0
DA:72,0
DA:73,0
DA:74,0
DA:75,0
DA:76,0
DA:77,0
DA:78,0
DA:79,0
DA:82,0
DA:83,0
DA:84,0
DA:85,0
DA:86,0
DA:87,0
DA:88,0
DA:89,0
DA:91,0
DA:92,0
DA:93,0
DA:94,0
DA:95,0
DA:96,0
DA:97,0
DA:98,0
DA:99,0
DA:100,0
DA:101,0
DA:102,0
DA:103,0
DA:104,0
DA:105,0
DA:106,0
DA:107,0
DA:108,0
DA:109,0
DA:110,0
DA:111,0
DA:112,0
DA:114,0
DA:115,0
DA:116,0
DA:117,0
DA:118,0
DA:119,0
DA:120,0
DA:121,0
DA:122,0
DA:123,0
DA:124,0
DA:125,0
DA:129,0
DA:130,0
BRF:0
BRH:0
LF:82
LH:0
end_of_record
SF:/Users/andrei/git/proposalsapp/apps/detective/indexers/aave_v3_polygon_votes.rs
FN:20,_RNvMNtNtCsmdD2PK2ogL_9detective8indexers21aave_v3_polygon_votesNtB2_25AaveV3PolygonVotesIndexer24proposal_indexer_variant
FN:73,_RNvXs_NtNtCsmdD2PK2ogL_9detective8indexers21aave_v3_polygon_votesNtB4_25AaveV3PolygonVotesIndexerNtNtB8_7indexer7Indexer7process
FN:38,_RNCNvXs_NtNtCsmdD2PK2ogL_9detective8indexers21aave_v3_polygon_votesNtB6_25AaveV3PolygonVotesIndexerNtNtBa_7indexer7Indexer7process0Ba_
FN:74,_RNvXs_NtNtCsmdD2PK2ogL_9detective8indexers21aave_v3_polygon_votesNtB4_25AaveV3PolygonVotesIndexerNtNtB8_7indexer7Indexer17min_refresh_speed
FN:77,_RNvXs_NtNtCsmdD2PK2ogL_9detective8indexers21aave_v3_polygon_votesNtB4_25AaveV3PolygonVotesIndexerNtNtB8_7indexer7Indexer17max_refresh_speed
FN:82,_RNvNtNtCsmdD2PK2ogL_9detective8indexers21aave_v3_polygon_votes9get_votes
FN:86,_RNCNvNtNtCsmdD2PK2ogL_9detective8indexers21aave_v3_polygon_votes9get_votes0B7_
FNDA:0,_RNvMNtNtCsmdD2PK2ogL_9detective8indexers21aave_v3_polygon_votesNtB2_25AaveV3PolygonVotesIndexer24proposal_indexer_variant
FNDA:0,_RNvXs_NtNtCsmdD2PK2ogL_9detective8indexers21aave_v3_polygon_votesNtB4_25AaveV3PolygonVotesIndexerNtNtB8_7indexer7Indexer7process
FNDA:0,_RNCNvXs_NtNtCsmdD2PK2ogL_9detective8indexers21aave_v3_polygon_votesNtB6_25AaveV3PolygonVotesIndexerNtNtBa_7indexer7Indexer7process0Ba_
FNDA:0,_RNvXs_NtNtCsmdD2PK2ogL_9detective8indexers21aave_v3_polygon_votesNtB4_25AaveV3PolygonVotesIndexerNtNtB8_7indexer7Indexer17min_refresh_speed
FNDA:0,_RNvXs_NtNtCsmdD2PK2ogL_9detective8indexers21aave_v3_polygon_votesNtB4_25AaveV3PolygonVotesIndexerNtNtB8_7indexer7Indexer17max_refresh_speed
FNDA:0,_RNvNtNtCsmdD2PK2ogL_9detective8indexers21aave_v3_polygon_votes9get_votes
FNDA:0,_RNCNvNtNtCsmdD2PK2ogL_9detective8indexers21aave_v3_polygon_votes9get_votes0B7_
FNF:7
FNH:0
DA:20,0
DA:21,0
DA:22,0
DA:38,0
DA:39,0
DA:41,0
DA:43,0
DA:44,0
DA:45,0
DA:46,0
DA:48,0
DA:49,0
DA:50,0
DA:52,0
DA:55,0
DA:56,0
DA:57,0
DA:59,0
DA:60,0
DA:61,0
DA:62,0
DA:63,0
DA:64,0
DA:65,0
DA:66,0
DA:68,0
DA:69,0
DA:70,0
DA:72,0
DA:73,0
DA:74,0
DA:75,0
DA:76,0
DA:77,0
DA:78,0
DA:79,0
DA:82,0
DA:83,0
DA:84,0
DA:85,0
DA:86,0
DA:87,0
DA:88,0
DA:89,0
DA:91,0
DA:92,0
DA:93,0
DA:94,0
DA:95,0
DA:96,0
DA:97,0
DA:98,0
DA:99,0
DA:100,0
DA:101,0
DA:102,0
DA:103,0
DA:104,0
DA:105,0
DA:106,0
DA:107,0
DA:108,0
DA:109,0
DA:110,0
DA:111,0
DA:112,0
DA:114,0
DA:115,0
DA:116,0
DA:117,0
DA:118,0
DA:119,0
DA:120,0
DA:121,0
DA:122,0
DA:123,0
DA:124,0
DA:125,0
DA:129,0
DA:130,0
BRF:0
BRH:0
LF:82
LH:0
end_of_record
SF:/Users/andrei/git/proposalsapp/apps/detective/indexers/arbitrum_core_proposals.rs
FN:93,_RNvXNtNtCsmdD2PK2ogL_9detective8indexers23arbitrum_core_proposalsNtB2_28ArbitrumCoreProposalsIndexerNtNtB6_7indexer7Indexer17min_refresh_speed
FN:96,_RNvXNtNtCsmdD2PK2ogL_9detective8indexers23arbitrum_core_proposalsNtB2_28ArbitrumCoreProposalsIndexerNtNtB6_7indexer7Indexer17max_refresh_speed
FN:109,_RNCNvNtNtCsmdD2PK2ogL_9detective8indexers23arbitrum_core_proposals17data_for_proposal0B7_
FN:37,_RNCNvXNtNtCsmdD2PK2ogL_9detective8indexers23arbitrum_core_proposalsNtB4_28ArbitrumCoreProposalsIndexerNtNtB8_7indexer7Indexer7process0B8_
FN:78,_RNCNCNvXNtNtCsmdD2PK2ogL_9detective8indexers23arbitrum_core_proposalsNtB6_28ArbitrumCoreProposalsIndexerNtNtBa_7indexer7Indexer7process00Ba_
FN:84,_RNCNCNvXNtNtCsmdD2PK2ogL_9detective8indexers23arbitrum_core_proposalsNtB6_28ArbitrumCoreProposalsIndexerNtNtBa_7indexer7Indexer7process0s_0Ba_
FN:101,_RNvNtNtCsmdD2PK2ogL_9detective8indexers23arbitrum_core_proposals17data_for_proposal
FN:92,_RNvXNtNtCsmdD2PK2ogL_9detective8indexers23arbitrum_core_proposalsNtB2_28ArbitrumCoreProposalsIndexerNtNtB6_7indexer7Indexer7process
FN:297,_RNCNvNtNtNtCsmdD2PK2ogL_9detective8indexers23arbitrum_core_proposals23arbitrum_core_proposalss_15arbitrum_core_10B9_
FN:354,_RNCNvNtNtNtCsmdD2PK2ogL_9detective8indexers23arbitrum_core_proposals23arbitrum_core_proposalss_15arbitrum_core_20B9_
FN:434,_RNCNvNtNtNtCsmdD2PK2ogL_9detective8indexers23arbitrum_core_proposals23arbitrum_core_proposalss_15arbitrum_core_30B9_
FN:297,_RNvNtNtNtCsmdD2PK2ogL_9detective8indexers23arbitrum_core_proposals23arbitrum_core_proposalss_15arbitrum_core_1
FN:354,_RNvNtNtNtCsmdD2PK2ogL_9detective8indexers23arbitrum_core_proposals23arbitrum_core_proposalss_15arbitrum_core_2
FN:434,_RNvNtNtNtCsmdD2PK2ogL_9detective8indexers23arbitrum_core_proposals23arbitrum_core_proposalss_15arbitrum_core_3
FNDA:0,_RNvXNtNtCsmdD2PK2ogL_9detective8indexers23arbitrum_core_proposalsNtB2_28ArbitrumCoreProposalsIndexerNtNtB6_7indexer7Indexer17min_refresh_speed
FNDA:0,_RNvXNtNtCsmdD2PK2ogL_9detective8indexers23arbitrum_core_proposalsNtB2_28ArbitrumCoreProposalsIndexerNtNtB6_7indexer7Indexer17max_refresh_speed
FNDA:4,_RNCNvNtNtCsmdD2PK2ogL_9detective8indexers23arbitrum_core_proposals17data_for_proposal0B7_
FNDA:3,_RNCNvXNtNtCsmdD2PK2ogL_9detective8indexers23arbitrum_core_proposalsNtB4_28ArbitrumCoreProposalsIndexerNtNtB8_7indexer7Indexer7process0B8_
FNDA:4,_RNCNCNvXNtNtCsmdD2PK2ogL_9detective8indexers23arbitrum_core_proposalsNtB6_28ArbitrumCoreProposalsIndexerNtNtBa_7indexer7Indexer7process00Ba_
FNDA:0,_RNCNCNvXNtNtCsmdD2PK2ogL_9detective8indexers23arbitrum_core_proposalsNtB6_28ArbitrumCoreProposalsIndexerNtNtBa_7indexer7Indexer7process0s_0Ba_
FNDA:4,_RNvNtNtCsmdD2PK2ogL_9detective8indexers23arbitrum_core_proposals17data_for_proposal
FNDA:3,_RNvXNtNtCsmdD2PK2ogL_9detective8indexers23arbitrum_core_proposalsNtB2_28ArbitrumCoreProposalsIndexerNtNtB6_7indexer7Indexer7process
FNDA:1,_RNCNvNtNtNtCsmdD2PK2ogL_9detective8indexers23arbitrum_core_proposals23arbitrum_core_proposalss_15arbitrum_core_10B9_
FNDA:1,_RNCNvNtNtNtCsmdD2PK2ogL_9detective8indexers23arbitrum_core_proposals23arbitrum_core_proposalss_15arbitrum_core_20B9_
FNDA:1,_RNCNvNtNtNtCsmdD2PK2ogL_9detective8indexers23arbitrum_core_proposals23arbitrum_core_proposalss_15arbitrum_core_30B9_
FNDA:1,_RNvNtNtNtCsmdD2PK2ogL_9detective8indexers23arbitrum_core_proposals23arbitrum_core_proposalss_15arbitrum_core_1
FNDA:1,_RNvNtNtNtCsmdD2PK2ogL_9detective8indexers23arbitrum_core_proposals23arbitrum_core_proposalss_15arbitrum_core_2
FNDA:1,_RNvNtNtNtCsmdD2PK2ogL_9detective8indexers23arbitrum_core_proposals23arbitrum_core_proposalss_15arbitrum_core_3
FNF:14
FNH:11
DA:37,3
DA:38,3
DA:40,3
DA:42,3
DA:43,3
DA:44,18
DA:45,3
DA:47,3
DA:48,3
DA:49,0
DA:51,3
DA:54,3
DA:55,3
DA:56,3
DA:58,3
DA:59,3
DA:60,3
DA:61,3
DA:62,3
DA:63,3
DA:64,70
DA:65,3
DA:67,3
DA:69,4
DA:70,4
DA:71,895
DA:72,4
DA:73,4
DA:76,3
DA:77,3
DA:78,4
DA:79,4
DA:80,4
DA:83,4
DA:84,3
DA:85,0
DA:86,0
DA:87,3
DA:88,3
DA:89,3
DA:90,3
DA:91,3
DA:92,6
DA:93,0
DA:94,0
DA:95,0
DA:96,0
DA:97,0
DA:98,0
DA:101,4
DA:102,4
DA:103,4
DA:104,4
DA:105,4
DA:106,4
DA:107,4
DA:108,4
DA:109,4
DA:110,4
DA:112,4
DA:113,4
DA:114,10
DA:115,4
DA:116,4
DA:120,4
DA:121,4
DA:122,4
DA:123,4
DA:124,4
DA:125,4
DA:127,4
DA:128,4
DA:129,4
DA:130,4
DA:132,4
DA:133,4
DA:134,4
DA:135,0
DA:136,4
DA:138,4
DA:140,4
DA:141,494
DA:142,4
DA:144,0
DA:145,0
DA:146,0
DA:147,0
DA:148,0
DA:149,0
DA:150,0
DA:151,0
DA:152,0
DA:155,0
DA:156,0
DA:160,371
DA:161,4
DA:163,0
DA:164,0
DA:165,0
DA:166,0
DA:167,0
DA:168,0
DA:169,0
DA:170,0
DA:171,0
DA:174,0
DA:175,0
DA:179,4
DA:180,4
DA:181,4
DA:182,4
DA:183,4
DA:184,4
DA:185,4
DA:186,4
DA:187,4
DA:188,4
DA:189,4
DA:190,4
DA:191,4
DA:192,4
DA:193,4
DA:194,4
DA:195,4
DA:196,4
DA:197,4
DA:198,4
DA:200,4
DA:201,0
DA:202,4
DA:204,4
DA:206,4
DA:207,4
DA:208,4
DA:209,4
DA:210,4
DA:212,4
DA:213,4
DA:214,4
DA:215,4
DA:216,4
DA:217,4
DA:218,4
DA:219,4
DA:220,4
DA:221,4
DA:222,4
DA:223,4
DA:225,4
DA:226,4
DA:227,4
DA:228,4
DA:229,4
DA:232,4
DA:233,4
DA:234,0
DA:237,4
DA:238,4
DA:239,4
DA:240,4
DA:241,4
DA:244,4
DA:245,0
DA:246,0
DA:247,0
DA:248,1
DA:249,0
DA:250,0
DA:251,0
DA:252,3
DA:253,0
DA:256,4
DA:257,4
DA:258,4
DA:259,4
DA:260,4
DA:261,4
DA:262,4
DA:263,4
DA:264,4
DA:265,4
DA:266,4
DA:267,4
DA:268,4
DA:269,4
DA:270,4
DA:271,4
DA:272,4
DA:273,4
DA:274,4
DA:275,4
DA:276,4
DA:277,4
DA:278,4
DA:279,4
DA:280,4
DA:281,4
DA:282,4
DA:283,4
DA:284,4
DA:285,4
DA:297,1
DA:298,1
DA:299,1
DA:300,1
DA:301,1
DA:302,1
DA:303,1
DA:304,1
DA:305,1
DA:306,1
DA:307,1
DA:308,1
DA:309,1
DA:310,1
DA:311,1
DA:312,1
DA:313,1
DA:314,1
DA:315,1
DA:316,1
DA:317,1
DA:318,1
DA:319,1
DA:320,1
DA:321,204
DA:322,1
DA:323,1
DA:324,1
DA:325,1
DA:326,1
DA:327,1
DA:328,1
DA:329,1
DA:330,1
DA:331,1
DA:332,1
DA:333,1
DA:334,1
DA:335,1
DA:336,1
DA:337,1
DA:338,1
DA:339,1
DA:340,1
DA:341,1
DA:342,1
DA:343,1
DA:344,1
DA:345,1
DA:346,1
DA:347,1
DA:348,1
DA:349,1
DA:350,1
DA:351,1
DA:354,1
DA:355,1
DA:356,1
DA:357,1
DA:358,1
DA:359,1
DA:360,1
DA:361,1
DA:362,1
DA:363,1
DA:364,1
DA:365,1
DA:366,1
DA:367,1
DA:368,1
DA:369,1
DA:370,1
DA:371,1
DA:372,1
DA:373,1
DA:374,1
DA:375,1
DA:376,1
DA:377,1
DA:378,595
DA:379,1
DA:380,1
DA:381,1
DA:382,1
DA:383,1
DA:384,1
DA:385,1
DA:386,1
DA:387,1
DA:388,1
DA:389,1
DA:390,1
DA:391,1
DA:392,1
DA:393,1
DA:394,1
DA:395,1
DA:396,1
DA:397,1
DA:398,1
DA:399,1
DA:400,1
DA:401,1
DA:402,1
DA:403,1
DA:404,1
DA:405,1
DA:406,1
DA:407,1
DA:408,1
DA:409,1
DA:410,1
DA:411,1
DA:412,1
DA:413,1
DA:414,1
DA:415,1
DA:416,1
DA:417,1
DA:418,1
DA:419,1
DA:420,1
DA:421,1
DA:422,1
DA:423,1
DA:424,1
DA:425,2
DA:426,2
DA:427,2
DA:428,1
DA:429,1
DA:430,1
DA:431,1
DA:434,1
DA:435,1
DA:436,1
DA:437,1
DA:438,1
DA:439,1
DA:440,1
DA:441,1
DA:442,1
DA:443,1
DA:444,1
DA:445,1
DA:446,1
DA:447,1
DA:448,1
DA:449,1
DA:450,1
DA:451,1
DA:452,1
DA:453,1
DA:454,1
DA:455,1
DA:456,1
DA:457,1
DA:458,184
DA:459,1
DA:460,1
DA:461,1
DA:462,1
DA:463,1
DA:464,1
DA:465,1
DA:466,1
DA:467,1
DA:468,1
DA:469,1
DA:470,1
DA:471,1
DA:472,1
DA:473,1
DA:474,1
DA:475,1
DA:476,1
DA:477,1
DA:478,1
DA:479,1
DA:480,1
DA:481,1
DA:482,1
DA:483,1
DA:484,1
DA:485,1
DA:486,1
DA:487,1
DA:488,1
BRF:0
BRH:0
LF:574
LH:528
end_of_record
SF:/Users/andrei/git/proposalsapp/apps/detective/indexers/arbitrum_core_votes.rs
FN:27,_RNvMNtNtCsmdD2PK2ogL_9detective8indexers19arbitrum_core_votesNtB2_24ArbitrumCoreVotesIndexer24proposal_indexer_variant
FN:90,_RNvXs_NtNtCsmdD2PK2ogL_9detective8indexers19arbitrum_core_votesNtB4_24ArbitrumCoreVotesIndexerNtNtB8_7indexer7Indexer17min_refresh_speed
FN:93,_RNvXs_NtNtCsmdD2PK2ogL_9detective8indexers19arbitrum_core_votesNtB4_24ArbitrumCoreVotesIndexerNtNtB8_7indexer7Indexer17max_refresh_speed
FN:212,_RNCNvNtNtNtCsmdD2PK2ogL_9detective8indexers19arbitrum_core_votes19arbitrum_core_votess_15arbitrum_core_10B9_
FN:98,_RNvNtNtCsmdD2PK2ogL_9detective8indexers19arbitrum_core_votes9get_votes
FN:150,_RNvNtNtCsmdD2PK2ogL_9detective8indexers19arbitrum_core_votes21get_votes_with_params
FN:89,_RNvXs_NtNtCsmdD2PK2ogL_9detective8indexers19arbitrum_core_votesNtB4_24ArbitrumCoreVotesIndexerNtNtB8_7indexer7Indexer7process
FN:212,_RNvNtNtNtCsmdD2PK2ogL_9detective8indexers19arbitrum_core_votes19arbitrum_core_votess_15arbitrum_core_1
FN:102,_RNCNvNtNtCsmdD2PK2ogL_9detective8indexers19arbitrum_core_votes9get_votes0B7_
FN:154,_RNCNvNtNtCsmdD2PK2ogL_9detective8indexers19arbitrum_core_votes21get_votes_with_params0B7_
FN:38,_RNCNvXs_NtNtCsmdD2PK2ogL_9detective8indexers19arbitrum_core_votesNtB6_24ArbitrumCoreVotesIndexerNtNtBa_7indexer7Indexer7process0Ba_
FNDA:0,_RNvMNtNtCsmdD2PK2ogL_9detective8indexers19arbitrum_core_votesNtB2_24ArbitrumCoreVotesIndexer24proposal_indexer_variant
FNDA:0,_RNvXs_NtNtCsmdD2PK2ogL_9detective8indexers19arbitrum_core_votesNtB4_24ArbitrumCoreVotesIndexerNtNtB8_7indexer7Indexer17min_refresh_speed
FNDA:0,_RNvXs_NtNtCsmdD2PK2ogL_9detective8indexers19arbitrum_core_votesNtB4_24ArbitrumCoreVotesIndexerNtNtB8_7indexer7Indexer17max_refresh_speed
FNDA:1,_RNCNvNtNtNtCsmdD2PK2ogL_9detective8indexers19arbitrum_core_votes19arbitrum_core_votess_15arbitrum_core_10B9_
FNDA:1,_RNvNtNtCsmdD2PK2ogL_9detective8indexers19arbitrum_core_votes9get_votes
FNDA:1,_RNvNtNtCsmdD2PK2ogL_9detective8indexers19arbitrum_core_votes21get_votes_with_params
FNDA:1,_RNvXs_NtNtCsmdD2PK2ogL_9detective8indexers19arbitrum_core_votesNtB4_24ArbitrumCoreVotesIndexerNtNtB8_7indexer7Indexer7process
FNDA:1,_RNvNtNtNtCsmdD2PK2ogL_9detective8indexers19arbitrum_core_votes19arbitrum_core_votess_15arbitrum_core_1
FNDA:1,_RNCNvNtNtCsmdD2PK2ogL_9detective8indexers19arbitrum_core_votes9get_votes0B7_
FNDA:1,_RNCNvNtNtCsmdD2PK2ogL_9detective8indexers19arbitrum_core_votes21get_votes_with_params0B7_
FNDA:1,_RNCNvXs_NtNtCsmdD2PK2ogL_9detective8indexers19arbitrum_core_votesNtB6_24ArbitrumCoreVotesIndexerNtNtBa_7indexer7Indexer7process0Ba_
FNF:11
FNH:8
DA:27,0
DA:28,0
DA:29,0
DA:38,1
DA:39,1
DA:41,1
DA:43,1
DA:44,1
DA:45,6
DA:46,1
DA:48,1
DA:49,1
DA:50,0
DA:52,1
DA:55,1
DA:56,1
DA:57,1
DA:59,1
DA:60,1
DA:61,1
DA:62,1
DA:63,1
DA:64,1
DA:65,3
DA:66,1
DA:68,1
DA:69,1
DA:70,1
DA:71,1
DA:72,1
DA:73,1
DA:74,1
DA:75,1
DA:77,1
DA:78,3
DA:79,1
DA:81,1
DA:82,1
DA:83,0
DA:84,1
DA:86,1
DA:87,1
DA:88,1
DA:89,2
DA:90,0
DA:91,0
DA:92,0
DA:93,0
DA:94,0
DA:95,0
DA:98,1
DA:99,1
DA:100,1
DA:101,1
DA:102,1
DA:103,1
DA:104,1
DA:105,1
DA:107,2
DA:108,1
DA:109,1
DA:110,1
DA:111,3
DA:112,1
DA:113,1
DA:114,1
DA:115,1
DA:116,1
DA:117,1
DA:118,1
DA:119,1
DA:120,1
DA:121,1
DA:122,1
DA:123,1
DA:124,1
DA:125,1
DA:126,1
DA:127,1
DA:128,1
DA:129,1
DA:130,0
DA:131,1
DA:132,0
DA:133,0
DA:135,1
DA:136,1
DA:137,1
DA:138,1
DA:139,1
DA:140,1
DA:141,1
DA:142,1
DA:143,1
DA:147,1
DA:148,1
DA:150,1
DA:151,1
DA:152,1
DA:153,1
DA:154,1
DA:155,1
DA:156,1
DA:157,1
DA:159,1
DA:160,0
DA:161,0
DA:162,0
DA:163,0
DA:164,0
DA:165,0
DA:166,0
DA:167,0
DA:168,0
DA:169,0
DA:170,0
DA:171,0
DA:172,0
DA:173,0
DA:174,0
DA:175,0
DA:176,0
DA:177,0
DA:178,0
DA:179,0
DA:180,0
DA:181,0
DA:182,0
DA:183,0
DA:184,0
DA:185,0
DA:187,0
DA:188,0
DA:189,0
DA:190,0
DA:191,0
DA:192,0
DA:193,0
DA:194,0
DA:195,0
DA:199,1
DA:200,1
DA:212,1
DA:213,1
DA:214,1
DA:215,1
DA:216,1
DA:217,1
DA:218,1
DA:219,1
DA:220,1
DA:221,1
DA:222,1
DA:223,1
DA:224,1
DA:225,1
DA:226,1
DA:227,1
DA:228,1
DA:229,1
DA:230,1
DA:231,1
DA:232,1
DA:233,1
DA:234,1
DA:235,1
DA:236,13
DA:237,1
DA:238,1
DA:239,1
DA:240,1
DA:241,1
DA:242,1
DA:243,1
DA:244,1
DA:245,1
DA:246,1
DA:247,1
DA:248,1
DA:249,1
DA:250,1
DA:251,1
DA:252,1
DA:253,1
DA:254,1
DA:255,1
DA:256,1
BRF:0
BRH:0
LF:232
LH:182
end_of_record
SF:/Users/andrei/git/proposalsapp/apps/detective/indexers/arbitrum_treasury_proposals.rs
FN:93,_RNvXNtNtCsmdD2PK2ogL_9detective8indexers27arbitrum_treasury_proposalsNtB2_32ArbitrumTreasuryProposalsIndexerNtNtB6_7indexer7Indexer17min_refresh_speed
FN:96,_RNvXNtNtCsmdD2PK2ogL_9detective8indexers27arbitrum_treasury_proposalsNtB2_32ArbitrumTreasuryProposalsIndexerNtNtB6_7indexer7Indexer17max_refresh_speed
FN:297,_RNCNvNtNtNtCsmdD2PK2ogL_9detective8indexers27arbitrum_treasury_proposals27arbitrum_treasury_proposalss_19arbitrum_treasury_10B9_
FN:357,_RNCNvNtNtNtCsmdD2PK2ogL_9detective8indexers27arbitrum_treasury_proposals27arbitrum_treasury_proposalss_19arbitrum_treasury_20B9_
FN:440,_RNCNvNtNtNtCsmdD2PK2ogL_9detective8indexers27arbitrum_treasury_proposals27arbitrum_treasury_proposalss_19arbitrum_treasury_30B9_
FN:297,_RNvNtNtNtCsmdD2PK2ogL_9detective8indexers27arbitrum_treasury_proposals27arbitrum_treasury_proposalss_19arbitrum_treasury_1
FN:357,_RNvNtNtNtCsmdD2PK2ogL_9detective8indexers27arbitrum_treasury_proposals27arbitrum_treasury_proposalss_19arbitrum_treasury_2
FN:440,_RNvNtNtNtCsmdD2PK2ogL_9detective8indexers27arbitrum_treasury_proposals27arbitrum_treasury_proposalss_19arbitrum_treasury_3
FN:109,_RNCNvNtNtCsmdD2PK2ogL_9detective8indexers27arbitrum_treasury_proposals17data_for_proposal0B7_
FN:37,_RNCNvXNtNtCsmdD2PK2ogL_9detective8indexers27arbitrum_treasury_proposalsNtB4_32ArbitrumTreasuryProposalsIndexerNtNtB8_7indexer7Indexer7process0B8_
FN:78,_RNCNCNvXNtNtCsmdD2PK2ogL_9detective8indexers27arbitrum_treasury_proposalsNtB6_32ArbitrumTreasuryProposalsIndexerNtNtBa_7indexer7Indexer7process00Ba_
FN:84,_RNCNCNvXNtNtCsmdD2PK2ogL_9detective8indexers27arbitrum_treasury_proposalsNtB6_32ArbitrumTreasuryProposalsIndexerNtNtBa_7indexer7Indexer7process0s_0Ba_
FN:101,_RNvNtNtCsmdD2PK2ogL_9detective8indexers27arbitrum_treasury_proposals17data_for_proposal
FN:92,_RNvXNtNtCsmdD2PK2ogL_9detective8indexers27arbitrum_treasury_proposalsNtB2_32ArbitrumTreasuryProposalsIndexerNtNtB6_7indexer7Indexer7process
FNDA:0,_RNvXNtNtCsmdD2PK2ogL_9detective8indexers27arbitrum_treasury_proposalsNtB2_32ArbitrumTreasuryProposalsIndexerNtNtB6_7indexer7Indexer17min_refresh_speed
FNDA:0,_RNvXNtNtCsmdD2PK2ogL_9detective8indexers27arbitrum_treasury_proposalsNtB2_32ArbitrumTreasuryProposalsIndexerNtNtB6_7indexer7Indexer17max_refresh_speed
FNDA:1,_RNCNvNtNtNtCsmdD2PK2ogL_9detective8indexers27arbitrum_treasury_proposals27arbitrum_treasury_proposalss_19arbitrum_treasury_10B9_
FNDA:1,_RNCNvNtNtNtCsmdD2PK2ogL_9detective8indexers27arbitrum_treasury_proposals27arbitrum_treasury_proposalss_19arbitrum_treasury_20B9_
FNDA:1,_RNCNvNtNtNtCsmdD2PK2ogL_9detective8indexers27arbitrum_treasury_proposals27arbitrum_treasury_proposalss_19arbitrum_treasury_30B9_
FNDA:1,_RNvNtNtNtCsmdD2PK2ogL_9detective8indexers27arbitrum_treasury_proposals27arbitrum_treasury_proposalss_19arbitrum_treasury_1
FNDA:1,_RNvNtNtNtCsmdD2PK2ogL_9detective8indexers27arbitrum_treasury_proposals27arbitrum_treasury_proposalss_19arbitrum_treasury_2
FNDA:1,_RNvNtNtNtCsmdD2PK2ogL_9detective8indexers27arbitrum_treasury_proposals27arbitrum_treasury_proposalss_19arbitrum_treasury_3
FNDA:4,_RNCNvNtNtCsmdD2PK2ogL_9detective8indexers27arbitrum_treasury_proposals17data_for_proposal0B7_
FNDA:3,_RNCNvXNtNtCsmdD2PK2ogL_9detective8indexers27arbitrum_treasury_proposalsNtB4_32ArbitrumTreasuryProposalsIndexerNtNtB8_7indexer7Indexer7process0B8_
FNDA:4,_RNCNCNvXNtNtCsmdD2PK2ogL_9detective8indexers27arbitrum_treasury_proposalsNtB6_32ArbitrumTreasuryProposalsIndexerNtNtBa_7indexer7Indexer7process00Ba_
FNDA:0,_RNCNCNvXNtNtCsmdD2PK2ogL_9detective8indexers27arbitrum_treasury_proposalsNtB6_32ArbitrumTreasuryProposalsIndexerNtNtBa_7indexer7Indexer7process0s_0Ba_
FNDA:4,_RNvNtNtCsmdD2PK2ogL_9detective8indexers27arbitrum_treasury_proposals17data_for_proposal
FNDA:3,_RNvXNtNtCsmdD2PK2ogL_9detective8indexers27arbitrum_treasury_proposalsNtB2_32ArbitrumTreasuryProposalsIndexerNtNtB6_7indexer7Indexer7process
FNF:14
FNH:11
DA:37,3
DA:38,3
DA:40,3
DA:42,3
DA:43,3
DA:44,18
DA:45,3
DA:47,3
DA:48,3
DA:49,0
DA:51,3
DA:54,3
DA:55,3
DA:56,3
DA:58,3
DA:59,3
DA:60,3
DA:61,3
DA:62,3
DA:63,3
DA:64,76
DA:65,3
DA:67,3
DA:69,4
DA:70,4
DA:71,653
DA:72,4
DA:73,4
DA:76,3
DA:77,3
DA:78,4
DA:79,4
DA:80,4
DA:83,4
DA:84,3
DA:85,0
DA:86,0
DA:87,3
DA:88,3
DA:89,3
DA:90,3
DA:91,3
DA:92,6
DA:93,0
DA:94,0
DA:95,0
DA:96,0
DA:97,0
DA:98,0
DA:101,4
DA:102,4
DA:103,4
DA:104,4
DA:105,4
DA:106,4
DA:107,4
DA:108,4
DA:109,4
DA:110,4
DA:112,4
DA:113,4
DA:114,11
DA:115,4
DA:116,4
DA:120,4
DA:121,4
DA:122,4
DA:123,4
DA:124,4
DA:125,4
DA:127,4
DA:128,4
DA:129,4
DA:130,4
DA:132,4
DA:133,4
DA:134,4
DA:135,1
DA:136,3
DA:138,4
DA:140,4
DA:141,316
DA:142,4
DA:144,0
DA:145,0
DA:146,0
DA:147,0
DA:148,0
DA:149,0
DA:150,0
DA:151,0
DA:152,0
DA:155,0
DA:156,0
DA:160,306
DA:161,4
DA:163,0
DA:164,0
DA:165,0
DA:166,0
DA:167,0
DA:168,0
DA:169,0
DA:170,0
DA:171,0
DA:174,0
DA:175,0
DA:179,4
DA:180,4
DA:181,4
DA:182,4
DA:183,4
DA:184,4
DA:185,4
DA:186,4
DA:187,4
DA:188,4
DA:189,4
DA:190,4
DA:191,4
DA:193,4
DA:194,0
DA:195,4
DA:197,4
DA:198,4
DA:199,4
DA:200,4
DA:201,4
DA:202,4
DA:204,4
DA:205,4
DA:206,4
DA:207,4
DA:208,4
DA:210,4
DA:211,4
DA:212,4
DA:213,4
DA:214,4
DA:215,4
DA:216,4
DA:217,4
DA:218,4
DA:219,4
DA:220,4
DA:221,4
DA:223,4
DA:224,4
DA:225,4
DA:226,4
DA:227,4
DA:230,4
DA:231,4
DA:232,0
DA:235,4
DA:236,4
DA:237,4
DA:238,4
DA:239,4
DA:242,4
DA:243,0
DA:244,0
DA:245,0
DA:246,1
DA:247,0
DA:248,0
DA:249,0
DA:250,3
DA:251,0
DA:254,4
DA:255,4
DA:256,4
DA:257,4
DA:258,4
DA:259,4
DA:260,4
DA:261,4
DA:262,4
DA:263,4
DA:264,4
DA:265,4
DA:266,4
DA:267,4
DA:268,4
DA:269,4
DA:270,4
DA:271,4
DA:272,4
DA:273,4
DA:274,4
DA:275,4
DA:276,4
DA:277,4
DA:278,4
DA:279,4
DA:280,4
DA:281,4
DA:282,4
DA:283,4
DA:284,4
DA:285,4
DA:297,1
DA:298,1
DA:299,1
DA:300,1
DA:301,1
DA:302,1
DA:303,1
DA:304,1
DA:305,1
DA:306,1
DA:307,1
DA:308,1
DA:309,1
DA:310,1
DA:311,1
DA:312,1
DA:313,1
DA:314,1
DA:315,1
DA:316,1
DA:317,1
DA:318,1
DA:319,1
DA:320,1
DA:321,1
DA:322,1
DA:323,235
DA:324,1
DA:325,1
DA:326,1
DA:327,1
DA:328,1
DA:329,1
DA:330,1
DA:331,1
DA:332,1
DA:333,1
DA:334,1
DA:335,1
DA:336,1
DA:337,1
DA:338,1
DA:339,1
DA:340,1
DA:341,1
DA:342,1
DA:343,1
DA:344,1
DA:345,1
DA:346,1
DA:347,1
DA:348,1
DA:349,1
DA:350,1
DA:351,1
DA:352,1
DA:353,1
DA:354,1
DA:357,1
DA:358,1
DA:359,1
DA:360,1
DA:361,1
DA:362,1
DA:363,1
DA:364,1
DA:365,1
DA:366,1
DA:367,1
DA:368,1
DA:369,1
DA:370,1
DA:371,1
DA:372,1
DA:373,1
DA:374,1
DA:375,1
DA:376,1
DA:377,1
DA:378,1
DA:379,1
DA:380,1
DA:381,1
DA:382,1
DA:383,340
DA:384,1
DA:385,1
DA:386,1
DA:387,1
DA:388,1
DA:389,1
DA:390,1
DA:391,1
DA:392,1
DA:393,1
DA:394,1
DA:395,1
DA:396,1
DA:397,1
DA:398,1
DA:399,1
DA:400,1
DA:401,1
DA:402,1
DA:403,1
DA:404,1
DA:405,1
DA:406,1
DA:407,1
DA:408,1
DA:409,1
DA:410,1
DA:411,1
DA:412,1
DA:413,1
DA:414,1
DA:415,1
DA:416,1
DA:417,1
DA:418,1
DA:419,1
DA:420,1
DA:421,1
DA:422,1
DA:423,1
DA:424,1
DA:425,1
DA:426,1
DA:427,1
DA:428,1
DA:429,1
DA:430,1
DA:431,2
DA:432,2
DA:433,2
DA:434,1
DA:435,1
DA:436,1
DA:437,1
DA:440,1
DA:441,1
DA:442,1
DA:443,1
DA:444,1
DA:445,1
DA:446,1
DA:447,1
DA:448,1
DA:449,1
DA:450,1
DA:451,1
DA:452,1
DA:453,1
DA:454,1
DA:455,1
DA:456,1
DA:457,1
DA:458,1
DA:459,1
DA:460,1
DA:461,1
DA:462,1
DA:463,1
DA:464,1
DA:465,1
DA:466,172
DA:467,1
DA:468,1
DA:469,1
DA:470,1
DA:471,1
DA:472,1
DA:473,1
DA:474,1
DA:475,1
DA:476,1
DA:477,1
DA:478,1
DA:479,1
DA:480,1
DA:481,1
DA:482,1
DA:483,1
DA:484,1
DA:485,1
DA:486,1
DA:487,1
DA:488,1
DA:489,1
DA:490,1
DA:491,1
DA:492,1
DA:493,1
DA:494,1
DA:495,1
DA:496,1
DA:497,1
BRF:0
BRH:0
LF:589
LH:544
end_of_record
SF:/Users/andrei/git/proposalsapp/apps/detective/indexers/arbitrum_treasury_votes.rs
FN:27,_RNvMNtNtCsmdD2PK2ogL_9detective8indexers23arbitrum_treasury_votesNtB2_28ArbitrumTreasuryVotesIndexer24proposal_indexer_variant
FN:89,_RNvXs_NtNtCsmdD2PK2ogL_9detective8indexers23arbitrum_treasury_votesNtB4_28ArbitrumTreasuryVotesIndexerNtNtB8_7indexer7Indexer17min_refresh_speed
FN:92,_RNvXs_NtNtCsmdD2PK2ogL_9detective8indexers23arbitrum_treasury_votesNtB4_28ArbitrumTreasuryVotesIndexerNtNtB8_7indexer7Indexer17max_refresh_speed
FN:101,_RNCNvNtNtCsmdD2PK2ogL_9detective8indexers23arbitrum_treasury_votes9get_votes0B7_
FN:153,_RNCNvNtNtCsmdD2PK2ogL_9detective8indexers23arbitrum_treasury_votes21get_votes_with_params0B7_
FN:38,_RNCNvXs_NtNtCsmdD2PK2ogL_9detective8indexers23arbitrum_treasury_votesNtB6_28ArbitrumTreasuryVotesIndexerNtNtBa_7indexer7Indexer7process0Ba_
FN:211,_RNCNvNtNtNtCsmdD2PK2ogL_9detective8indexers23arbitrum_treasury_votes23arbitrum_treasury_votess_19arbitrum_treasury_10B9_
FN:211,_RNvNtNtNtCsmdD2PK2ogL_9detective8indexers23arbitrum_treasury_votes23arbitrum_treasury_votess_19arbitrum_treasury_1
FN:97,_RNvNtNtCsmdD2PK2ogL_9detective8indexers23arbitrum_treasury_votes9get_votes
FN:149,_RNvNtNtCsmdD2PK2ogL_9detective8indexers23arbitrum_treasury_votes21get_votes_with_params
FN:88,_RNvXs_NtNtCsmdD2PK2ogL_9detective8indexers23arbitrum_treasury_votesNtB4_28ArbitrumTreasuryVotesIndexerNtNtB8_7indexer7Indexer7process
FNDA:0,_RNvMNtNtCsmdD2PK2ogL_9detective8indexers23arbitrum_treasury_votesNtB2_28ArbitrumTreasuryVotesIndexer24proposal_indexer_variant
FNDA:0,_RNvXs_NtNtCsmdD2PK2ogL_9detective8indexers23arbitrum_treasury_votesNtB4_28ArbitrumTreasuryVotesIndexerNtNtB8_7indexer7Indexer17min_refresh_speed
FNDA:0,_RNvXs_NtNtCsmdD2PK2ogL_9detective8indexers23arbitrum_treasury_votesNtB4_28ArbitrumTreasuryVotesIndexerNtNtB8_7indexer7Indexer17max_refresh_speed
FNDA:1,_RNCNvNtNtCsmdD2PK2ogL_9detective8indexers23arbitrum_treasury_votes9get_votes0B7_
FNDA:1,_RNCNvNtNtCsmdD2PK2ogL_9detective8indexers23arbitrum_treasury_votes21get_votes_with_params0B7_
FNDA:1,_RNCNvXs_NtNtCsmdD2PK2ogL_9detective8indexers23arbitrum_treasury_votesNtB6_28ArbitrumTreasuryVotesIndexerNtNtBa_7indexer7Indexer7process0Ba_
FNDA:1,_RNCNvNtNtNtCsmdD2PK2ogL_9detective8indexers23arbitrum_treasury_votes23arbitrum_treasury_votess_19arbitrum_treasury_10B9_
FNDA:1,_RNvNtNtNtCsmdD2PK2ogL_9detective8indexers23arbitrum_treasury_votes23arbitrum_treasury_votess_19arbitrum_treasury_1
FNDA:1,_RNvNtNtCsmdD2PK2ogL_9detective8indexers23arbitrum_treasury_votes9get_votes
FNDA:1,_RNvNtNtCsmdD2PK2ogL_9detective8indexers23arbitrum_treasury_votes21get_votes_with_params
FNDA:1,_RNvXs_NtNtCsmdD2PK2ogL_9detective8indexers23arbitrum_treasury_votesNtB4_28ArbitrumTreasuryVotesIndexerNtNtB8_7indexer7Indexer7process
FNF:11
FNH:8
DA:27,0
DA:28,0
DA:29,0
DA:38,1
DA:39,1
DA:41,1
DA:42,1
DA:43,1
DA:44,6
DA:45,1
DA:47,1
DA:48,1
DA:49,0
DA:51,1
DA:54,1
DA:55,1
DA:56,1
DA:58,1
DA:59,1
DA:60,1
DA:61,1
DA:62,1
DA:63,1
DA:64,2
DA:65,1
DA:67,1
DA:68,1
DA:69,1
DA:70,1
DA:71,1
DA:72,1
DA:73,1
DA:74,1
DA:76,1
DA:77,3
DA:78,1
DA:80,1
DA:81,1
DA:82,0
DA:83,1
DA:85,1
DA:86,1
DA:87,1
DA:88,2
DA:89,0
DA:90,0
DA:91,0
DA:92,0
DA:93,0
DA:94,0
DA:97,1
DA:98,1
DA:99,1
DA:100,1
DA:101,1
DA:102,1
DA:103,1
DA:104,1
DA:106,2
DA:107,1
DA:108,1
DA:109,1
DA:110,3
DA:111,1
DA:112,1
DA:113,1
DA:114,1
DA:115,1
DA:116,1
DA:117,1
DA:118,1
DA:119,1
DA:120,1
DA:121,1
DA:122,1
DA:123,1
DA:124,1
DA:125,1
DA:126,1
DA:127,1
DA:128,1
DA:129,1
DA:130,0
DA:131,0
DA:132,0
DA:134,1
DA:135,1
DA:136,1
DA:137,1
DA:138,1
DA:139,1
DA:140,1
DA:141,1
DA:142,1
DA:146,1
DA:147,1
DA:149,1
DA:150,1
DA:151,1
DA:152,1
DA:153,1
DA:154,1
DA:155,1
DA:156,1
DA:158,1
DA:159,0
DA:160,0
DA:161,0
DA:162,0
DA:163,0
DA:164,0
DA:165,0
DA:166,0
DA:167,0
DA:168,0
DA:169,0
DA:170,0
DA:171,0
DA:172,0
DA:173,0
DA:174,0
DA:175,0
DA:176,0
DA:177,0
DA:178,0
DA:179,0
DA:180,0
DA:181,0
DA:182,0
DA:183,0
DA:184,0
DA:186,0
DA:187,0
DA:188,0
DA:189,0
DA:190,0
DA:191,0
DA:192,0
DA:193,0
DA:194,0
DA:198,1
DA:199,1
DA:211,1
DA:212,1
DA:213,1
DA:214,1
DA:215,1
DA:216,1
DA:217,1
DA:218,1
DA:219,1
DA:220,1
DA:221,1
DA:222,1
DA:223,1
DA:224,1
DA:225,1
DA:226,1
DA:227,1
DA:228,1
DA:229,1
DA:230,1
DA:231,1
DA:232,1
DA:233,1
DA:234,1
DA:235,12
DA:236,1
DA:237,1
DA:238,1
DA:239,1
DA:240,1
DA:241,1
DA:242,1
DA:243,1
DA:244,1
DA:245,1
DA:246,1
DA:247,1
DA:248,1
DA:249,1
DA:250,1
DA:251,1
DA:252,1
DA:253,1
DA:254,1
DA:255,1
BRF:0
BRH:0
LF:232
LH:182
end_of_record
SF:/Users/andrei/git/proposalsapp/apps/detective/indexers/compound_mainnet_proposals.rs
FN:93,_RNvXNtNtCsmdD2PK2ogL_9detective8indexers26compound_mainnet_proposalsNtB2_31CompoundMainnetProposalsIndexerNtNtB6_7indexer7Indexer17min_refresh_speed
FN:96,_RNvXNtNtCsmdD2PK2ogL_9detective8indexers26compound_mainnet_proposalsNtB2_31CompoundMainnetProposalsIndexerNtNtB6_7indexer7Indexer17max_refresh_speed
FN:101,_RNvNtNtCsmdD2PK2ogL_9detective8indexers26compound_mainnet_proposals17data_for_proposal
FN:92,_RNvXNtNtCsmdD2PK2ogL_9detective8indexers26compound_mainnet_proposalsNtB2_31CompoundMainnetProposalsIndexerNtNtB6_7indexer7Indexer7process
FN:106,_RNCNvNtNtCsmdD2PK2ogL_9detective8indexers26compound_mainnet_proposals17data_for_proposal0B7_
FN:218,_RNCNCNvNtNtCsmdD2PK2ogL_9detective8indexers26compound_mainnet_proposals17data_for_proposal00B9_
FN:37,_RNCNvXNtNtCsmdD2PK2ogL_9detective8indexers26compound_mainnet_proposalsNtB4_31CompoundMainnetProposalsIndexerNtNtB8_7indexer7Indexer7process0B8_
FN:78,_RNCNCNvXNtNtCsmdD2PK2ogL_9detective8indexers26compound_mainnet_proposalsNtB6_31CompoundMainnetProposalsIndexerNtNtBa_7indexer7Indexer7process00Ba_
FN:84,_RNCNCNvXNtNtCsmdD2PK2ogL_9detective8indexers26compound_mainnet_proposalsNtB6_31CompoundMainnetProposalsIndexerNtNtBa_7indexer7Indexer7process0s_0Ba_
FN:274,_RNvNtNtNtCsmdD2PK2ogL_9detective8indexers26compound_mainnet_proposals26compound_mainnet_proposalss_10compound_1
FN:334,_RNvNtNtNtCsmdD2PK2ogL_9detective8indexers26compound_mainnet_proposals26compound_mainnet_proposalss_10compound_2
FN:417,_RNvNtNtNtCsmdD2PK2ogL_9detective8indexers26compound_mainnet_proposals26compound_mainnet_proposalss_10compound_3
FN:274,_RNCNvNtNtNtCsmdD2PK2ogL_9detective8indexers26compound_mainnet_proposals26compound_mainnet_proposalss_10compound_10B9_
FN:334,_RNCNvNtNtNtCsmdD2PK2ogL_9detective8indexers26compound_mainnet_proposals26compound_mainnet_proposalss_10compound_20B9_
FN:417,_RNCNvNtNtNtCsmdD2PK2ogL_9detective8indexers26compound_mainnet_proposals26compound_mainnet_proposalss_10compound_30B9_
FNDA:0,_RNvXNtNtCsmdD2PK2ogL_9detective8indexers26compound_mainnet_proposalsNtB2_31CompoundMainnetProposalsIndexerNtNtB6_7indexer7Indexer17min_refresh_speed
FNDA:0,_RNvXNtNtCsmdD2PK2ogL_9detective8indexers26compound_mainnet_proposalsNtB2_31CompoundMainnetProposalsIndexerNtNtB6_7indexer7Indexer17max_refresh_speed
FNDA:4,_RNvNtNtCsmdD2PK2ogL_9detective8indexers26compound_mainnet_proposals17data_for_proposal
FNDA:3,_RNvXNtNtCsmdD2PK2ogL_9detective8indexers26compound_mainnet_proposalsNtB2_31CompoundMainnetProposalsIndexerNtNtB6_7indexer7Indexer7process
FNDA:4,_RNCNvNtNtCsmdD2PK2ogL_9detective8indexers26compound_mainnet_proposals17data_for_proposal0B7_
FNDA:4,_RNCNCNvNtNtCsmdD2PK2ogL_9detective8indexers26compound_mainnet_proposals17data_for_proposal00B9_
FNDA:3,_RNCNvXNtNtCsmdD2PK2ogL_9detective8indexers26compound_mainnet_proposalsNtB4_31CompoundMainnetProposalsIndexerNtNtB8_7indexer7Indexer7process0B8_
FNDA:4,_RNCNCNvXNtNtCsmdD2PK2ogL_9detective8indexers26compound_mainnet_proposalsNtB6_31CompoundMainnetProposalsIndexerNtNtBa_7indexer7Indexer7process00Ba_
FNDA:0,_RNCNCNvXNtNtCsmdD2PK2ogL_9detective8indexers26compound_mainnet_proposalsNtB6_31CompoundMainnetProposalsIndexerNtNtBa_7indexer7Indexer7process0s_0Ba_
FNDA:1,_RNvNtNtNtCsmdD2PK2ogL_9detective8indexers26compound_mainnet_proposals26compound_mainnet_proposalss_10compound_1
FNDA:1,_RNvNtNtNtCsmdD2PK2ogL_9detective8indexers26compound_mainnet_proposals26compound_mainnet_proposalss_10compound_2
FNDA:1,_RNvNtNtNtCsmdD2PK2ogL_9detective8indexers26compound_mainnet_proposals26compound_mainnet_proposalss_10compound_3
FNDA:1,_RNCNvNtNtNtCsmdD2PK2ogL_9detective8indexers26compound_mainnet_proposals26compound_mainnet_proposalss_10compound_10B9_
FNDA:1,_RNCNvNtNtNtCsmdD2PK2ogL_9detective8indexers26compound_mainnet_proposals26compound_mainnet_proposalss_10compound_20B9_
FNDA:1,_RNCNvNtNtNtCsmdD2PK2ogL_9detective8indexers26compound_mainnet_proposals26compound_mainnet_proposalss_10compound_30B9_
FNF:15
FNH:12
DA:37,3
DA:38,3
DA:40,3
DA:42,3
DA:43,3
DA:44,18
DA:45,3
DA:47,3
DA:48,3
DA:49,0
DA:51,3
DA:54,3
DA:55,3
DA:56,3
DA:58,3
DA:59,3
DA:60,3
DA:61,3
DA:62,3
DA:63,3
DA:64,31
DA:65,3
DA:67,3
DA:69,4
DA:70,4
DA:71,661
DA:72,4
DA:73,4
DA:76,3
DA:77,3
DA:78,4
DA:79,4
DA:80,4
DA:83,4
DA:84,3
DA:85,0
DA:86,0
DA:87,3
DA:88,3
DA:89,3
DA:90,3
DA:91,3
DA:92,6
DA:93,0
DA:94,0
DA:95,0
DA:96,0
DA:97,0
DA:98,0
DA:101,4
DA:102,4
DA:103,4
DA:104,4
DA:105,4
DA:106,4
DA:107,4
DA:109,4
DA:110,4
DA:111,40
DA:112,4
DA:113,4
DA:114,4
DA:115,4
DA:116,4
DA:117,4
DA:118,4
DA:119,4
DA:120,4
DA:121,4
DA:122,4
DA:124,260
DA:125,4
DA:127,0
DA:128,0
DA:129,0
DA:130,0
DA:131,0
DA:132,0
DA:133,0
DA:134,0
DA:135,0
DA:138,0
DA:139,0
DA:143,349
DA:144,4
DA:146,0
DA:147,0
DA:148,0
DA:149,0
DA:150,0
DA:151,0
DA:152,0
DA:153,0
DA:154,0
DA:157,0
DA:158,0
DA:162,4
DA:163,4
DA:164,4
DA:166,4
DA:167,4
DA:168,4
DA:169,4
DA:170,4
DA:172,4
DA:173,4
DA:174,4
DA:175,4
DA:176,4
DA:177,4
DA:178,4
DA:179,4
DA:180,4
DA:181,4
DA:182,4
DA:183,4
DA:184,4
DA:186,4
DA:187,0
DA:188,4
DA:190,4
DA:191,4
DA:192,4
DA:193,4
DA:194,4
DA:195,4
DA:196,4
DA:197,4
DA:198,4
DA:199,4
DA:200,4
DA:201,4
DA:202,4
DA:204,4
DA:205,4
DA:206,4
DA:207,4
DA:208,4
DA:210,4
DA:211,4
DA:213,4
DA:214,4
DA:215,4
DA:216,4
DA:217,4
DA:218,4
DA:219,4
DA:221,4
DA:222,0
DA:223,0
DA:224,0
DA:225,1
DA:226,0
DA:227,0
DA:228,0
DA:229,3
DA:230,0
DA:233,4
DA:234,4
DA:235,4
DA:236,4
DA:237,4
DA:238,4
DA:239,4
DA:240,4
DA:241,4
DA:242,4
DA:243,4
DA:244,4
DA:245,4
DA:246,4
DA:247,4
DA:248,4
DA:249,4
DA:250,4
DA:251,4
DA:252,4
DA:253,4
DA:254,4
DA:255,4
DA:256,4
DA:257,4
DA:258,4
DA:259,4
DA:260,4
DA:261,4
DA:262,4
DA:274,1
DA:275,1
DA:276,1
DA:277,1
DA:278,1
DA:279,1
DA:280,1
DA:281,1
DA:282,1
DA:283,1
DA:284,1
DA:285,1
DA:286,1
DA:287,1
DA:288,1
DA:289,1
DA:290,1
DA:291,1
DA:292,1
DA:293,1
DA:294,1
DA:295,1
DA:296,1
DA:297,1
DA:298,1
DA:299,1
DA:300,162
DA:301,1
DA:302,1
DA:303,1
DA:304,1
DA:305,1
DA:306,1
DA:307,1
DA:308,1
DA:309,1
DA:310,1
DA:311,1
DA:312,1
DA:313,1
DA:314,1
DA:315,1
DA:316,1
DA:317,1
DA:318,1
DA:319,1
DA:320,1
DA:321,1
DA:322,1
DA:323,1
DA:324,1
DA:325,1
DA:326,1
DA:327,1
DA:328,1
DA:329,1
DA:330,1
DA:331,1
DA:334,1
DA:335,1
DA:336,1
DA:337,1
DA:338,1
DA:339,1
DA:340,1
DA:341,1
DA:342,1
DA:343,1
DA:344,1
DA:345,1
DA:346,1
DA:347,1
DA:348,1
DA:349,1
DA:350,1
DA:351,1
DA:352,1
DA:353,1
DA:354,1
DA:355,1
DA:356,1
DA:357,1
DA:358,1
DA:359,1
DA:360,382
DA:361,1
DA:362,1
DA:363,1
DA:364,1
DA:365,1
DA:366,1
DA:367,1
DA:368,1
DA:369,1
DA:370,1
DA:371,1
DA:372,1
DA:373,1
DA:374,1
DA:375,1
DA:376,1
DA:377,1
DA:378,1
DA:379,1
DA:380,1
DA:381,1
DA:382,1
DA:383,1
DA:384,1
DA:385,1
DA:386,1
DA:387,1
DA:388,1
DA:389,1
DA:390,1
DA:391,1
DA:392,1
DA:393,1
DA:394,1
DA:395,1
DA:396,1
DA:397,1
DA:398,1
DA:399,1
DA:400,1
DA:401,1
DA:402,1
DA:403,1
DA:404,1
DA:405,1
DA:406,1
DA:407,1
DA:408,2
DA:409,2
DA:410,2
DA:411,1
DA:412,1
DA:413,1
DA:414,1
DA:417,1
DA:418,1
DA:419,1
DA:420,1
DA:421,1
DA:422,1
DA:423,1
DA:424,1
DA:425,1
DA:426,1
DA:427,1
DA:428,1
DA:429,1
DA:430,1
DA:431,1
DA:432,1
DA:433,1
DA:434,1
DA:435,1
DA:436,1
DA:437,1
DA:438,1
DA:439,1
DA:440,1
DA:441,1
DA:442,1
DA:443,166
DA:444,1
DA:445,1
DA:446,1
DA:447,1
DA:448,1
DA:449,1
DA:450,1
DA:451,1
DA:452,1
DA:453,1
DA:454,1
DA:455,1
DA:456,1
DA:457,1
DA:458,1
DA:459,1
DA:460,1
DA:461,1
DA:462,1
DA:463,1
DA:464,1
DA:465,1
DA:466,1
DA:467,1
DA:468,1
DA:469,1
DA:470,1
DA:471,1
DA:472,1
DA:473,1
DA:474,1
BRF:0
BRH:0
LF:576
LH:532
end_of_record
SF:/Users/andrei/git/proposalsapp/apps/detective/indexers/compound_mainnet_votes.rs
FN:27,_RNvMNtNtCsmdD2PK2ogL_9detective8indexers22compound_mainnet_votesNtB2_27CompoundMainnetVotesIndexer24proposal_indexer_variant
FN:74,_RNvXs_NtNtCsmdD2PK2ogL_9detective8indexers22compound_mainnet_votesNtB4_27CompoundMainnetVotesIndexerNtNtB8_7indexer7Indexer17min_refresh_speed
FN:77,_RNvXs_NtNtCsmdD2PK2ogL_9detective8indexers22compound_mainnet_votesNtB4_27CompoundMainnetVotesIndexerNtNtB8_7indexer7Indexer17max_refresh_speed
FN:82,_RNvNtNtCsmdD2PK2ogL_9detective8indexers22compound_mainnet_votes9get_votes
FN:73,_RNvXs_NtNtCsmdD2PK2ogL_9detective8indexers22compound_mainnet_votesNtB4_27CompoundMainnetVotesIndexerNtNtB8_7indexer7Indexer7process
FN:86,_RNCNvNtNtCsmdD2PK2ogL_9detective8indexers22compound_mainnet_votes9get_votes0B7_
FN:38,_RNCNvXs_NtNtCsmdD2PK2ogL_9detective8indexers22compound_mainnet_votesNtB6_27CompoundMainnetVotesIndexerNtNtBa_7indexer7Indexer7process0Ba_
FN:144,_RNvNtNtNtCsmdD2PK2ogL_9detective8indexers22compound_mainnet_votes22compound_mainnet_votess_18compound_mainnet_1
FN:144,_RNCNvNtNtNtCsmdD2PK2ogL_9detective8indexers22compound_mainnet_votes22compound_mainnet_votess_18compound_mainnet_10B9_
FNDA:0,_RNvMNtNtCsmdD2PK2ogL_9detective8indexers22compound_mainnet_votesNtB2_27CompoundMainnetVotesIndexer24proposal_indexer_variant
FNDA:0,_RNvXs_NtNtCsmdD2PK2ogL_9detective8indexers22compound_mainnet_votesNtB4_27CompoundMainnetVotesIndexerNtNtB8_7indexer7Indexer17min_refresh_speed
FNDA:0,_RNvXs_NtNtCsmdD2PK2ogL_9detective8indexers22compound_mainnet_votesNtB4_27CompoundMainnetVotesIndexerNtNtB8_7indexer7Indexer17max_refresh_speed
FNDA:1,_RNvNtNtCsmdD2PK2ogL_9detective8indexers22compound_mainnet_votes9get_votes
FNDA:1,_RNvXs_NtNtCsmdD2PK2ogL_9detective8indexers22compound_mainnet_votesNtB4_27CompoundMainnetVotesIndexerNtNtB8_7indexer7Indexer7process
FNDA:1,_RNCNvNtNtCsmdD2PK2ogL_9detective8indexers22compound_mainnet_votes9get_votes0B7_
FNDA:1,_RNCNvXs_NtNtCsmdD2PK2ogL_9detective8indexers22compound_mainnet_votesNtB6_27CompoundMainnetVotesIndexerNtNtBa_7indexer7Indexer7process0Ba_
FNDA:1,_RNvNtNtNtCsmdD2PK2ogL_9detective8indexers22compound_mainnet_votes22compound_mainnet_votess_18compound_mainnet_1
FNDA:1,_RNCNvNtNtNtCsmdD2PK2ogL_9detective8indexers22compound_mainnet_votes22compound_mainnet_votess_18compound_mainnet_10B9_
FNF:9
FNH:6
DA:27,0
DA:28,0
DA:29,0
DA:38,1
DA:39,1
DA:41,1
DA:43,1
DA:44,1
DA:45,6
DA:46,1
DA:48,1
DA:49,1
DA:50,0
DA:52,1
DA:55,1
DA:56,1
DA:57,1
DA:59,1
DA:60,1
DA:61,1
DA:62,1
DA:63,1
DA:64,1
DA:65,1
DA:66,1
DA:68,1
DA:69,15
DA:70,1
DA:72,1
DA:73,2
DA:74,0
DA:75,0
DA:76,0
DA:77,0
DA:78,0
DA:79,0
DA:82,1
DA:83,1
DA:84,1
DA:85,1
DA:86,1
DA:87,1
DA:88,1
DA:89,1
DA:91,2
DA:92,1
DA:93,1
DA:94,1
DA:95,15
DA:96,1
DA:97,1
DA:98,1
DA:99,1
DA:100,1
DA:101,1
DA:102,1
DA:103,1
DA:104,1
DA:105,1
DA:106,1
DA:107,1
DA:108,1
DA:109,1
DA:110,1
DA:111,0
DA:112,1
DA:113,0
DA:114,0
DA:116,1
DA:117,1
DA:118,1
DA:119,1
DA:120,1
DA:121,1
DA:122,1
DA:123,1
DA:124,1
DA:125,1
DA:126,1
DA:127,1
DA:131,1
DA:132,1
DA:144,1
DA:145,1
DA:146,1
DA:147,1
DA:148,1
DA:149,1
DA:150,1
DA:151,1
DA:152,1
DA:153,1
DA:154,1
DA:155,1
DA:156,1
DA:157,1
DA:158,1
DA:159,1
DA:160,1
DA:161,1
DA:162,1
DA:163,1
DA:164,1
DA:165,1
DA:166,1
DA:167,1
DA:168,22
DA:169,1
DA:170,1
DA:171,1
DA:172,1
DA:173,1
DA:174,1
DA:175,1
DA:176,1
DA:177,1
DA:178,1
DA:179,1
DA:180,1
DA:181,1
DA:182,1
DA:183,1
DA:184,1
DA:185,1
DA:186,1
DA:187,1
DA:188,1
DA:189,1
DA:190,1
BRF:0
BRH:0
LF:175
LH:161
end_of_record
SF:/Users/andrei/git/proposalsapp/apps/detective/indexers/dydx_mainnet_proposals.rs
FN:108,_RNvXNtNtCsmdD2PK2ogL_9detective8indexers22dydx_mainnet_proposalsNtB2_27DydxMainnetProposalsIndexerNtNtB6_7indexer7Indexer17min_refresh_speed
FN:111,_RNvXNtNtCsmdD2PK2ogL_9detective8indexers22dydx_mainnet_proposalsNtB2_27DydxMainnetProposalsIndexerNtNtB6_7indexer7Indexer17max_refresh_speed
FN:116,_RNvNtNtCsmdD2PK2ogL_9detective8indexers22dydx_mainnet_proposals17data_for_proposal
FN:291,_RNvNtNtCsmdD2PK2ogL_9detective8indexers22dydx_mainnet_proposals9get_title
FN:361,_RNvNtNtCsmdD2PK2ogL_9detective8indexers22dydx_mainnet_proposals14get_discussion
FN:434,_RNvNtNtCsmdD2PK2ogL_9detective8indexers22dydx_mainnet_proposals8get_body
FN:107,_RNvXNtNtCsmdD2PK2ogL_9detective8indexers22dydx_mainnet_proposalsNtB2_27DydxMainnetProposalsIndexerNtNtB6_7indexer7Indexer7process
FN:483,_RNCNvNtNtNtCsmdD2PK2ogL_9detective8indexers22dydx_mainnet_proposals22dydx_mainnet_proposalss_6dydx_10B9_
FN:540,_RNCNvNtNtNtCsmdD2PK2ogL_9detective8indexers22dydx_mainnet_proposals22dydx_mainnet_proposalss_6dydx_20B9_
FN:121,_RNCNvNtNtCsmdD2PK2ogL_9detective8indexers22dydx_mainnet_proposals17data_for_proposal0B7_
FN:190,_RNCNCNvNtNtCsmdD2PK2ogL_9detective8indexers22dydx_mainnet_proposals17data_for_proposal00B9_
FN:247,_RNCNCNvNtNtCsmdD2PK2ogL_9detective8indexers22dydx_mainnet_proposals17data_for_proposal0s_0B9_
FN:291,_RNCNvNtNtCsmdD2PK2ogL_9detective8indexers22dydx_mainnet_proposals9get_title0B7_
FN:361,_RNCNvNtNtCsmdD2PK2ogL_9detective8indexers22dydx_mainnet_proposals14get_discussion0B7_
FN:434,_RNCNvNtNtCsmdD2PK2ogL_9detective8indexers22dydx_mainnet_proposals8get_body0B7_
FN:52,_RNCNvXNtNtCsmdD2PK2ogL_9detective8indexers22dydx_mainnet_proposalsNtB4_27DydxMainnetProposalsIndexerNtNtB8_7indexer7Indexer7process0B8_
FN:93,_RNCNCNvXNtNtCsmdD2PK2ogL_9detective8indexers22dydx_mainnet_proposalsNtB6_27DydxMainnetProposalsIndexerNtNtBa_7indexer7Indexer7process00Ba_
FN:99,_RNCNCNvXNtNtCsmdD2PK2ogL_9detective8indexers22dydx_mainnet_proposalsNtB6_27DydxMainnetProposalsIndexerNtNtBa_7indexer7Indexer7process0s_0Ba_
FN:483,_RNvNtNtNtCsmdD2PK2ogL_9detective8indexers22dydx_mainnet_proposals22dydx_mainnet_proposalss_6dydx_1
FN:540,_RNvNtNtNtCsmdD2PK2ogL_9detective8indexers22dydx_mainnet_proposals22dydx_mainnet_proposalss_6dydx_2
FNDA:0,_RNvXNtNtCsmdD2PK2ogL_9detective8indexers22dydx_mainnet_proposalsNtB2_27DydxMainnetProposalsIndexerNtNtB6_7indexer7Indexer17min_refresh_speed
FNDA:0,_RNvXNtNtCsmdD2PK2ogL_9detective8indexers22dydx_mainnet_proposalsNtB2_27DydxMainnetProposalsIndexerNtNtB6_7indexer7Indexer17max_refresh_speed
FNDA:3,_RNvNtNtCsmdD2PK2ogL_9detective8indexers22dydx_mainnet_proposals17data_for_proposal
FNDA:3,_RNvNtNtCsmdD2PK2ogL_9detective8indexers22dydx_mainnet_proposals9get_title
FNDA:3,_RNvNtNtCsmdD2PK2ogL_9detective8indexers22dydx_mainnet_proposals14get_discussion
FNDA:3,_RNvNtNtCsmdD2PK2ogL_9detective8indexers22dydx_mainnet_proposals8get_body
FNDA:2,_RNvXNtNtCsmdD2PK2ogL_9detective8indexers22dydx_mainnet_proposalsNtB2_27DydxMainnetProposalsIndexerNtNtB6_7indexer7Indexer7process
FNDA:1,_RNCNvNtNtNtCsmdD2PK2ogL_9detective8indexers22dydx_mainnet_proposals22dydx_mainnet_proposalss_6dydx_10B9_
FNDA:1,_RNCNvNtNtNtCsmdD2PK2ogL_9detective8indexers22dydx_mainnet_proposals22dydx_mainnet_proposalss_6dydx_20B9_
FNDA:3,_RNCNvNtNtCsmdD2PK2ogL_9detective8indexers22dydx_mainnet_proposals17data_for_proposal0B7_
FNDA:3,_RNCNCNvNtNtCsmdD2PK2ogL_9detective8indexers22dydx_mainnet_proposals17data_for_proposal00B9_
FNDA:3,_RNCNCNvNtNtCsmdD2PK2ogL_9detective8indexers22dydx_mainnet_proposals17data_for_proposal0s_0B9_
FNDA:3,_RNCNvNtNtCsmdD2PK2ogL_9detective8indexers22dydx_mainnet_proposals9get_title0B7_
FNDA:3,_RNCNvNtNtCsmdD2PK2ogL_9detective8indexers22dydx_mainnet_proposals14get_discussion0B7_
FNDA:3,_RNCNvNtNtCsmdD2PK2ogL_9detective8indexers22dydx_mainnet_proposals8get_body0B7_
FNDA:2,_RNCNvXNtNtCsmdD2PK2ogL_9detective8indexers22dydx_mainnet_proposalsNtB4_27DydxMainnetProposalsIndexerNtNtB8_7indexer7Indexer7process0B8_
FNDA:3,_RNCNCNvXNtNtCsmdD2PK2ogL_9detective8indexers22dydx_mainnet_proposalsNtB6_27DydxMainnetProposalsIndexerNtNtBa_7indexer7Indexer7process00Ba_
FNDA:0,_RNCNCNvXNtNtCsmdD2PK2ogL_9detective8indexers22dydx_mainnet_proposalsNtB6_27DydxMainnetProposalsIndexerNtNtBa_7indexer7Indexer7process0s_0Ba_
FNDA:1,_RNvNtNtNtCsmdD2PK2ogL_9detective8indexers22dydx_mainnet_proposals22dydx_mainnet_proposalss_6dydx_1
FNDA:1,_RNvNtNtNtCsmdD2PK2ogL_9detective8indexers22dydx_mainnet_proposals22dydx_mainnet_proposalss_6dydx_2
FNF:20
FNH:17
DA:52,2
DA:53,2
DA:55,2
DA:57,2
DA:58,2
DA:59,12
DA:60,2
DA:62,2
DA:63,2
DA:64,0
DA:66,2
DA:69,2
DA:70,2
DA:71,2
DA:73,2
DA:74,2
DA:75,2
DA:76,2
DA:77,2
DA:78,2
DA:79,14
DA:80,2
DA:82,2
DA:84,3
DA:85,3
DA:86,768
DA:87,3
DA:88,3
DA:91,2
DA:92,2
DA:93,3
DA:94,3
DA:95,3
DA:98,3
DA:99,2
DA:100,0
DA:101,0
DA:102,2
DA:103,2
DA:104,2
DA:105,2
DA:106,2
DA:107,4
DA:108,0
DA:109,0
DA:110,0
DA:111,0
DA:112,0
DA:113,0
DA:116,3
DA:117,3
DA:118,3
DA:119,3
DA:120,3
DA:121,3
DA:122,3
DA:124,3
DA:125,3
DA:126,52
DA:127,3
DA:128,3
DA:129,3
DA:130,3
DA:131,3
DA:132,3
DA:133,3
DA:134,3
DA:135,3
DA:136,3
DA:137,3
DA:139,278
DA:140,3
DA:142,0
DA:143,0
DA:144,0
DA:145,0
DA:146,0
DA:147,0
DA:148,0
DA:149,0
DA:150,0
DA:153,0
DA:154,0
DA:158,277
DA:159,3
DA:161,0
DA:162,0
DA:163,0
DA:164,0
DA:165,0
DA:166,0
DA:167,0
DA:168,0
DA:169,0
DA:172,0
DA:173,0
DA:177,3
DA:178,3
DA:179,3
DA:180,3
DA:181,3
DA:182,3
DA:183,3
DA:185,3
DA:186,3
DA:187,3
DA:188,3
DA:189,3
DA:190,3
DA:191,3
DA:193,3
DA:194,3
DA:195,3
DA:196,3
DA:197,3
DA:200,3
DA:201,3
DA:202,3
DA:203,3
DA:204,3
DA:207,3
DA:208,3
DA:209,3
DA:211,3
DA:212,3
DA:213,3
DA:214,14
DA:215,3
DA:218,3
DA:219,3
DA:220,3
DA:221,3
DA:222,3
DA:223,3
DA:224,3
DA:225,3
DA:226,3
DA:227,3
DA:228,3
DA:229,3
DA:231,3
DA:232,45
DA:233,3
DA:235,3
DA:236,45
DA:237,3
DA:238,3
DA:239,45
DA:240,3
DA:242,3
DA:243,3
DA:244,3
DA:245,3
DA:246,3
DA:247,3
DA:248,3
DA:250,3
DA:251,0
DA:252,0
DA:253,0
DA:254,0
DA:255,0
DA:256,0
DA:257,0
DA:258,3
DA:259,0
DA:262,3
DA:263,3
DA:264,3
DA:265,3
DA:266,3
DA:267,3
DA:268,3
DA:269,3
DA:270,3
DA:271,3
DA:272,3
DA:273,3
DA:274,3
DA:275,3
DA:276,3
DA:277,3
DA:278,3
DA:279,3
DA:280,3
DA:281,3
DA:282,3
DA:283,3
DA:284,3
DA:285,3
DA:286,3
DA:287,3
DA:288,3
DA:289,3
DA:291,3
DA:292,3
DA:293,3
DA:294,3
DA:296,3
DA:297,3
DA:298,3
DA:299,3
DA:300,3
DA:303,3
DA:304,3
DA:305,3
DA:306,3
DA:307,18
DA:309,3
DA:310,3
DA:312,27
DA:314,3
DA:316,3
DA:317,3
DA:318,3
DA:320,0
DA:321,0
DA:322,0
DA:323,0
DA:325,3
DA:326,3
DA:327,3
DA:328,0
DA:329,3
DA:331,3
DA:332,0
DA:333,3
DA:335,3
DA:336,0
DA:337,3
DA:339,3
DA:340,0
DA:341,3
DA:343,3
DA:345,0
DA:346,0
DA:347,0
DA:348,0
DA:349,0
DA:350,0
DA:351,0
DA:352,0
DA:353,0
DA:354,0
DA:356,0
DA:359,3
DA:361,3
DA:362,3
DA:363,3
DA:364,3
DA:366,3
DA:367,3
DA:368,3
DA:369,3
DA:370,3
DA:373,3
DA:374,3
DA:375,3
DA:376,3
DA:377,18
DA:379,3
DA:380,3
DA:382,27
DA:384,3
DA:386,3
DA:387,3
DA:388,3
DA:389,3
DA:390,3
DA:391,3
DA:393,0
DA:394,0
DA:395,0
DA:396,0
DA:398,3
DA:399,3
DA:400,3
DA:401,0
DA:402,3
DA:404,3
DA:405,0
DA:406,3
DA:408,3
DA:409,0
DA:410,3
DA:412,3
DA:413,0
DA:414,3
DA:416,3
DA:418,0
DA:419,0
DA:420,0
DA:421,0
DA:422,0
DA:423,0
DA:424,0
DA:425,0
DA:426,0
DA:427,0
DA:429,0
DA:432,3
DA:434,3
DA:435,3
DA:436,3
DA:437,3
DA:438,3
DA:439,3
DA:440,3
DA:441,3
DA:442,3
DA:445,3
DA:446,3
DA:447,3
DA:448,3
DA:449,18
DA:451,3
DA:452,3
DA:453,27
DA:455,3
DA:457,0
DA:458,0
DA:459,0
DA:460,0
DA:461,0
DA:462,0
DA:463,0
DA:464,0
DA:465,0
DA:466,0
DA:468,0
DA:471,3
DA:483,1
DA:484,1
DA:485,1
DA:486,1
DA:487,1
DA:488,1
DA:489,1
DA:490,1
DA:491,1
DA:492,1
DA:493,1
DA:494,1
DA:495,1
DA:496,1
DA:497,1
DA:498,1
DA:499,1
DA:500,1
DA:501,1
DA:502,1
DA:503,1
DA:504,1
DA:505,1
DA:506,1
DA:507,251
DA:508,1
DA:509,1
DA:510,1
DA:511,1
DA:512,1
DA:513,1
DA:514,1
DA:515,1
DA:516,1
DA:517,1
DA:518,1
DA:519,1
DA:520,1
DA:521,1
DA:522,1
DA:523,1
DA:524,1
DA:525,1
DA:526,1
DA:527,1
DA:528,1
DA:529,1
DA:530,1
DA:531,1
DA:532,1
DA:533,1
DA:534,1
DA:535,1
DA:536,1
DA:537,1
DA:540,1
DA:541,1
DA:542,1
DA:543,1
DA:544,1
DA:545,1
DA:546,1
DA:547,1
DA:548,1
DA:549,1
DA:550,1
DA:551,1
DA:552,1
DA:553,1
DA:554,1
DA:555,1
DA:556,1
DA:557,1
DA:558,1
DA:559,1
DA:560,1
DA:561,1
DA:562,1
DA:563,1
DA:564,543
DA:565,1
DA:566,1
DA:567,1
DA:568,1
DA:569,1
DA:570,1
DA:571,1
DA:572,1
DA:573,1
DA:574,1
DA:575,1
DA:576,1
DA:577,1
DA:578,1
DA:579,1
DA:580,1
DA:581,1
DA:582,1
DA:583,1
DA:584,1
DA:585,1
DA:586,1
DA:587,1
DA:588,1
DA:589,1
DA:590,1
DA:591,1
DA:592,1
DA:593,1
DA:594,1
DA:595,1
DA:596,1
DA:597,1
DA:598,1
DA:599,1
DA:600,1
DA:601,1
DA:602,1
DA:603,1
DA:604,1
DA:605,1
DA:606,1
DA:607,1
DA:608,1
DA:609,1
DA:610,1
DA:611,2
DA:612,2
DA:613,2
DA:614,1
DA:615,1
DA:616,1
DA:617,1
BRF:0
BRH:0
LF:602
LH:510
end_of_record
SF:/Users/andrei/git/proposalsapp/apps/detective/indexers/dydx_mainnet_votes.rs
FN:27,_RNvMNtNtCsmdD2PK2ogL_9detective8indexers18dydx_mainnet_votesNtB2_23DydxMainnetVotesIndexer24proposal_indexer_variant
FN:74,_RNvXs_NtNtCsmdD2PK2ogL_9detective8indexers18dydx_mainnet_votesNtB4_23DydxMainnetVotesIndexerNtNtB8_7indexer7Indexer17min_refresh_speed
FN:77,_RNvXs_NtNtCsmdD2PK2ogL_9detective8indexers18dydx_mainnet_votesNtB4_23DydxMainnetVotesIndexerNtNtB8_7indexer7Indexer17max_refresh_speed
FN:142,_RNCNvNtNtNtCsmdD2PK2ogL_9detective8indexers18dydx_mainnet_votes18dydx_mainnet_votess_14dydx_mainnet_10B9_
FN:142,_RNvNtNtNtCsmdD2PK2ogL_9detective8indexers18dydx_mainnet_votes18dydx_mainnet_votess_14dydx_mainnet_1
FN:86,_RNCNvNtNtCsmdD2PK2ogL_9detective8indexers18dydx_mainnet_votes9get_votes0B7_
FN:38,_RNCNvXs_NtNtCsmdD2PK2ogL_9detective8indexers18dydx_mainnet_votesNtB6_23DydxMainnetVotesIndexerNtNtBa_7indexer7Indexer7process0Ba_
FN:82,_RNvNtNtCsmdD2PK2ogL_9detective8indexers18dydx_mainnet_votes9get_votes
FN:73,_RNvXs_NtNtCsmdD2PK2ogL_9detective8indexers18dydx_mainnet_votesNtB4_23DydxMainnetVotesIndexerNtNtB8_7indexer7Indexer7process
FNDA:0,_RNvMNtNtCsmdD2PK2ogL_9detective8indexers18dydx_mainnet_votesNtB2_23DydxMainnetVotesIndexer24proposal_indexer_variant
FNDA:0,_RNvXs_NtNtCsmdD2PK2ogL_9detective8indexers18dydx_mainnet_votesNtB4_23DydxMainnetVotesIndexerNtNtB8_7indexer7Indexer17min_refresh_speed
FNDA:0,_RNvXs_NtNtCsmdD2PK2ogL_9detective8indexers18dydx_mainnet_votesNtB4_23DydxMainnetVotesIndexerNtNtB8_7indexer7Indexer17max_refresh_speed
FNDA:1,_RNCNvNtNtNtCsmdD2PK2ogL_9detective8indexers18dydx_mainnet_votes18dydx_mainnet_votess_14dydx_mainnet_10B9_
FNDA:1,_RNvNtNtNtCsmdD2PK2ogL_9detective8indexers18dydx_mainnet_votes18dydx_mainnet_votess_14dydx_mainnet_1
FNDA:1,_RNCNvNtNtCsmdD2PK2ogL_9detective8indexers18dydx_mainnet_votes9get_votes0B7_
FNDA:1,_RNCNvXs_NtNtCsmdD2PK2ogL_9detective8indexers18dydx_mainnet_votesNtB6_23DydxMainnetVotesIndexerNtNtBa_7indexer7Indexer7process0Ba_
FNDA:1,_RNvNtNtCsmdD2PK2ogL_9detective8indexers18dydx_mainnet_votes9get_votes
FNDA:1,_RNvXs_NtNtCsmdD2PK2ogL_9detective8indexers18dydx_mainnet_votesNtB4_23DydxMainnetVotesIndexerNtNtB8_7indexer7Indexer7process
FNF:9
FNH:6
DA:27,0
DA:28,0
DA:29,0
DA:38,1
DA:39,1
DA:41,1
DA:43,1
DA:44,1
DA:45,6
DA:46,1
DA:48,1
DA:49,1
DA:50,0
DA:52,1
DA:55,1
DA:56,1
DA:57,1
DA:59,1
DA:60,1
DA:61,1
DA:62,1
DA:63,1
DA:64,1
DA:65,1
DA:66,1
DA:68,1
DA:69,14
DA:70,1
DA:72,1
DA:73,2
DA:74,0
DA:75,0
DA:76,0
DA:77,0
DA:78,0
DA:79,0
DA:82,1
DA:83,1
DA:84,1
DA:85,1
DA:86,1
DA:87,1
DA:88,1
DA:89,1
DA:91,2
DA:92,1
DA:93,1
DA:94,1
DA:95,14
DA:96,1
DA:97,1
DA:98,1
DA:99,1
DA:100,1
DA:101,1
DA:102,1
DA:103,1
DA:104,1
DA:105,1
DA:106,1
DA:107,1
DA:108,1
DA:109,1
DA:110,1
DA:111,1
DA:112,0
DA:114,1
DA:115,1
DA:116,1
DA:117,1
DA:118,1
DA:119,1
DA:120,1
DA:121,1
DA:122,1
DA:123,1
DA:124,1
DA:125,1
DA:129,1
DA:130,1
DA:142,1
DA:143,1
DA:144,1
DA:145,1
DA:146,1
DA:147,1
DA:148,1
DA:149,1
DA:150,1
DA:151,1
DA:152,1
DA:153,1
DA:154,1
DA:155,1
DA:156,1
DA:157,1
DA:158,1
DA:159,1
DA:160,1
DA:161,1
DA:162,1
DA:163,1
DA:164,1
DA:165,1
DA:166,21
DA:167,1
DA:168,1
DA:169,1
DA:170,1
DA:171,1
DA:172,1
DA:173,1
DA:174,1
DA:175,1
DA:176,1
DA:177,1
DA:178,1
DA:179,1
DA:180,1
DA:181,1
DA:182,1
DA:183,1
DA:184,1
DA:185,1
DA:186,1
DA:187,1
DA:188,1
BRF:0
BRH:0
LF:173
LH:161
end_of_record
SF:/Users/andrei/git/proposalsapp/apps/detective/indexers/ens_mainnnet_proposals.rs
FN:93,_RNvXNtNtCsmdD2PK2ogL_9detective8indexers22ens_mainnnet_proposalsNtB2_26EnsMainnetProposalsIndexerNtNtB6_7indexer7Indexer17min_refresh_speed
FN:96,_RNvXNtNtCsmdD2PK2ogL_9detective8indexers22ens_mainnnet_proposalsNtB2_26EnsMainnetProposalsIndexerNtNtB6_7indexer7Indexer17max_refresh_speed
FN:106,_RNCNvNtNtCsmdD2PK2ogL_9detective8indexers22ens_mainnnet_proposals17data_for_proposal0B7_
FN:222,_RNCNCNvNtNtCsmdD2PK2ogL_9detective8indexers22ens_mainnnet_proposals17data_for_proposal00B9_
FN:37,_RNCNvXNtNtCsmdD2PK2ogL_9detective8indexers22ens_mainnnet_proposalsNtB4_26EnsMainnetProposalsIndexerNtNtB8_7indexer7Indexer7process0B8_
FN:78,_RNCNCNvXNtNtCsmdD2PK2ogL_9detective8indexers22ens_mainnnet_proposalsNtB6_26EnsMainnetProposalsIndexerNtNtBa_7indexer7Indexer7process00Ba_
FN:84,_RNCNCNvXNtNtCsmdD2PK2ogL_9detective8indexers22ens_mainnnet_proposalsNtB6_26EnsMainnetProposalsIndexerNtNtBa_7indexer7Indexer7process0s_0Ba_
FN:278,_RNvNtNtNtCsmdD2PK2ogL_9detective8indexers22ens_mainnnet_proposals21ens_mainnet_proposalss_5ens_1
FN:278,_RNCNvNtNtNtCsmdD2PK2ogL_9detective8indexers22ens_mainnnet_proposals21ens_mainnet_proposalss_5ens_10B9_
FN:101,_RNvNtNtCsmdD2PK2ogL_9detective8indexers22ens_mainnnet_proposals17data_for_proposal
FN:92,_RNvXNtNtCsmdD2PK2ogL_9detective8indexers22ens_mainnnet_proposalsNtB2_26EnsMainnetProposalsIndexerNtNtB6_7indexer7Indexer7process
FNDA:0,_RNvXNtNtCsmdD2PK2ogL_9detective8indexers22ens_mainnnet_proposalsNtB2_26EnsMainnetProposalsIndexerNtNtB6_7indexer7Indexer17min_refresh_speed
FNDA:0,_RNvXNtNtCsmdD2PK2ogL_9detective8indexers22ens_mainnnet_proposalsNtB2_26EnsMainnetProposalsIndexerNtNtB6_7indexer7Indexer17max_refresh_speed
FNDA:1,_RNCNvNtNtCsmdD2PK2ogL_9detective8indexers22ens_mainnnet_proposals17data_for_proposal0B7_
FNDA:1,_RNCNCNvNtNtCsmdD2PK2ogL_9detective8indexers22ens_mainnnet_proposals17data_for_proposal00B9_
FNDA:1,_RNCNvXNtNtCsmdD2PK2ogL_9detective8indexers22ens_mainnnet_proposalsNtB4_26EnsMainnetProposalsIndexerNtNtB8_7indexer7Indexer7process0B8_
FNDA:1,_RNCNCNvXNtNtCsmdD2PK2ogL_9detective8indexers22ens_mainnnet_proposalsNtB6_26EnsMainnetProposalsIndexerNtNtBa_7indexer7Indexer7process00Ba_
FNDA:0,_RNCNCNvXNtNtCsmdD2PK2ogL_9detective8indexers22ens_mainnnet_proposalsNtB6_26EnsMainnetProposalsIndexerNtNtBa_7indexer7Indexer7process0s_0Ba_
FNDA:1,_RNvNtNtNtCsmdD2PK2ogL_9detective8indexers22ens_mainnnet_proposals21ens_mainnet_proposalss_5ens_1
FNDA:1,_RNCNvNtNtNtCsmdD2PK2ogL_9detective8indexers22ens_mainnnet_proposals21ens_mainnet_proposalss_5ens_10B9_
FNDA:1,_RNvNtNtCsmdD2PK2ogL_9detective8indexers22ens_mainnnet_proposals17data_for_proposal
FNDA:1,_RNvXNtNtCsmdD2PK2ogL_9detective8indexers22ens_mainnnet_proposalsNtB2_26EnsMainnetProposalsIndexerNtNtB6_7indexer7Indexer7process
FNF:11
FNH:8
DA:37,1
DA:38,1
DA:40,1
DA:42,1
DA:43,1
DA:44,6
DA:45,1
DA:47,1
DA:48,1
DA:49,0
DA:51,1
DA:54,1
DA:55,1
DA:56,1
DA:58,1
DA:59,1
DA:60,1
DA:61,1
DA:62,1
DA:63,1
DA:64,10
DA:65,1
DA:67,1
DA:69,1
DA:70,1
DA:71,174
DA:72,1
DA:73,1
DA:76,1
DA:77,1
DA:78,1
DA:79,1
DA:80,1
DA:83,1
DA:84,1
DA:85,0
DA:86,0
DA:87,1
DA:88,1
DA:89,1
DA:90,1
DA:91,1
DA:92,2
DA:93,0
DA:94,0
DA:95,0
DA:96,0
DA:97,0
DA:98,0
DA:101,1
DA:102,1
DA:103,1
DA:104,1
DA:105,1
DA:106,1
DA:107,1
DA:109,1
DA:110,1
DA:111,12
DA:112,1
DA:113,1
DA:114,1
DA:115,1
DA:116,1
DA:117,1
DA:118,1
DA:119,1
DA:120,1
DA:121,1
DA:122,1
DA:124,78
DA:125,1
DA:127,0
DA:128,0
DA:129,0
DA:130,0
DA:131,0
DA:132,0
DA:133,0
DA:134,0
DA:135,0
DA:138,0
DA:139,0
DA:143,81
DA:144,1
DA:146,0
DA:147,0
DA:148,0
DA:149,0
DA:150,0
DA:151,0
DA:152,0
DA:153,0
DA:154,0
DA:157,0
DA:158,0
DA:162,1
DA:163,1
DA:164,1
DA:165,1
DA:166,1
DA:167,1
DA:168,1
DA:169,1
DA:170,1
DA:171,1
DA:172,1
DA:173,1
DA:174,1
DA:175,1
DA:176,1
DA:177,1
DA:178,1
DA:179,1
DA:180,1
DA:181,1
DA:183,1
DA:184,0
DA:185,1
DA:187,1
DA:188,1
DA:189,1
DA:191,1
DA:192,1
DA:193,1
DA:194,1
DA:195,1
DA:197,1
DA:198,1
DA:199,1
DA:200,1
DA:201,1
DA:202,1
DA:203,1
DA:204,1
DA:205,1
DA:206,1
DA:208,1
DA:209,1
DA:210,1
DA:211,1
DA:212,1
DA:214,1
DA:215,1
DA:217,1
DA:218,1
DA:219,1
DA:220,1
DA:221,1
DA:222,1
DA:223,1
DA:225,1
DA:226,0
DA:227,0
DA:228,0
DA:229,0
DA:230,0
DA:231,0
DA:232,0
DA:233,1
DA:234,0
DA:237,1
DA:238,1
DA:239,1
DA:240,1
DA:241,1
DA:242,1
DA:243,1
DA:244,1
DA:245,1
DA:246,1
DA:247,1
DA:248,1
DA:249,1
DA:250,1
DA:251,1
DA:252,1
DA:253,1
DA:254,1
DA:255,1
DA:256,1
DA:257,1
DA:258,1
DA:259,1
DA:260,1
DA:261,1
DA:262,1
DA:263,1
DA:264,1
DA:265,1
DA:266,1
DA:278,1
DA:279,1
DA:280,1
DA:281,1
DA:282,1
DA:283,1
DA:284,1
DA:285,1
DA:286,1
DA:287,1
DA:288,1
DA:289,1
DA:290,1
DA:291,1
DA:292,1
DA:293,1
DA:294,1
DA:295,1
DA:296,1
DA:297,1
DA:298,1
DA:299,1
DA:300,1
DA:301,1
DA:302,190
DA:303,1
DA:304,1
DA:305,1
DA:306,1
DA:307,1
DA:308,1
DA:309,1
DA:310,1
DA:311,1
DA:312,1
DA:313,1
DA:314,1
DA:315,1
DA:316,1
DA:317,1
DA:318,1
DA:319,1
DA:320,1
DA:321,1
DA:322,1
DA:323,1
DA:324,1
DA:325,1
DA:326,1
DA:327,1
DA:328,1
DA:329,1
DA:330,1
DA:331,1
DA:332,1
BRF:0
BRH:0
LF:305
LH:262
end_of_record
SF:/Users/andrei/git/proposalsapp/apps/detective/indexers/ens_vote_indexer.rs
FN:27,_RNvMNtNtCsmdD2PK2ogL_9detective8indexers16ens_vote_indexerNtB2_22EnsMainnetVotesIndexer24proposal_indexer_variant
FN:74,_RNvXs_NtNtCsmdD2PK2ogL_9detective8indexers16ens_vote_indexerNtB4_22EnsMainnetVotesIndexerNtNtB8_7indexer7Indexer17min_refresh_speed
FN:77,_RNvXs_NtNtCsmdD2PK2ogL_9detective8indexers16ens_vote_indexerNtB4_22EnsMainnetVotesIndexerNtNtB8_7indexer7Indexer17max_refresh_speed
FN:144,_RNvNtNtNtCsmdD2PK2ogL_9detective8indexers16ens_vote_indexer17ens_mainnet_votess_13ens_mainnet_1
FN:82,_RNvNtNtCsmdD2PK2ogL_9detective8indexers16ens_vote_indexer9get_votes
FN:73,_RNvXs_NtNtCsmdD2PK2ogL_9detective8indexers16ens_vote_indexerNtB4_22EnsMainnetVotesIndexerNtNtB8_7indexer7Indexer7process
FN:86,_RNCNvNtNtCsmdD2PK2ogL_9detective8indexers16ens_vote_indexer9get_votes0B7_
FN:38,_RNCNvXs_NtNtCsmdD2PK2ogL_9detective8indexers16ens_vote_indexerNtB6_22EnsMainnetVotesIndexerNtNtBa_7indexer7Indexer7process0Ba_
FN:144,_RNCNvNtNtNtCsmdD2PK2ogL_9detective8indexers16ens_vote_indexer17ens_mainnet_votess_13ens_mainnet_10B9_
FNDA:0,_RNvMNtNtCsmdD2PK2ogL_9detective8indexers16ens_vote_indexerNtB2_22EnsMainnetVotesIndexer24proposal_indexer_variant
FNDA:0,_RNvXs_NtNtCsmdD2PK2ogL_9detective8indexers16ens_vote_indexerNtB4_22EnsMainnetVotesIndexerNtNtB8_7indexer7Indexer17min_refresh_speed
FNDA:0,_RNvXs_NtNtCsmdD2PK2ogL_9detective8indexers16ens_vote_indexerNtB4_22EnsMainnetVotesIndexerNtNtB8_7indexer7Indexer17max_refresh_speed
FNDA:1,_RNvNtNtNtCsmdD2PK2ogL_9detective8indexers16ens_vote_indexer17ens_mainnet_votess_13ens_mainnet_1
FNDA:1,_RNvNtNtCsmdD2PK2ogL_9detective8indexers16ens_vote_indexer9get_votes
FNDA:1,_RNvXs_NtNtCsmdD2PK2ogL_9detective8indexers16ens_vote_indexerNtB4_22EnsMainnetVotesIndexerNtNtB8_7indexer7Indexer7process
FNDA:1,_RNCNvNtNtCsmdD2PK2ogL_9detective8indexers16ens_vote_indexer9get_votes0B7_
FNDA:1,_RNCNvXs_NtNtCsmdD2PK2ogL_9detective8indexers16ens_vote_indexerNtB6_22EnsMainnetVotesIndexerNtNtBa_7indexer7Indexer7process0Ba_
FNDA:1,_RNCNvNtNtNtCsmdD2PK2ogL_9detective8indexers16ens_vote_indexer17ens_mainnet_votess_13ens_mainnet_10B9_
FNF:9
FNH:6
DA:27,0
DA:28,0
DA:29,0
DA:38,1
DA:39,1
DA:41,1
DA:43,1
DA:44,1
DA:45,6
DA:46,1
DA:48,1
DA:49,1
DA:50,0
DA:52,1
DA:55,1
DA:56,1
DA:57,1
DA:59,1
DA:60,1
DA:61,1
DA:62,1
DA:63,1
DA:64,1
DA:65,3
DA:66,1
DA:68,1
DA:69,19
DA:70,1
DA:72,1
DA:73,2
DA:74,0
DA:75,0
DA:76,0
DA:77,0
DA:78,0
DA:79,0
DA:82,1
DA:83,1
DA:84,1
DA:85,1
DA:86,1
DA:87,1
DA:88,1
DA:89,1
DA:91,2
DA:92,1
DA:93,1
DA:94,1
DA:95,19
DA:96,1
DA:97,1
DA:98,1
DA:99,1
DA:100,1
DA:101,1
DA:102,1
DA:103,1
DA:104,1
DA:105,1
DA:106,1
DA:107,1
DA:108,1
DA:109,1
DA:110,1
DA:111,0
DA:112,1
DA:113,0
DA:114,0
DA:116,1
DA:117,1
DA:118,1
DA:119,1
DA:120,1
DA:121,1
DA:122,1
DA:123,1
DA:124,1
DA:125,1
DA:126,1
DA:127,1
DA:131,1
DA:132,1
DA:144,1
DA:145,1
DA:146,1
DA:147,1
DA:148,1
DA:149,1
DA:150,1
DA:151,1
DA:152,1
DA:153,1
DA:154,1
DA:155,1
DA:156,1
DA:157,1
DA:158,1
DA:159,1
DA:160,1
DA:161,1
DA:162,1
DA:163,1
DA:164,1
DA:165,1
DA:166,1
DA:167,1
DA:168,28
DA:169,1
DA:170,1
DA:171,1
DA:172,1
DA:173,1
DA:174,1
DA:175,1
DA:176,1
DA:177,1
DA:178,1
DA:179,1
DA:180,1
DA:181,1
DA:182,1
DA:183,1
DA:184,1
DA:185,1
DA:186,1
DA:187,1
DA:188,1
DA:189,1
DA:190,1
BRF:0
BRH:0
LF:175
LH:161
end_of_record
SF:/Users/andrei/git/proposalsapp/apps/detective/indexers/frax_alpha_mainnet_proposals.rs
FN:92,_RNvXNtNtCsmdD2PK2ogL_9detective8indexers28frax_alpha_mainnet_proposalsNtB2_32FraxAlphaMainnetProposalsIndexerNtNtB6_7indexer7Indexer17min_refresh_speed
FN:95,_RNvXNtNtCsmdD2PK2ogL_9detective8indexers28frax_alpha_mainnet_proposalsNtB2_32FraxAlphaMainnetProposalsIndexerNtNtB6_7indexer7Indexer17max_refresh_speed
FN:244,_RNCNvNtNtNtCsmdD2PK2ogL_9detective8indexers28frax_alpha_mainnet_proposals28frax_alpha_mainnet_proposalss_12frax_alpha_10B9_
FN:108,_RNCNvNtNtCsmdD2PK2ogL_9detective8indexers28frax_alpha_mainnet_proposals17data_for_proposal0B7_
FN:36,_RNCNvXNtNtCsmdD2PK2ogL_9detective8indexers28frax_alpha_mainnet_proposalsNtB4_32FraxAlphaMainnetProposalsIndexerNtNtB8_7indexer7Indexer7process0B8_
FN:77,_RNCNCNvXNtNtCsmdD2PK2ogL_9detective8indexers28frax_alpha_mainnet_proposalsNtB6_32FraxAlphaMainnetProposalsIndexerNtNtBa_7indexer7Indexer7process00Ba_
FN:83,_RNCNCNvXNtNtCsmdD2PK2ogL_9detective8indexers28frax_alpha_mainnet_proposalsNtB6_32FraxAlphaMainnetProposalsIndexerNtNtBa_7indexer7Indexer7process0s_0Ba_
FN:100,_RNvNtNtCsmdD2PK2ogL_9detective8indexers28frax_alpha_mainnet_proposals17data_for_proposal
FN:91,_RNvXNtNtCsmdD2PK2ogL_9detective8indexers28frax_alpha_mainnet_proposalsNtB2_32FraxAlphaMainnetProposalsIndexerNtNtB6_7indexer7Indexer7process
FN:244,_RNvNtNtNtCsmdD2PK2ogL_9detective8indexers28frax_alpha_mainnet_proposals28frax_alpha_mainnet_proposalss_12frax_alpha_1
FNDA:0,_RNvXNtNtCsmdD2PK2ogL_9detective8indexers28frax_alpha_mainnet_proposalsNtB2_32FraxAlphaMainnetProposalsIndexerNtNtB6_7indexer7Indexer17min_refresh_speed
FNDA:0,_RNvXNtNtCsmdD2PK2ogL_9detective8indexers28frax_alpha_mainnet_proposalsNtB2_32FraxAlphaMainnetProposalsIndexerNtNtB6_7indexer7Indexer17max_refresh_speed
FNDA:1,_RNCNvNtNtNtCsmdD2PK2ogL_9detective8indexers28frax_alpha_mainnet_proposals28frax_alpha_mainnet_proposalss_12frax_alpha_10B9_
FNDA:1,_RNCNvNtNtCsmdD2PK2ogL_9detective8indexers28frax_alpha_mainnet_proposals17data_for_proposal0B7_
FNDA:1,_RNCNvXNtNtCsmdD2PK2ogL_9detective8indexers28frax_alpha_mainnet_proposalsNtB4_32FraxAlphaMainnetProposalsIndexerNtNtB8_7indexer7Indexer7process0B8_
FNDA:1,_RNCNCNvXNtNtCsmdD2PK2ogL_9detective8indexers28frax_alpha_mainnet_proposalsNtB6_32FraxAlphaMainnetProposalsIndexerNtNtBa_7indexer7Indexer7process00Ba_
FNDA:0,_RNCNCNvXNtNtCsmdD2PK2ogL_9detective8indexers28frax_alpha_mainnet_proposalsNtB6_32FraxAlphaMainnetProposalsIndexerNtNtBa_7indexer7Indexer7process0s_0Ba_
FNDA:1,_RNvNtNtCsmdD2PK2ogL_9detective8indexers28frax_alpha_mainnet_proposals17data_for_proposal
FNDA:1,_RNvXNtNtCsmdD2PK2ogL_9detective8indexers28frax_alpha_mainnet_proposalsNtB2_32FraxAlphaMainnetProposalsIndexerNtNtB6_7indexer7Indexer7process
FNDA:1,_RNvNtNtNtCsmdD2PK2ogL_9detective8indexers28frax_alpha_mainnet_proposals28frax_alpha_mainnet_proposalss_12frax_alpha_1
FNF:10
FNH:7
DA:36,1
DA:37,1
DA:39,1
DA:41,1
DA:42,1
DA:43,6
DA:44,1
DA:46,1
DA:47,1
DA:48,0
DA:50,1
DA:53,1
DA:54,1
DA:55,1
DA:57,1
DA:58,1
DA:59,1
DA:60,1
DA:61,1
DA:62,1
DA:63,4
DA:64,1
DA:66,1
DA:68,1
DA:69,1
DA:70,13
DA:71,1
DA:72,1
DA:75,1
DA:76,1
DA:77,1
DA:78,1
DA:79,1
DA:82,1
DA:83,1
DA:84,0
DA:85,0
DA:86,1
DA:87,1
DA:88,1
DA:89,1
DA:90,1
DA:91,2
DA:92,0
DA:93,0
DA:94,0
DA:95,0
DA:96,0
DA:97,0
DA:100,1
DA:101,1
DA:102,1
DA:103,1
DA:104,1
DA:105,1
DA:106,1
DA:107,1
DA:108,1
DA:109,1
DA:111,1
DA:112,1
DA:113,10
DA:114,1
DA:115,1
DA:116,1
DA:117,1
DA:118,1
DA:119,1
DA:120,1
DA:121,1
DA:122,1
DA:123,1
DA:124,1
DA:125,1
DA:126,1
DA:127,1
DA:128,1
DA:129,1
DA:130,1
DA:131,1
DA:132,1
DA:133,1
DA:134,1
DA:135,1
DA:136,1
DA:137,1
DA:138,1
DA:139,1
DA:140,1
DA:141,1
DA:142,1
DA:143,1
DA:144,1
DA:145,0
DA:146,1
DA:148,1
DA:149,0
DA:150,1
DA:152,1
DA:153,1
DA:154,1
DA:156,1
DA:157,1
DA:158,1
DA:159,1
DA:160,1
DA:162,1
DA:163,1
DA:164,1
DA:165,1
DA:166,1
DA:167,1
DA:168,1
DA:170,1
DA:171,1
DA:172,1
DA:173,1
DA:174,1
DA:176,1
DA:177,1
DA:178,1
DA:179,1
DA:180,1
DA:182,1
DA:183,1
DA:184,1
DA:185,1
DA:186,1
DA:189,1
DA:190,0
DA:191,0
DA:192,0
DA:193,1
DA:194,0
DA:195,0
DA:196,0
DA:197,0
DA:198,0
DA:201,1
DA:202,1
DA:203,1
DA:204,1
DA:205,1
DA:206,1
DA:207,1
DA:208,1
DA:209,1
DA:210,1
DA:211,1
DA:212,1
DA:213,1
DA:214,1
DA:215,1
DA:216,1
DA:217,1
DA:218,1
DA:219,1
DA:220,1
DA:221,1
DA:222,1
DA:223,1
DA:224,1
DA:225,1
DA:226,1
DA:227,1
DA:228,1
DA:229,1
DA:230,1
DA:231,1
DA:232,1
DA:244,1
DA:245,1
DA:246,1
DA:247,1
DA:248,1
DA:249,1
DA:250,1
DA:251,1
DA:252,1
DA:253,1
DA:254,1
DA:255,1
DA:256,1
DA:257,1
DA:258,1
DA:259,1
DA:260,1
DA:261,1
DA:262,1
DA:263,1
DA:264,1
DA:265,1
DA:266,1
DA:267,1
DA:268,1
DA:269,1
DA:270,23
DA:271,1
DA:272,1
DA:273,1
DA:274,1
DA:275,1
DA:276,1
DA:277,1
DA:278,1
DA:279,1
DA:280,1
DA:281,1
DA:282,1
DA:283,1
DA:284,1
DA:285,1
DA:286,1
DA:287,1
DA:288,1
DA:289,1
DA:290,1
DA:291,1
DA:292,1
DA:293,1
DA:294,1
DA:295,1
DA:296,1
DA:297,1
DA:298,1
DA:299,1
DA:300,1
DA:301,1
BRF:0
BRH:0
LF:288
LH:266
end_of_record
SF:/Users/andrei/git/proposalsapp/apps/detective/indexers/frax_alpha_mainnet_votes.rs
FN:27,_RNvMNtNtCsmdD2PK2ogL_9detective8indexers24frax_alpha_mainnet_votesNtB2_28FraxAlphaMainnetVotesIndexer24proposal_indexer_variant
FN:89,_RNvXs_NtNtCsmdD2PK2ogL_9detective8indexers24frax_alpha_mainnet_votesNtB4_28FraxAlphaMainnetVotesIndexerNtNtB8_7indexer7Indexer17min_refresh_speed
FN:92,_RNvXs_NtNtCsmdD2PK2ogL_9detective8indexers24frax_alpha_mainnet_votesNtB4_28FraxAlphaMainnetVotesIndexerNtNtB8_7indexer7Indexer17max_refresh_speed
FN:211,_RNvNtNtNtCsmdD2PK2ogL_9detective8indexers24frax_alpha_mainnet_votes24frax_alpha_mainnet_votess_20frax_alpha_mainnet_1
FN:97,_RNvNtNtCsmdD2PK2ogL_9detective8indexers24frax_alpha_mainnet_votes9get_votes
FN:149,_RNvNtNtCsmdD2PK2ogL_9detective8indexers24frax_alpha_mainnet_votes21get_votes_with_params
FN:88,_RNvXs_NtNtCsmdD2PK2ogL_9detective8indexers24frax_alpha_mainnet_votesNtB4_28FraxAlphaMainnetVotesIndexerNtNtB8_7indexer7Indexer7process
FN:101,_RNCNvNtNtCsmdD2PK2ogL_9detective8indexers24frax_alpha_mainnet_votes9get_votes0B7_
FN:153,_RNCNvNtNtCsmdD2PK2ogL_9detective8indexers24frax_alpha_mainnet_votes21get_votes_with_params0B7_
FN:38,_RNCNvXs_NtNtCsmdD2PK2ogL_9detective8indexers24frax_alpha_mainnet_votesNtB6_28FraxAlphaMainnetVotesIndexerNtNtBa_7indexer7Indexer7process0Ba_
FN:211,_RNCNvNtNtNtCsmdD2PK2ogL_9detective8indexers24frax_alpha_mainnet_votes24frax_alpha_mainnet_votess_20frax_alpha_mainnet_10B9_
FNDA:0,_RNvMNtNtCsmdD2PK2ogL_9detective8indexers24frax_alpha_mainnet_votesNtB2_28FraxAlphaMainnetVotesIndexer24proposal_indexer_variant
FNDA:0,_RNvXs_NtNtCsmdD2PK2ogL_9detective8indexers24frax_alpha_mainnet_votesNtB4_28FraxAlphaMainnetVotesIndexerNtNtB8_7indexer7Indexer17min_refresh_speed
FNDA:0,_RNvXs_NtNtCsmdD2PK2ogL_9detective8indexers24frax_alpha_mainnet_votesNtB4_28FraxAlphaMainnetVotesIndexerNtNtB8_7indexer7Indexer17max_refresh_speed
FNDA:1,_RNvNtNtNtCsmdD2PK2ogL_9detective8indexers24frax_alpha_mainnet_votes24frax_alpha_mainnet_votess_20frax_alpha_mainnet_1
FNDA:1,_RNvNtNtCsmdD2PK2ogL_9detective8indexers24frax_alpha_mainnet_votes9get_votes
FNDA:1,_RNvNtNtCsmdD2PK2ogL_9detective8indexers24frax_alpha_mainnet_votes21get_votes_with_params
FNDA:1,_RNvXs_NtNtCsmdD2PK2ogL_9detective8indexers24frax_alpha_mainnet_votesNtB4_28FraxAlphaMainnetVotesIndexerNtNtB8_7indexer7Indexer7process
FNDA:1,_RNCNvNtNtCsmdD2PK2ogL_9detective8indexers24frax_alpha_mainnet_votes9get_votes0B7_
FNDA:1,_RNCNvNtNtCsmdD2PK2ogL_9detective8indexers24frax_alpha_mainnet_votes21get_votes_with_params0B7_
FNDA:1,_RNCNvXs_NtNtCsmdD2PK2ogL_9detective8indexers24frax_alpha_mainnet_votesNtB6_28FraxAlphaMainnetVotesIndexerNtNtBa_7indexer7Indexer7process0Ba_
FNDA:1,_RNCNvNtNtNtCsmdD2PK2ogL_9detective8indexers24frax_alpha_mainnet_votes24frax_alpha_mainnet_votess_20frax_alpha_mainnet_10B9_
FNF:11
FNH:8
DA:27,0
DA:28,0
DA:29,0
DA:38,1
DA:39,1
DA:41,1
DA:43,1
DA:44,1
DA:45,6
DA:46,1
DA:48,1
DA:49,1
DA:50,0
DA:52,1
DA:55,1
DA:56,1
DA:57,1
DA:59,1
DA:60,1
DA:61,1
DA:62,1
DA:63,1
DA:64,1
DA:65,4
DA:66,1
DA:68,1
DA:69,1
DA:70,1
DA:71,1
DA:72,1
DA:73,1
DA:74,1
DA:75,1
DA:77,1
DA:78,36
DA:79,1
DA:81,1
DA:82,0
DA:83,1
DA:85,1
DA:86,1
DA:87,1
DA:88,2
DA:89,0
DA:90,0
DA:91,0
DA:92,0
DA:93,0
DA:94,0
DA:97,1
DA:98,1
DA:99,1
DA:100,1
DA:101,1
DA:102,1
DA:103,1
DA:104,1
DA:106,4
DA:107,3
DA:108,3
DA:109,3
DA:110,36
DA:111,3
DA:112,3
DA:113,3
DA:114,3
DA:115,3
DA:116,3
DA:117,3
DA:118,3
DA:119,3
DA:120,3
DA:121,3
DA:122,3
DA:123,3
DA:124,3
DA:125,3
DA:126,3
DA:127,3
DA:128,3
DA:129,2
DA:130,1
DA:131,0
DA:132,0
DA:134,3
DA:135,3
DA:136,3
DA:137,3
DA:138,3
DA:139,3
DA:140,3
DA:141,3
DA:142,3
DA:146,1
DA:147,1
DA:149,1
DA:150,1
DA:151,1
DA:152,1
DA:153,1
DA:154,1
DA:155,1
DA:156,1
DA:158,1
DA:159,0
DA:160,0
DA:161,0
DA:162,0
DA:163,0
DA:164,0
DA:165,0
DA:166,0
DA:167,0
DA:168,0
DA:169,0
DA:170,0
DA:171,0
DA:172,0
DA:173,0
DA:174,0
DA:175,0
DA:176,0
DA:177,0
DA:178,0
DA:179,0
DA:180,0
DA:181,0
DA:182,0
DA:183,0
DA:184,0
DA:186,0
DA:187,0
DA:188,0
DA:189,0
DA:190,0
DA:191,0
DA:192,0
DA:193,0
DA:194,0
DA:198,1
DA:199,1
DA:211,1
DA:212,1
DA:213,1
DA:214,1
DA:215,1
DA:216,1
DA:217,1
DA:218,1
DA:219,1
DA:220,1
DA:221,1
DA:222,1
DA:223,1
DA:224,1
DA:225,1
DA:226,1
DA:227,1
DA:228,1
DA:229,1
DA:230,1
DA:231,1
DA:232,1
DA:233,1
DA:234,1
DA:235,47
DA:236,1
DA:237,1
DA:238,1
DA:239,1
DA:240,1
DA:241,1
DA:242,1
DA:243,1
DA:244,1
DA:245,1
DA:246,1
DA:247,1
DA:248,1
DA:249,1
DA:250,1
DA:251,1
DA:252,1
DA:253,1
DA:254,1
DA:255,1
DA:256,1
DA:257,1
BRF:0
BRH:0
LF:235
LH:186
end_of_record
SF:/Users/andrei/git/proposalsapp/apps/detective/indexers/frax_omega_mainnet_proposals.rs
FN:92,_RNvXNtNtCsmdD2PK2ogL_9detective8indexers28frax_omega_mainnet_proposalsNtB2_32FraxOmegaMainnetProposalsIndexerNtNtB6_7indexer7Indexer17min_refresh_speed
FN:95,_RNvXNtNtCsmdD2PK2ogL_9detective8indexers28frax_omega_mainnet_proposalsNtB2_32FraxOmegaMainnetProposalsIndexerNtNtB6_7indexer7Indexer17max_refresh_speed
FN:108,_RNCNvNtNtCsmdD2PK2ogL_9detective8indexers28frax_omega_mainnet_proposals17data_for_proposal0B7_
FN:36,_RNCNvXNtNtCsmdD2PK2ogL_9detective8indexers28frax_omega_mainnet_proposalsNtB4_32FraxOmegaMainnetProposalsIndexerNtNtB8_7indexer7Indexer7process0B8_
FN:77,_RNCNCNvXNtNtCsmdD2PK2ogL_9detective8indexers28frax_omega_mainnet_proposalsNtB6_32FraxOmegaMainnetProposalsIndexerNtNtBa_7indexer7Indexer7process00Ba_
FN:83,_RNCNCNvXNtNtCsmdD2PK2ogL_9detective8indexers28frax_omega_mainnet_proposalsNtB6_32FraxOmegaMainnetProposalsIndexerNtNtBa_7indexer7Indexer7process0s_0Ba_
FN:244,_RNCNvNtNtNtCsmdD2PK2ogL_9detective8indexers28frax_omega_mainnet_proposals28frax_omega_mainnet_proposalss_12frax_omega_10B9_
FN:244,_RNvNtNtNtCsmdD2PK2ogL_9detective8indexers28frax_omega_mainnet_proposals28frax_omega_mainnet_proposalss_12frax_omega_1
FN:100,_RNvNtNtCsmdD2PK2ogL_9detective8indexers28frax_omega_mainnet_proposals17data_for_proposal
FN:91,_RNvXNtNtCsmdD2PK2ogL_9detective8indexers28frax_omega_mainnet_proposalsNtB2_32FraxOmegaMainnetProposalsIndexerNtNtB6_7indexer7Indexer7process
FNDA:0,_RNvXNtNtCsmdD2PK2ogL_9detective8indexers28frax_omega_mainnet_proposalsNtB2_32FraxOmegaMainnetProposalsIndexerNtNtB6_7indexer7Indexer17min_refresh_speed
FNDA:0,_RNvXNtNtCsmdD2PK2ogL_9detective8indexers28frax_omega_mainnet_proposalsNtB2_32FraxOmegaMainnetProposalsIndexerNtNtB6_7indexer7Indexer17max_refresh_speed
FNDA:1,_RNCNvNtNtCsmdD2PK2ogL_9detective8indexers28frax_omega_mainnet_proposals17data_for_proposal0B7_
FNDA:1,_RNCNvXNtNtCsmdD2PK2ogL_9detective8indexers28frax_omega_mainnet_proposalsNtB4_32FraxOmegaMainnetProposalsIndexerNtNtB8_7indexer7Indexer7process0B8_
FNDA:1,_RNCNCNvXNtNtCsmdD2PK2ogL_9detective8indexers28frax_omega_mainnet_proposalsNtB6_32FraxOmegaMainnetProposalsIndexerNtNtBa_7indexer7Indexer7process00Ba_
FNDA:0,_RNCNCNvXNtNtCsmdD2PK2ogL_9detective8indexers28frax_omega_mainnet_proposalsNtB6_32FraxOmegaMainnetProposalsIndexerNtNtBa_7indexer7Indexer7process0s_0Ba_
FNDA:1,_RNCNvNtNtNtCsmdD2PK2ogL_9detective8indexers28frax_omega_mainnet_proposals28frax_omega_mainnet_proposalss_12frax_omega_10B9_
FNDA:1,_RNvNtNtNtCsmdD2PK2ogL_9detective8indexers28frax_omega_mainnet_proposals28frax_omega_mainnet_proposalss_12frax_omega_1
FNDA:1,_RNvNtNtCsmdD2PK2ogL_9detective8indexers28frax_omega_mainnet_proposals17data_for_proposal
FNDA:1,_RNvXNtNtCsmdD2PK2ogL_9detective8indexers28frax_omega_mainnet_proposalsNtB2_32FraxOmegaMainnetProposalsIndexerNtNtB6_7indexer7Indexer7process
FNF:10
FNH:7
DA:36,1
DA:37,1
DA:39,1
DA:41,1
DA:42,1
DA:43,6
DA:44,1
DA:46,1
DA:47,1
DA:48,0
DA:50,1
DA:53,1
DA:54,1
DA:55,1
DA:57,1
DA:58,1
DA:59,1
DA:60,1
DA:61,1
DA:62,1
DA:63,3
DA:64,1
DA:66,1
DA:68,1
DA:69,1
DA:70,13
DA:71,1
DA:72,1
DA:75,1
DA:76,1
DA:77,1
DA:78,1
DA:79,1
DA:82,1
DA:83,1
DA:84,0
DA:85,0
DA:86,1
DA:87,1
DA:88,1
DA:89,1
DA:90,1
DA:91,2
DA:92,0
DA:93,0
DA:94,0
DA:95,0
DA:96,0
DA:97,0
DA:100,1
DA:101,1
DA:102,1
DA:103,1
DA:104,1
DA:105,1
DA:106,1
DA:107,1
DA:108,1
DA:109,1
DA:111,1
DA:112,1
DA:113,10
DA:114,1
DA:115,1
DA:116,1
DA:117,1
DA:118,1
DA:119,1
DA:120,1
DA:121,1
DA:122,1
DA:123,1
DA:124,1
DA:125,1
DA:126,1
DA:127,1
DA:128,1
DA:129,1
DA:130,1
DA:131,1
DA:132,1
DA:133,1
DA:134,1
DA:135,1
DA:136,1
DA:137,1
DA:138,1
DA:139,1
DA:140,1
DA:141,1
DA:142,1
DA:143,1
DA:144,1
DA:145,0
DA:146,1
DA:148,1
DA:149,1
DA:150,0
DA:152,1
DA:153,1
DA:154,1
DA:156,1
DA:157,1
DA:158,1
DA:159,1
DA:160,1
DA:162,1
DA:163,1
DA:164,1
DA:165,1
DA:166,1
DA:167,1
DA:168,1
DA:170,1
DA:171,1
DA:172,1
DA:173,1
DA:174,1
DA:176,1
DA:177,1
DA:178,1
DA:179,1
DA:180,1
DA:182,1
DA:183,1
DA:184,1
DA:185,1
DA:186,1
DA:189,1
DA:190,0
DA:191,0
DA:192,1
DA:193,0
DA:194,0
DA:195,0
DA:196,0
DA:197,0
DA:198,0
DA:201,1
DA:202,1
DA:203,1
DA:204,1
DA:205,1
DA:206,1
DA:207,1
DA:208,1
DA:209,1
DA:210,1
DA:211,1
DA:212,1
DA:213,1
DA:214,1
DA:215,1
DA:216,1
DA:217,1
DA:218,1
DA:219,1
DA:220,1
DA:221,1
DA:222,1
DA:223,1
DA:224,1
DA:225,1
DA:226,1
DA:227,1
DA:228,1
DA:229,1
DA:230,1
DA:231,1
DA:232,1
DA:244,1
DA:245,1
DA:246,1
DA:247,1
DA:248,1
DA:249,1
DA:250,1
DA:251,1
DA:252,1
DA:253,1
DA:254,1
DA:255,1
DA:256,1
DA:257,1
DA:258,1
DA:259,1
DA:260,1
DA:261,1
DA:262,1
DA:263,1
DA:264,1
DA:265,1
DA:266,1
DA:267,1
DA:268,1
DA:269,1
DA:270,22
DA:271,1
DA:272,1
DA:273,1
DA:274,1
DA:275,1
DA:276,1
DA:277,1
DA:278,1
DA:279,1
DA:280,1
DA:281,1
DA:282,1
DA:283,1
DA:284,1
DA:285,1
DA:286,1
DA:287,1
DA:288,1
DA:289,1
DA:290,1
DA:291,1
DA:292,1
DA:293,1
DA:294,1
DA:295,1
DA:296,1
DA:297,1
DA:298,1
DA:299,1
DA:300,1
DA:301,1
BRF:0
BRH:0
LF:288
LH:266
end_of_record
SF:/Users/andrei/git/proposalsapp/apps/detective/indexers/frax_omega_mainnet_votes.rs
FN:27,_RNvMNtNtCsmdD2PK2ogL_9detective8indexers24frax_omega_mainnet_votesNtB2_28FraxOmegaMainnetVotesIndexer24proposal_indexer_variant
FN:89,_RNvXs_NtNtCsmdD2PK2ogL_9detective8indexers24frax_omega_mainnet_votesNtB4_28FraxOmegaMainnetVotesIndexerNtNtB8_7indexer7Indexer17min_refresh_speed
FN:92,_RNvXs_NtNtCsmdD2PK2ogL_9detective8indexers24frax_omega_mainnet_votesNtB4_28FraxOmegaMainnetVotesIndexerNtNtB8_7indexer7Indexer17max_refresh_speed
FN:211,_RNCNvNtNtNtCsmdD2PK2ogL_9detective8indexers24frax_omega_mainnet_votes24frax_omega_mainnet_votess_20frax_omega_mainnet_10B9_
FN:211,_RNvNtNtNtCsmdD2PK2ogL_9detective8indexers24frax_omega_mainnet_votes24frax_omega_mainnet_votess_20frax_omega_mainnet_1
FN:101,_RNCNvNtNtCsmdD2PK2ogL_9detective8indexers24frax_omega_mainnet_votes9get_votes0B7_
FN:153,_RNCNvNtNtCsmdD2PK2ogL_9detective8indexers24frax_omega_mainnet_votes21get_votes_with_params0B7_
FN:38,_RNCNvXs_NtNtCsmdD2PK2ogL_9detective8indexers24frax_omega_mainnet_votesNtB6_28FraxOmegaMainnetVotesIndexerNtNtBa_7indexer7Indexer7process0Ba_
FN:97,_RNvNtNtCsmdD2PK2ogL_9detective8indexers24frax_omega_mainnet_votes9get_votes
FN:149,_RNvNtNtCsmdD2PK2ogL_9detective8indexers24frax_omega_mainnet_votes21get_votes_with_params
FN:88,_RNvXs_NtNtCsmdD2PK2ogL_9detective8indexers24frax_omega_mainnet_votesNtB4_28FraxOmegaMainnetVotesIndexerNtNtB8_7indexer7Indexer7process
FNDA:0,_RNvMNtNtCsmdD2PK2ogL_9detective8indexers24frax_omega_mainnet_votesNtB2_28FraxOmegaMainnetVotesIndexer24proposal_indexer_variant
FNDA:0,_RNvXs_NtNtCsmdD2PK2ogL_9detective8indexers24frax_omega_mainnet_votesNtB4_28FraxOmegaMainnetVotesIndexerNtNtB8_7indexer7Indexer17min_refresh_speed
FNDA:0,_RNvXs_NtNtCsmdD2PK2ogL_9detective8indexers24frax_omega_mainnet_votesNtB4_28FraxOmegaMainnetVotesIndexerNtNtB8_7indexer7Indexer17max_refresh_speed
FNDA:1,_RNCNvNtNtNtCsmdD2PK2ogL_9detective8indexers24frax_omega_mainnet_votes24frax_omega_mainnet_votess_20frax_omega_mainnet_10B9_
FNDA:1,_RNvNtNtNtCsmdD2PK2ogL_9detective8indexers24frax_omega_mainnet_votes24frax_omega_mainnet_votess_20frax_omega_mainnet_1
FNDA:1,_RNCNvNtNtCsmdD2PK2ogL_9detective8indexers24frax_omega_mainnet_votes9get_votes0B7_
FNDA:1,_RNCNvNtNtCsmdD2PK2ogL_9detective8indexers24frax_omega_mainnet_votes21get_votes_with_params0B7_
FNDA:1,_RNCNvXs_NtNtCsmdD2PK2ogL_9detective8indexers24frax_omega_mainnet_votesNtB6_28FraxOmegaMainnetVotesIndexerNtNtBa_7indexer7Indexer7process0Ba_
FNDA:1,_RNvNtNtCsmdD2PK2ogL_9detective8indexers24frax_omega_mainnet_votes9get_votes
FNDA:1,_RNvNtNtCsmdD2PK2ogL_9detective8indexers24frax_omega_mainnet_votes21get_votes_with_params
FNDA:1,_RNvXs_NtNtCsmdD2PK2ogL_9detective8indexers24frax_omega_mainnet_votesNtB4_28FraxOmegaMainnetVotesIndexerNtNtB8_7indexer7Indexer7process
FNF:11
FNH:8
DA:27,0
DA:28,0
DA:29,0
DA:38,1
DA:39,1
DA:41,1
DA:43,1
DA:44,1
DA:45,6
DA:46,1
DA:48,1
DA:49,1
DA:50,0
DA:52,1
DA:55,1
DA:56,1
DA:57,1
DA:59,1
DA:60,1
DA:61,1
DA:62,1
DA:63,1
DA:64,1
DA:65,2
DA:66,1
DA:68,1
DA:69,1
DA:70,1
DA:71,1
DA:72,1
DA:73,1
DA:74,1
DA:75,1
DA:77,1
DA:78,12
DA:79,1
DA:81,1
DA:82,0
DA:83,1
DA:85,1
DA:86,1
DA:87,1
DA:88,2
DA:89,0
DA:90,0
DA:91,0
DA:92,0
DA:93,0
DA:94,0
DA:97,1
DA:98,1
DA:99,1
DA:100,1
DA:101,1
DA:102,1
DA:103,1
DA:104,1
DA:106,2
DA:107,1
DA:108,1
DA:109,1
DA:110,12
DA:111,1
DA:112,1
DA:113,1
DA:114,1
DA:115,1
DA:116,1
DA:117,1
DA:118,1
DA:119,1
DA:120,1
DA:121,1
DA:122,1
DA:123,1
DA:124,1
DA:125,1
DA:126,1
DA:127,1
DA:128,1
DA:129,0
DA:130,1
DA:131,0
DA:132,0
DA:134,1
DA:135,1
DA:136,1
DA:137,1
DA:138,1
DA:139,1
DA:140,1
DA:141,1
DA:142,1
DA:146,1
DA:147,1
DA:149,1
DA:150,1
DA:151,1
DA:152,1
DA:153,1
DA:154,1
DA:155,1
DA:156,1
DA:158,1
DA:159,0
DA:160,0
DA:161,0
DA:162,0
DA:163,0
DA:164,0
DA:165,0
DA:166,0
DA:167,0
DA:168,0
DA:169,0
DA:170,0
DA:171,0
DA:172,0
DA:173,0
DA:174,0
DA:175,0
DA:176,0
DA:177,0
DA:178,0
DA:179,0
DA:180,0
DA:181,0
DA:182,0
DA:183,0
DA:184,0
DA:186,0
DA:187,0
DA:188,0
DA:189,0
DA:190,0
DA:191,0
DA:192,0
DA:193,0
DA:194,0
DA:198,1
DA:199,1
DA:211,1
DA:212,1
DA:213,1
DA:214,1
DA:215,1
DA:216,1
DA:217,1
DA:218,1
DA:219,1
DA:220,1
DA:221,1
DA:222,1
DA:223,1
DA:224,1
DA:225,1
DA:226,1
DA:227,1
DA:228,1
DA:229,1
DA:230,1
DA:231,1
DA:232,1
DA:233,1
DA:234,1
DA:235,21
DA:236,1
DA:237,1
DA:238,1
DA:239,1
DA:240,1
DA:241,1
DA:242,1
DA:243,1
DA:244,1
DA:245,1
DA:246,1
DA:247,1
DA:248,1
DA:249,1
DA:250,1
DA:251,1
DA:252,1
DA:253,1
DA:254,1
DA:255,1
DA:256,1
DA:257,1
BRF:0
BRH:0
LF:235
LH:185
end_of_record
SF:/Users/andrei/git/proposalsapp/apps/detective/indexers/gitcoin_v1_mainnet_proposals.rs
FN:93,_RNvXNtNtCsmdD2PK2ogL_9detective8indexers28gitcoin_v1_mainnet_proposalsNtB2_32GitcoinV1MainnetProposalsIndexerNtNtB6_7indexer7Indexer17min_refresh_speed
FN:96,_RNvXNtNtCsmdD2PK2ogL_9detective8indexers28gitcoin_v1_mainnet_proposalsNtB2_32GitcoinV1MainnetProposalsIndexerNtNtB6_7indexer7Indexer17max_refresh_speed
FN:109,_RNCNvNtNtCsmdD2PK2ogL_9detective8indexers28gitcoin_v1_mainnet_proposals17data_for_proposal0B7_
FN:37,_RNCNvXNtNtCsmdD2PK2ogL_9detective8indexers28gitcoin_v1_mainnet_proposalsNtB4_32GitcoinV1MainnetProposalsIndexerNtNtB8_7indexer7Indexer7process0B8_
FN:78,_RNCNCNvXNtNtCsmdD2PK2ogL_9detective8indexers28gitcoin_v1_mainnet_proposalsNtB6_32GitcoinV1MainnetProposalsIndexerNtNtBa_7indexer7Indexer7process00Ba_
FN:84,_RNCNCNvXNtNtCsmdD2PK2ogL_9detective8indexers28gitcoin_v1_mainnet_proposalsNtB6_32GitcoinV1MainnetProposalsIndexerNtNtBa_7indexer7Indexer7process0s_0Ba_
FN:274,_RNvNtNtNtCsmdD2PK2ogL_9detective8indexers28gitcoin_v1_mainnet_proposals27gitcoin_1_mainnet_proposalss_9gitcoin_1
FN:274,_RNCNvNtNtNtCsmdD2PK2ogL_9detective8indexers28gitcoin_v1_mainnet_proposals27gitcoin_1_mainnet_proposalss_9gitcoin_10B9_
FN:101,_RNvNtNtCsmdD2PK2ogL_9detective8indexers28gitcoin_v1_mainnet_proposals17data_for_proposal
FN:92,_RNvXNtNtCsmdD2PK2ogL_9detective8indexers28gitcoin_v1_mainnet_proposalsNtB2_32GitcoinV1MainnetProposalsIndexerNtNtB6_7indexer7Indexer7process
FNDA:0,_RNvXNtNtCsmdD2PK2ogL_9detective8indexers28gitcoin_v1_mainnet_proposalsNtB2_32GitcoinV1MainnetProposalsIndexerNtNtB6_7indexer7Indexer17min_refresh_speed
FNDA:0,_RNvXNtNtCsmdD2PK2ogL_9detective8indexers28gitcoin_v1_mainnet_proposalsNtB2_32GitcoinV1MainnetProposalsIndexerNtNtB6_7indexer7Indexer17max_refresh_speed
FNDA:1,_RNCNvNtNtCsmdD2PK2ogL_9detective8indexers28gitcoin_v1_mainnet_proposals17data_for_proposal0B7_
FNDA:1,_RNCNvXNtNtCsmdD2PK2ogL_9detective8indexers28gitcoin_v1_mainnet_proposalsNtB4_32GitcoinV1MainnetProposalsIndexerNtNtB8_7indexer7Indexer7process0B8_
FNDA:1,_RNCNCNvXNtNtCsmdD2PK2ogL_9detective8indexers28gitcoin_v1_mainnet_proposalsNtB6_32GitcoinV1MainnetProposalsIndexerNtNtBa_7indexer7Indexer7process00Ba_
FNDA:0,_RNCNCNvXNtNtCsmdD2PK2ogL_9detective8indexers28gitcoin_v1_mainnet_proposalsNtB6_32GitcoinV1MainnetProposalsIndexerNtNtBa_7indexer7Indexer7process0s_0Ba_
FNDA:1,_RNvNtNtNtCsmdD2PK2ogL_9detective8indexers28gitcoin_v1_mainnet_proposals27gitcoin_1_mainnet_proposalss_9gitcoin_1
FNDA:1,_RNCNvNtNtNtCsmdD2PK2ogL_9detective8indexers28gitcoin_v1_mainnet_proposals27gitcoin_1_mainnet_proposalss_9gitcoin_10B9_
FNDA:1,_RNvNtNtCsmdD2PK2ogL_9detective8indexers28gitcoin_v1_mainnet_proposals17data_for_proposal
FNDA:1,_RNvXNtNtCsmdD2PK2ogL_9detective8indexers28gitcoin_v1_mainnet_proposalsNtB2_32GitcoinV1MainnetProposalsIndexerNtNtB6_7indexer7Indexer7process
FNF:10
FNH:7
DA:37,1
DA:38,1
DA:40,1
DA:42,1
DA:43,1
DA:44,6
DA:45,1
DA:47,1
DA:48,1
DA:49,0
DA:51,1
DA:54,1
DA:55,1
DA:56,1
DA:58,1
DA:59,1
DA:60,1
DA:61,1
DA:62,1
DA:63,1
DA:64,6
DA:65,1
DA:67,1
DA:69,1
DA:70,1
DA:71,191
DA:72,1
DA:73,1
DA:76,1
DA:77,1
DA:78,1
DA:79,1
DA:80,1
DA:83,1
DA:84,1
DA:85,0
DA:86,0
DA:87,1
DA:88,1
DA:89,1
DA:90,1
DA:91,1
DA:92,2
DA:93,0
DA:94,0
DA:95,0
DA:96,0
DA:97,0
DA:98,0
DA:101,1
DA:102,1
DA:103,1
DA:104,1
DA:105,1
DA:106,1
DA:107,1
DA:108,1
DA:109,1
DA:110,1
DA:112,1
DA:113,1
DA:114,12
DA:115,1
DA:116,1
DA:117,1
DA:118,1
DA:119,1
DA:120,1
DA:121,1
DA:122,1
DA:124,85
DA:125,1
DA:127,0
DA:128,0
DA:129,0
DA:130,0
DA:131,0
DA:132,0
DA:133,0
DA:134,0
DA:135,0
DA:138,0
DA:139,0
DA:143,91
DA:144,1
DA:146,0
DA:147,0
DA:148,0
DA:149,0
DA:150,0
DA:151,0
DA:152,0
DA:153,0
DA:154,0
DA:157,0
DA:158,0
DA:162,1
DA:163,1
DA:164,1
DA:165,1
DA:166,1
DA:167,1
DA:168,1
DA:169,1
DA:170,1
DA:171,1
DA:172,1
DA:173,1
DA:174,1
DA:176,1
DA:177,0
DA:178,1
DA:180,1
DA:181,1
DA:182,1
DA:183,1
DA:184,1
DA:186,1
DA:187,1
DA:188,1
DA:189,1
DA:190,1
DA:192,1
DA:193,1
DA:194,1
DA:195,1
DA:196,1
DA:197,1
DA:198,1
DA:199,1
DA:200,1
DA:201,1
DA:203,1
DA:204,1
DA:205,1
DA:206,1
DA:207,1
DA:209,1
DA:210,1
DA:212,1
DA:213,1
DA:214,1
DA:215,1
DA:216,1
DA:219,1
DA:220,0
DA:221,0
DA:222,0
DA:223,0
DA:224,0
DA:225,0
DA:226,0
DA:227,1
DA:228,0
DA:231,1
DA:232,1
DA:233,1
DA:234,1
DA:235,1
DA:236,1
DA:237,1
DA:238,1
DA:239,1
DA:240,1
DA:241,1
DA:242,1
DA:243,1
DA:244,1
DA:245,1
DA:246,1
DA:247,1
DA:248,1
DA:249,1
DA:250,1
DA:251,1
DA:252,1
DA:253,1
DA:254,1
DA:255,1
DA:256,1
DA:257,1
DA:258,1
DA:259,1
DA:260,1
DA:261,1
DA:262,1
DA:274,1
DA:275,1
DA:276,1
DA:277,1
DA:278,1
DA:279,1
DA:280,1
DA:281,1
DA:282,1
DA:283,1
DA:284,1
DA:285,1
DA:286,1
DA:287,1
DA:288,1
DA:289,1
DA:290,1
DA:291,1
DA:292,1
DA:293,1
DA:294,1
DA:295,1
DA:296,1
DA:297,1
DA:298,1
DA:299,1
DA:300,203
DA:301,1
DA:302,1
DA:303,1
DA:304,1
DA:305,1
DA:306,1
DA:307,1
DA:308,1
DA:309,1
DA:310,1
DA:311,1
DA:312,1
DA:313,1
DA:314,1
DA:315,1
DA:316,1
DA:317,1
DA:318,1
DA:319,1
DA:320,1
DA:321,1
DA:322,1
DA:323,1
DA:324,1
DA:325,1
DA:326,1
DA:327,1
DA:328,1
DA:329,1
DA:330,1
DA:331,1
DA:332,1
DA:333,1
BRF:0
BRH:0
LF:308
LH:265
end_of_record
SF:/Users/andrei/git/proposalsapp/apps/detective/indexers/gitcoin_v1_mainnet_votes.rs
FN:28,_RNvMNtNtCsmdD2PK2ogL_9detective8indexers24gitcoin_v1_mainnet_votesNtB2_28GitcoinV1MainnetVotesIndexer24proposal_indexer_variant
FN:75,_RNvXs_NtNtCsmdD2PK2ogL_9detective8indexers24gitcoin_v1_mainnet_votesNtB4_28GitcoinV1MainnetVotesIndexerNtNtB8_7indexer7Indexer17min_refresh_speed
FN:78,_RNvXs_NtNtCsmdD2PK2ogL_9detective8indexers24gitcoin_v1_mainnet_votesNtB4_28GitcoinV1MainnetVotesIndexerNtNtB8_7indexer7Indexer17max_refresh_speed
FN:143,_RNvNtNtNtCsmdD2PK2ogL_9detective8indexers24gitcoin_v1_mainnet_votes24gitcoin_v1_mainnet_votess_20gitcoin_v1_mainnet_1
FN:83,_RNvNtNtCsmdD2PK2ogL_9detective8indexers24gitcoin_v1_mainnet_votes9get_votes
FN:74,_RNvXs_NtNtCsmdD2PK2ogL_9detective8indexers24gitcoin_v1_mainnet_votesNtB4_28GitcoinV1MainnetVotesIndexerNtNtB8_7indexer7Indexer7process
FN:143,_RNCNvNtNtNtCsmdD2PK2ogL_9detective8indexers24gitcoin_v1_mainnet_votes24gitcoin_v1_mainnet_votess_20gitcoin_v1_mainnet_10B9_
FN:87,_RNCNvNtNtCsmdD2PK2ogL_9detective8indexers24gitcoin_v1_mainnet_votes9get_votes0B7_
FN:39,_RNCNvXs_NtNtCsmdD2PK2ogL_9detective8indexers24gitcoin_v1_mainnet_votesNtB6_28GitcoinV1MainnetVotesIndexerNtNtBa_7indexer7Indexer7process0Ba_
FNDA:0,_RNvMNtNtCsmdD2PK2ogL_9detective8indexers24gitcoin_v1_mainnet_votesNtB2_28GitcoinV1MainnetVotesIndexer24proposal_indexer_variant
FNDA:0,_RNvXs_NtNtCsmdD2PK2ogL_9detective8indexers24gitcoin_v1_mainnet_votesNtB4_28GitcoinV1MainnetVotesIndexerNtNtB8_7indexer7Indexer17min_refresh_speed
FNDA:0,_RNvXs_NtNtCsmdD2PK2ogL_9detective8indexers24gitcoin_v1_mainnet_votesNtB4_28GitcoinV1MainnetVotesIndexerNtNtB8_7indexer7Indexer17max_refresh_speed
FNDA:1,_RNvNtNtNtCsmdD2PK2ogL_9detective8indexers24gitcoin_v1_mainnet_votes24gitcoin_v1_mainnet_votess_20gitcoin_v1_mainnet_1
FNDA:1,_RNvNtNtCsmdD2PK2ogL_9detective8indexers24gitcoin_v1_mainnet_votes9get_votes
FNDA:1,_RNvXs_NtNtCsmdD2PK2ogL_9detective8indexers24gitcoin_v1_mainnet_votesNtB4_28GitcoinV1MainnetVotesIndexerNtNtB8_7indexer7Indexer7process
FNDA:1,_RNCNvNtNtNtCsmdD2PK2ogL_9detective8indexers24gitcoin_v1_mainnet_votes24gitcoin_v1_mainnet_votess_20gitcoin_v1_mainnet_10B9_
FNDA:1,_RNCNvNtNtCsmdD2PK2ogL_9detective8indexers24gitcoin_v1_mainnet_votes9get_votes0B7_
FNDA:1,_RNCNvXs_NtNtCsmdD2PK2ogL_9detective8indexers24gitcoin_v1_mainnet_votesNtB6_28GitcoinV1MainnetVotesIndexerNtNtBa_7indexer7Indexer7process0Ba_
FNF:9
FNH:6
DA:28,0
DA:29,0
DA:30,0
DA:39,1
DA:40,1
DA:42,1
DA:44,1
DA:45,1
DA:46,6
DA:47,1
DA:49,1
DA:50,1
DA:51,0
DA:53,1
DA:56,1
DA:57,1
DA:58,1
DA:60,1
DA:61,1
DA:62,1
DA:63,1
DA:64,1
DA:65,1
DA:66,1
DA:67,1
DA:69,1
DA:70,12
DA:71,1
DA:73,1
DA:74,2
DA:75,0
DA:76,0
DA:77,0
DA:78,0
DA:79,0
DA:80,0
DA:83,1
DA:84,1
DA:85,1
DA:86,1
DA:87,1
DA:88,1
DA:89,1
DA:90,1
DA:92,2
DA:93,1
DA:94,1
DA:95,1
DA:96,12
DA:97,1
DA:98,1
DA:99,1
DA:100,1
DA:101,1
DA:102,1
DA:103,1
DA:104,1
DA:105,1
DA:106,1
DA:107,1
DA:108,1
DA:109,1
DA:110,1
DA:111,1
DA:112,1
DA:113,1
DA:114,1
DA:115,1
DA:116,0
DA:118,1
DA:119,1
DA:120,1
DA:121,1
DA:122,1
DA:123,1
DA:124,1
DA:125,1
DA:126,1
DA:130,1
DA:131,1
DA:143,1
DA:144,1
DA:145,1
DA:146,1
DA:147,1
DA:148,1
DA:149,1
DA:150,1
DA:151,1
DA:152,1
DA:153,1
DA:154,1
DA:155,1
DA:156,1
DA:157,1
DA:158,1
DA:159,1
DA:160,1
DA:161,1
DA:162,1
DA:163,1
DA:164,1
DA:165,1
DA:166,1
DA:167,19
DA:168,1
DA:169,1
DA:170,1
DA:171,1
DA:172,1
DA:173,1
DA:174,1
DA:175,1
DA:176,1
DA:177,1
DA:178,1
DA:179,1
DA:180,1
DA:181,1
DA:182,1
DA:183,1
DA:184,1
DA:185,1
DA:186,1
DA:187,1
DA:188,1
DA:189,1
BRF:0
BRH:0
LF:173
LH:161
end_of_record
SF:/Users/andrei/git/proposalsapp/apps/detective/indexers/gitcoin_v2_mainnet_proposals.rs
FN:93,_RNvXNtNtCsmdD2PK2ogL_9detective8indexers28gitcoin_v2_mainnet_proposalsNtB2_32GitcoinV2MainnetProposalsIndexerNtNtB6_7indexer7Indexer17min_refresh_speed
FN:96,_RNvXNtNtCsmdD2PK2ogL_9detective8indexers28gitcoin_v2_mainnet_proposalsNtB2_32GitcoinV2MainnetProposalsIndexerNtNtB6_7indexer7Indexer17max_refresh_speed
FN:109,_RNCNvNtNtCsmdD2PK2ogL_9detective8indexers28gitcoin_v2_mainnet_proposals17data_for_proposal0B7_
FN:37,_RNCNvXNtNtCsmdD2PK2ogL_9detective8indexers28gitcoin_v2_mainnet_proposalsNtB4_32GitcoinV2MainnetProposalsIndexerNtNtB8_7indexer7Indexer7process0B8_
FN:78,_RNCNCNvXNtNtCsmdD2PK2ogL_9detective8indexers28gitcoin_v2_mainnet_proposalsNtB6_32GitcoinV2MainnetProposalsIndexerNtNtBa_7indexer7Indexer7process00Ba_
FN:84,_RNCNCNvXNtNtCsmdD2PK2ogL_9detective8indexers28gitcoin_v2_mainnet_proposalsNtB6_32GitcoinV2MainnetProposalsIndexerNtNtBa_7indexer7Indexer7process0s_0Ba_
FN:101,_RNvNtNtCsmdD2PK2ogL_9detective8indexers28gitcoin_v2_mainnet_proposals17data_for_proposal
FN:92,_RNvXNtNtCsmdD2PK2ogL_9detective8indexers28gitcoin_v2_mainnet_proposalsNtB2_32GitcoinV2MainnetProposalsIndexerNtNtB6_7indexer7Indexer7process
FN:279,_RNCNvNtNtNtCsmdD2PK2ogL_9detective8indexers28gitcoin_v2_mainnet_proposals27gitcoin_2_mainnet_proposalss_9gitcoin_20B9_
FN:279,_RNvNtNtNtCsmdD2PK2ogL_9detective8indexers28gitcoin_v2_mainnet_proposals27gitcoin_2_mainnet_proposalss_9gitcoin_2
FNDA:0,_RNvXNtNtCsmdD2PK2ogL_9detective8indexers28gitcoin_v2_mainnet_proposalsNtB2_32GitcoinV2MainnetProposalsIndexerNtNtB6_7indexer7Indexer17min_refresh_speed
FNDA:0,_RNvXNtNtCsmdD2PK2ogL_9detective8indexers28gitcoin_v2_mainnet_proposalsNtB2_32GitcoinV2MainnetProposalsIndexerNtNtB6_7indexer7Indexer17max_refresh_speed
FNDA:1,_RNCNvNtNtCsmdD2PK2ogL_9detective8indexers28gitcoin_v2_mainnet_proposals17data_for_proposal0B7_
FNDA:1,_RNCNvXNtNtCsmdD2PK2ogL_9detective8indexers28gitcoin_v2_mainnet_proposalsNtB4_32GitcoinV2MainnetProposalsIndexerNtNtB8_7indexer7Indexer7process0B8_
FNDA:1,_RNCNCNvXNtNtCsmdD2PK2ogL_9detective8indexers28gitcoin_v2_mainnet_proposalsNtB6_32GitcoinV2MainnetProposalsIndexerNtNtBa_7indexer7Indexer7process00Ba_
FNDA:0,_RNCNCNvXNtNtCsmdD2PK2ogL_9detective8indexers28gitcoin_v2_mainnet_proposalsNtB6_32GitcoinV2MainnetProposalsIndexerNtNtBa_7indexer7Indexer7process0s_0Ba_
FNDA:1,_RNvNtNtCsmdD2PK2ogL_9detective8indexers28gitcoin_v2_mainnet_proposals17data_for_proposal
FNDA:1,_RNvXNtNtCsmdD2PK2ogL_9detective8indexers28gitcoin_v2_mainnet_proposalsNtB2_32GitcoinV2MainnetProposalsIndexerNtNtB6_7indexer7Indexer7process
FNDA:1,_RNCNvNtNtNtCsmdD2PK2ogL_9detective8indexers28gitcoin_v2_mainnet_proposals27gitcoin_2_mainnet_proposalss_9gitcoin_20B9_
FNDA:1,_RNvNtNtNtCsmdD2PK2ogL_9detective8indexers28gitcoin_v2_mainnet_proposals27gitcoin_2_mainnet_proposalss_9gitcoin_2
FNF:10
FNH:7
DA:37,1
DA:38,1
DA:40,1
DA:42,1
DA:43,1
DA:44,6
DA:45,1
DA:47,1
DA:48,1
DA:49,0
DA:51,1
DA:54,1
DA:55,1
DA:56,1
DA:58,1
DA:59,1
DA:60,1
DA:61,1
DA:62,1
DA:63,1
DA:64,5
DA:65,1
DA:67,1
DA:69,1
DA:70,1
DA:71,223
DA:72,1
DA:73,1
DA:76,1
DA:77,1
DA:78,1
DA:79,1
DA:80,1
DA:83,1
DA:84,1
DA:85,0
DA:86,0
DA:87,1
DA:88,1
DA:89,1
DA:90,1
DA:91,1
DA:92,2
DA:93,0
DA:94,0
DA:95,0
DA:96,0
DA:97,0
DA:98,0
DA:101,1
DA:102,1
DA:103,1
DA:104,1
DA:105,1
DA:106,1
DA:107,1
DA:108,1
DA:109,1
DA:110,1
DA:112,1
DA:113,1
DA:114,12
DA:115,1
DA:116,1
DA:117,1
DA:118,1
DA:119,1
DA:120,1
DA:121,1
DA:122,1
DA:124,118
DA:125,1
DA:127,0
DA:128,0
DA:129,0
DA:130,0
DA:131,0
DA:132,0
DA:133,0
DA:134,0
DA:135,0
DA:138,0
DA:139,0
DA:143,90
DA:144,1
DA:146,0
DA:147,0
DA:148,0
DA:149,0
DA:150,0
DA:151,0
DA:152,0
DA:153,0
DA:154,0
DA:157,0
DA:158,0
DA:162,1
DA:163,1
DA:164,1
DA:165,1
DA:166,1
DA:167,1
DA:168,1
DA:169,1
DA:170,1
DA:171,1
DA:172,1
DA:173,1
DA:174,1
DA:176,1
DA:177,0
DA:178,1
DA:180,1
DA:181,1
DA:182,1
DA:183,1
DA:184,1
DA:185,1
DA:186,1
DA:187,1
DA:188,1
DA:189,1
DA:191,1
DA:192,1
DA:193,1
DA:194,1
DA:195,1
DA:197,1
DA:198,1
DA:199,1
DA:200,1
DA:201,1
DA:202,1
DA:203,1
DA:204,1
DA:205,1
DA:206,1
DA:208,1
DA:209,1
DA:210,1
DA:211,1
DA:212,1
DA:214,1
DA:215,1
DA:217,1
DA:218,1
DA:219,1
DA:220,1
DA:221,1
DA:224,1
DA:225,0
DA:226,0
DA:227,0
DA:228,0
DA:229,0
DA:230,0
DA:231,0
DA:232,1
DA:233,0
DA:236,1
DA:237,1
DA:238,1
DA:239,1
DA:240,1
DA:241,1
DA:242,1
DA:243,1
DA:244,1
DA:245,1
DA:246,1
DA:247,1
DA:248,1
DA:249,1
DA:250,1
DA:251,1
DA:252,1
DA:253,1
DA:254,1
DA:255,1
DA:256,1
DA:257,1
DA:258,1
DA:259,1
DA:260,1
DA:261,1
DA:262,1
DA:263,1
DA:264,1
DA:265,1
DA:266,1
DA:267,1
DA:279,1
DA:280,1
DA:281,1
DA:282,1
DA:283,1
DA:284,1
DA:285,1
DA:286,1
DA:287,1
DA:288,1
DA:289,1
DA:290,1
DA:291,1
DA:292,1
DA:293,1
DA:294,1
DA:295,1
DA:296,1
DA:297,1
DA:298,1
DA:299,1
DA:300,1
DA:301,1
DA:302,1
DA:303,1
DA:304,1
DA:305,234
DA:306,1
DA:307,1
DA:308,1
DA:309,1
DA:310,1
DA:311,1
DA:312,1
DA:313,1
DA:314,1
DA:315,1
DA:316,1
DA:317,1
DA:318,1
DA:319,1
DA:320,1
DA:321,1
DA:322,1
DA:323,1
DA:324,1
DA:325,1
DA:326,1
DA:327,1
DA:328,1
DA:329,1
DA:330,1
DA:331,1
DA:332,1
DA:333,1
DA:334,1
DA:335,1
DA:336,1
DA:337,1
DA:338,1
BRF:0
BRH:0
LF:313
LH:270
end_of_record
SF:/Users/andrei/git/proposalsapp/apps/detective/indexers/gitcoin_v2_mainnet_votes.rs
FN:27,_RNvMNtNtCsmdD2PK2ogL_9detective8indexers24gitcoin_v2_mainnet_votesNtB2_28GitcoinV2MainnetVotesIndexer24proposal_indexer_variant
FN:90,_RNvXs_NtNtCsmdD2PK2ogL_9detective8indexers24gitcoin_v2_mainnet_votesNtB4_28GitcoinV2MainnetVotesIndexerNtNtB8_7indexer7Indexer17min_refresh_speed
FN:93,_RNvXs_NtNtCsmdD2PK2ogL_9detective8indexers24gitcoin_v2_mainnet_votesNtB4_28GitcoinV2MainnetVotesIndexerNtNtB8_7indexer7Indexer17max_refresh_speed
FN:212,_RNCNvNtNtNtCsmdD2PK2ogL_9detective8indexers24gitcoin_v2_mainnet_votes24gitcoin_v2_mainnet_votess_20gitcoin_v2_mainnet_10B9_
FN:102,_RNCNvNtNtCsmdD2PK2ogL_9detective8indexers24gitcoin_v2_mainnet_votes9get_votes0B7_
FN:154,_RNCNvNtNtCsmdD2PK2ogL_9detective8indexers24gitcoin_v2_mainnet_votes21get_votes_with_params0B7_
FN:38,_RNCNvXs_NtNtCsmdD2PK2ogL_9detective8indexers24gitcoin_v2_mainnet_votesNtB6_28GitcoinV2MainnetVotesIndexerNtNtBa_7indexer7Indexer7process0Ba_
FN:212,_RNvNtNtNtCsmdD2PK2ogL_9detective8indexers24gitcoin_v2_mainnet_votes24gitcoin_v2_mainnet_votess_20gitcoin_v2_mainnet_1
FN:98,_RNvNtNtCsmdD2PK2ogL_9detective8indexers24gitcoin_v2_mainnet_votes9get_votes
FN:150,_RNvNtNtCsmdD2PK2ogL_9detective8indexers24gitcoin_v2_mainnet_votes21get_votes_with_params
FN:89,_RNvXs_NtNtCsmdD2PK2ogL_9detective8indexers24gitcoin_v2_mainnet_votesNtB4_28GitcoinV2MainnetVotesIndexerNtNtB8_7indexer7Indexer7process
FNDA:0,_RNvMNtNtCsmdD2PK2ogL_9detective8indexers24gitcoin_v2_mainnet_votesNtB2_28GitcoinV2MainnetVotesIndexer24proposal_indexer_variant
FNDA:0,_RNvXs_NtNtCsmdD2PK2ogL_9detective8indexers24gitcoin_v2_mainnet_votesNtB4_28GitcoinV2MainnetVotesIndexerNtNtB8_7indexer7Indexer17min_refresh_speed
FNDA:0,_RNvXs_NtNtCsmdD2PK2ogL_9detective8indexers24gitcoin_v2_mainnet_votesNtB4_28GitcoinV2MainnetVotesIndexerNtNtB8_7indexer7Indexer17max_refresh_speed
FNDA:1,_RNCNvNtNtNtCsmdD2PK2ogL_9detective8indexers24gitcoin_v2_mainnet_votes24gitcoin_v2_mainnet_votess_20gitcoin_v2_mainnet_10B9_
FNDA:1,_RNCNvNtNtCsmdD2PK2ogL_9detective8indexers24gitcoin_v2_mainnet_votes9get_votes0B7_
FNDA:1,_RNCNvNtNtCsmdD2PK2ogL_9detective8indexers24gitcoin_v2_mainnet_votes21get_votes_with_params0B7_
FNDA:1,_RNCNvXs_NtNtCsmdD2PK2ogL_9detective8indexers24gitcoin_v2_mainnet_votesNtB6_28GitcoinV2MainnetVotesIndexerNtNtBa_7indexer7Indexer7process0Ba_
FNDA:1,_RNvNtNtNtCsmdD2PK2ogL_9detective8indexers24gitcoin_v2_mainnet_votes24gitcoin_v2_mainnet_votess_20gitcoin_v2_mainnet_1
FNDA:1,_RNvNtNtCsmdD2PK2ogL_9detective8indexers24gitcoin_v2_mainnet_votes9get_votes
FNDA:1,_RNvNtNtCsmdD2PK2ogL_9detective8indexers24gitcoin_v2_mainnet_votes21get_votes_with_params
FNDA:1,_RNvXs_NtNtCsmdD2PK2ogL_9detective8indexers24gitcoin_v2_mainnet_votesNtB4_28GitcoinV2MainnetVotesIndexerNtNtB8_7indexer7Indexer7process
FNF:11
FNH:8
DA:27,0
DA:28,0
DA:29,0
DA:38,1
DA:39,1
DA:41,1
DA:43,1
DA:44,1
DA:45,6
DA:46,1
DA:48,1
DA:49,1
DA:50,0
DA:52,1
DA:55,1
DA:56,1
DA:57,1
DA:59,1
DA:60,1
DA:61,1
DA:62,1
DA:63,1
DA:64,1
DA:65,3
DA:66,1
DA:68,1
DA:69,1
DA:70,1
DA:71,1
DA:72,1
DA:73,1
DA:74,1
DA:75,1
DA:77,1
DA:78,20
DA:79,1
DA:81,1
DA:82,1
DA:83,0
DA:84,1
DA:86,1
DA:87,1
DA:88,1
DA:89,2
DA:90,0
DA:91,0
DA:92,0
DA:93,0
DA:94,0
DA:95,0
DA:98,1
DA:99,1
DA:100,1
DA:101,1
DA:102,1
DA:103,1
DA:104,1
DA:105,1
DA:107,2
DA:108,1
DA:109,1
DA:110,1
DA:111,20
DA:112,1
DA:113,1
DA:114,1
DA:115,1
DA:116,1
DA:117,1
DA:118,1
DA:119,1
DA:120,1
DA:121,1
DA:122,1
DA:123,1
DA:124,1
DA:125,1
DA:126,1
DA:127,1
DA:128,1
DA:129,1
DA:130,0
DA:131,1
DA:132,0
DA:133,0
DA:135,1
DA:136,1
DA:137,1
DA:138,1
DA:139,1
DA:140,1
DA:141,1
DA:142,1
DA:143,1
DA:147,1
DA:148,1
DA:150,1
DA:151,1
DA:152,1
DA:153,1
DA:154,1
DA:155,1
DA:156,1
DA:157,1
DA:159,1
DA:160,0
DA:161,0
DA:162,0
DA:163,0
DA:164,0
DA:165,0
DA:166,0
DA:167,0
DA:168,0
DA:169,0
DA:170,0
DA:171,0
DA:172,0
DA:173,0
DA:174,0
DA:175,0
DA:176,0
DA:177,0
DA:178,0
DA:179,0
DA:180,0
DA:181,0
DA:182,0
DA:183,0
DA:184,0
DA:185,0
DA:187,0
DA:188,0
DA:189,0
DA:190,0
DA:191,0
DA:192,0
DA:193,0
DA:194,0
DA:195,0
DA:199,1
DA:200,1
DA:212,1
DA:213,1
DA:214,1
DA:215,1
DA:216,1
DA:217,1
DA:218,1
DA:219,1
DA:220,1
DA:221,1
DA:222,1
DA:223,1
DA:224,1
DA:225,1
DA:226,1
DA:227,1
DA:228,1
DA:229,1
DA:230,1
DA:231,1
DA:232,1
DA:233,1
DA:234,1
DA:235,1
DA:236,30
DA:237,1
DA:238,1
DA:239,1
DA:240,1
DA:241,1
DA:242,1
DA:243,1
DA:244,1
DA:245,1
DA:246,1
DA:247,1
DA:248,1
DA:249,1
DA:250,1
DA:251,1
DA:252,1
DA:253,1
DA:254,1
DA:255,1
DA:256,1
DA:257,1
DA:258,1
BRF:0
BRH:0
LF:236
LH:186
end_of_record
SF:/Users/andrei/git/proposalsapp/apps/detective/indexers/hop_mainnet_proposals.rs
FN:92,_RNvXNtNtCsmdD2PK2ogL_9detective8indexers21hop_mainnet_proposalsNtB2_26HopMainnetProposalsIndexerNtNtB6_7indexer7Indexer7process
FN:37,_RNCNvXNtNtCsmdD2PK2ogL_9detective8indexers21hop_mainnet_proposalsNtB4_26HopMainnetProposalsIndexerNtNtB8_7indexer7Indexer7process0B8_
FN:78,_RNCNCNvXNtNtCsmdD2PK2ogL_9detective8indexers21hop_mainnet_proposalsNtB6_26HopMainnetProposalsIndexerNtNtBa_7indexer7Indexer7process00Ba_
FN:84,_RNCNCNvXNtNtCsmdD2PK2ogL_9detective8indexers21hop_mainnet_proposalsNtB6_26HopMainnetProposalsIndexerNtNtBa_7indexer7Indexer7process0s_0Ba_
FN:94,_RNvXNtNtCsmdD2PK2ogL_9detective8indexers21hop_mainnet_proposalsNtB2_26HopMainnetProposalsIndexerNtNtB6_7indexer7Indexer17min_refresh_speed
FN:98,_RNvXNtNtCsmdD2PK2ogL_9detective8indexers21hop_mainnet_proposalsNtB2_26HopMainnetProposalsIndexerNtNtB6_7indexer7Indexer17max_refresh_speed
FN:103,_RNvNtNtCsmdD2PK2ogL_9detective8indexers21hop_mainnet_proposals17data_for_proposal
FN:108,_RNCNvNtNtCsmdD2PK2ogL_9detective8indexers21hop_mainnet_proposals17data_for_proposal0B7_
FNDA:0,_RNvXNtNtCsmdD2PK2ogL_9detective8indexers21hop_mainnet_proposalsNtB2_26HopMainnetProposalsIndexerNtNtB6_7indexer7Indexer7process
FNDA:0,_RNCNvXNtNtCsmdD2PK2ogL_9detective8indexers21hop_mainnet_proposalsNtB4_26HopMainnetProposalsIndexerNtNtB8_7indexer7Indexer7process0B8_
FNDA:0,_RNCNCNvXNtNtCsmdD2PK2ogL_9detective8indexers21hop_mainnet_proposalsNtB6_26HopMainnetProposalsIndexerNtNtBa_7indexer7Indexer7process00Ba_
FNDA:0,_RNCNCNvXNtNtCsmdD2PK2ogL_9detective8indexers21hop_mainnet_proposalsNtB6_26HopMainnetProposalsIndexerNtNtBa_7indexer7Indexer7process0s_0Ba_
FNDA:0,_RNvXNtNtCsmdD2PK2ogL_9detective8indexers21hop_mainnet_proposalsNtB2_26HopMainnetProposalsIndexerNtNtB6_7indexer7Indexer17min_refresh_speed
FNDA:0,_RNvXNtNtCsmdD2PK2ogL_9detective8indexers21hop_mainnet_proposalsNtB2_26HopMainnetProposalsIndexerNtNtB6_7indexer7Indexer17max_refresh_speed
FNDA:0,_RNvNtNtCsmdD2PK2ogL_9detective8indexers21hop_mainnet_proposals17data_for_proposal
FNDA:0,_RNCNvNtNtCsmdD2PK2ogL_9detective8indexers21hop_mainnet_proposals17data_for_proposal0B7_
FNF:8
FNH:0
DA:37,0
DA:38,0
DA:40,0
DA:42,0
DA:43,0
DA:44,0
DA:45,0
DA:47,0
DA:48,0
DA:49,0
DA:51,0
DA:54,0
DA:55,0
DA:56,0
DA:58,0
DA:59,0
DA:60,0
DA:61,0
DA:62,0
DA:63,0
DA:64,0
DA:65,0
DA:67,0
DA:69,0
DA:70,0
DA:71,0
DA:72,0
DA:73,0
DA:76,0
DA:77,0
DA:78,0
DA:79,0
DA:80,0
DA:83,0
DA:84,0
DA:85,0
DA:86,0
DA:87,0
DA:88,0
DA:89,0
DA:90,0
DA:91,0
DA:92,0
DA:94,0
DA:95,0
DA:96,0
DA:98,0
DA:99,0
DA:100,0
DA:103,0
DA:104,0
DA:105,0
DA:106,0
DA:107,0
DA:108,0
DA:109,0
DA:111,0
DA:112,0
DA:113,0
DA:114,0
DA:115,0
DA:116,0
DA:117,0
DA:118,0
DA:119,0
DA:120,0
DA:121,0
DA:122,0
DA:123,0
DA:124,0
DA:126,0
DA:127,0
DA:129,0
DA:130,0
DA:131,0
DA:132,0
DA:133,0
DA:134,0
DA:135,0
DA:136,0
DA:137,0
DA:140,0
DA:141,0
DA:145,0
DA:146,0
DA:148,0
DA:149,0
DA:150,0
DA:151,0
DA:152,0
DA:153,0
DA:154,0
DA:155,0
DA:156,0
DA:159,0
DA:160,0
DA:164,0
DA:165,0
DA:166,0
DA:167,0
DA:168,0
DA:169,0
DA:170,0
DA:171,0
DA:172,0
DA:173,0
DA:174,0
DA:175,0
DA:176,0
DA:177,0
DA:178,0
DA:179,0
DA:180,0
DA:181,0
DA:182,0
DA:183,0
DA:185,0
DA:186,0
DA:187,0
DA:189,0
DA:190,0
DA:191,0
DA:193,0
DA:194,0
DA:195,0
DA:196,0
DA:197,0
DA:199,0
DA:200,0
DA:201,0
DA:202,0
DA:203,0
DA:204,0
DA:205,0
DA:206,0
DA:207,0
DA:208,0
DA:210,0
DA:211,0
DA:212,0
DA:213,0
DA:214,0
DA:216,0
DA:217,0
DA:219,0
DA:220,0
DA:221,0
DA:222,0
DA:223,0
DA:226,0
DA:227,0
DA:228,0
DA:229,0
DA:230,0
DA:231,0
DA:232,0
DA:233,0
DA:234,0
DA:235,0
DA:238,0
DA:239,0
DA:240,0
DA:241,0
DA:242,0
DA:243,0
DA:244,0
DA:245,0
DA:246,0
DA:247,0
DA:248,0
DA:249,0
DA:250,0
DA:251,0
DA:252,0
DA:253,0
DA:254,0
DA:255,0
DA:256,0
DA:257,0
DA:258,0
DA:259,0
DA:260,0
DA:261,0
DA:262,0
DA:263,0
DA:264,0
DA:265,0
DA:266,0
DA:267,0
BRF:0
BRH:0
LF:195
LH:0
end_of_record
SF:/Users/andrei/git/proposalsapp/apps/detective/indexers/hop_mainnet_votes.rs
FN:27,_RNvMNtNtCsmdD2PK2ogL_9detective8indexers17hop_mainnet_votesNtB2_22HopMainnetVotesIndexer24proposal_indexer_variant
FN:74,_RNvXs_NtNtCsmdD2PK2ogL_9detective8indexers17hop_mainnet_votesNtB4_22HopMainnetVotesIndexerNtNtB8_7indexer7Indexer17min_refresh_speed
FN:77,_RNvXs_NtNtCsmdD2PK2ogL_9detective8indexers17hop_mainnet_votesNtB4_22HopMainnetVotesIndexerNtNtB8_7indexer7Indexer17max_refresh_speed
FN:144,_RNCNvNtNtNtCsmdD2PK2ogL_9detective8indexers17hop_mainnet_votes17hop_mainnet_votess_13hop_mainnet_10B9_
FN:86,_RNCNvNtNtCsmdD2PK2ogL_9detective8indexers17hop_mainnet_votes9get_votes0B7_
FN:38,_RNCNvXs_NtNtCsmdD2PK2ogL_9detective8indexers17hop_mainnet_votesNtB6_22HopMainnetVotesIndexerNtNtBa_7indexer7Indexer7process0Ba_
FN:82,_RNvNtNtCsmdD2PK2ogL_9detective8indexers17hop_mainnet_votes9get_votes
FN:73,_RNvXs_NtNtCsmdD2PK2ogL_9detective8indexers17hop_mainnet_votesNtB4_22HopMainnetVotesIndexerNtNtB8_7indexer7Indexer7process
FN:144,_RNvNtNtNtCsmdD2PK2ogL_9detective8indexers17hop_mainnet_votes17hop_mainnet_votess_13hop_mainnet_1
FNDA:0,_RNvMNtNtCsmdD2PK2ogL_9detective8indexers17hop_mainnet_votesNtB2_22HopMainnetVotesIndexer24proposal_indexer_variant
FNDA:0,_RNvXs_NtNtCsmdD2PK2ogL_9detective8indexers17hop_mainnet_votesNtB4_22HopMainnetVotesIndexerNtNtB8_7indexer7Indexer17min_refresh_speed
FNDA:0,_RNvXs_NtNtCsmdD2PK2ogL_9detective8indexers17hop_mainnet_votesNtB4_22HopMainnetVotesIndexerNtNtB8_7indexer7Indexer17max_refresh_speed
FNDA:1,_RNCNvNtNtNtCsmdD2PK2ogL_9detective8indexers17hop_mainnet_votes17hop_mainnet_votess_13hop_mainnet_10B9_
FNDA:1,_RNCNvNtNtCsmdD2PK2ogL_9detective8indexers17hop_mainnet_votes9get_votes0B7_
FNDA:1,_RNCNvXs_NtNtCsmdD2PK2ogL_9detective8indexers17hop_mainnet_votesNtB6_22HopMainnetVotesIndexerNtNtBa_7indexer7Indexer7process0Ba_
FNDA:1,_RNvNtNtCsmdD2PK2ogL_9detective8indexers17hop_mainnet_votes9get_votes
FNDA:1,_RNvXs_NtNtCsmdD2PK2ogL_9detective8indexers17hop_mainnet_votesNtB4_22HopMainnetVotesIndexerNtNtB8_7indexer7Indexer7process
FNDA:1,_RNvNtNtNtCsmdD2PK2ogL_9detective8indexers17hop_mainnet_votes17hop_mainnet_votess_13hop_mainnet_1
FNF:9
FNH:6
DA:27,0
DA:28,0
DA:29,0
DA:38,1
DA:39,1
DA:41,1
DA:43,1
DA:44,1
DA:45,7
DA:46,1
DA:48,1
DA:49,1
DA:50,0
DA:52,1
DA:55,1
DA:56,1
DA:57,1
DA:59,1
DA:60,1
DA:61,1
DA:62,1
DA:63,1
DA:64,1
DA:65,2
DA:66,1
DA:68,1
DA:69,20
DA:70,1
DA:72,1
DA:73,2
DA:74,0
DA:75,0
DA:76,0
DA:77,0
DA:78,0
DA:79,0
DA:82,1
DA:83,1
DA:84,1
DA:85,1
DA:86,1
DA:87,1
DA:88,1
DA:89,1
DA:91,2
DA:92,1
DA:93,1
DA:94,1
DA:95,20
DA:96,1
DA:97,1
DA:98,1
DA:99,1
DA:100,1
DA:101,1
DA:102,1
DA:103,1
DA:104,1
DA:105,1
DA:106,1
DA:107,1
DA:108,1
DA:109,1
DA:110,1
DA:111,1
DA:112,1
DA:113,1
DA:114,0
DA:115,1
DA:116,0
DA:117,0
DA:119,1
DA:120,1
DA:121,1
DA:122,1
DA:123,1
DA:124,1
DA:125,1
DA:126,1
DA:127,1
DA:131,1
DA:132,1
DA:144,1
DA:145,1
DA:146,1
DA:147,1
DA:148,1
DA:149,1
DA:150,1
DA:151,1
DA:152,1
DA:153,1
DA:154,1
DA:155,1
DA:156,1
DA:157,1
DA:158,1
DA:159,1
DA:160,1
DA:161,1
DA:162,1
DA:163,1
DA:164,1
DA:165,1
DA:166,1
DA:167,1
DA:168,29
DA:169,1
DA:170,1
DA:171,1
DA:172,1
DA:173,1
DA:174,1
DA:175,1
DA:176,1
DA:177,1
DA:178,1
DA:179,1
DA:180,1
DA:181,1
DA:182,1
DA:183,1
DA:184,1
DA:185,1
DA:186,1
DA:187,1
DA:188,1
DA:189,1
DA:190,1
BRF:0
BRH:0
LF:175
LH:161
end_of_record
SF:/Users/andrei/git/proposalsapp/apps/detective/indexers/maker_executive_mainnet_proposals.rs
FN:126,_RNvXNtNtCsmdD2PK2ogL_9detective8indexers33maker_executive_mainnet_proposalsNtB2_37MakerExecutiveMainnetProposalsIndexerNtNtB6_7indexer7Indexer17min_refresh_speed
FN:130,_RNvXNtNtCsmdD2PK2ogL_9detective8indexers33maker_executive_mainnet_proposalsNtB2_37MakerExecutiveMainnetProposalsIndexerNtNtB6_7indexer7Indexer17max_refresh_speed
FN:230,_RNvXNvXNvNtNtCsmdD2PK2ogL_9detective8indexers33maker_executive_mainnet_proposalss_1__NtB7_9SpellDataNtNtCsi2zptu4QhLv_5serde2de11Deserialize11deserializeNtB2_14___FieldVisitorNtB1C_7Visitor9expecting
FN:230,_RINvXNvXNvNtNtCsmdD2PK2ogL_9detective8indexers33maker_executive_mainnet_proposalss_1__NtB8_9SpellDataNtNtCsi2zptu4QhLv_5serde2de11Deserialize11deserializeNtB3_14___FieldVisitorNtB1D_7Visitor9visit_u64pEBc_
FN:230,_RINvXNvXNvNtNtCsmdD2PK2ogL_9detective8indexers33maker_executive_mainnet_proposalss_1__NtB8_9SpellDataNtNtCsi2zptu4QhLv_5serde2de11Deserialize11deserializeNtB3_14___FieldVisitorNtB1D_7Visitor11visit_bytespEBc_
FN:241,_RNvXNvXNvNtNtCsmdD2PK2ogL_9detective8indexers33maker_executive_mainnet_proposalss1_1__NtB7_12ProposalDataNtNtCsi2zptu4QhLv_5serde2de11Deserialize11deserializeNtB2_14___FieldVisitorNtB1H_7Visitor9expecting
FN:241,_RINvXNvXNvNtNtCsmdD2PK2ogL_9detective8indexers33maker_executive_mainnet_proposalss1_1__NtB8_12ProposalDataNtNtCsi2zptu4QhLv_5serde2de11Deserialize11deserializeNtB3_14___FieldVisitorNtB1I_7Visitor9visit_u64pEBc_
FN:241,_RINvXNvXNvNtNtCsmdD2PK2ogL_9detective8indexers33maker_executive_mainnet_proposalss1_1__NtB8_12ProposalDataNtNtCsi2zptu4QhLv_5serde2de11Deserialize11deserializeNtB3_14___FieldVisitorNtB1I_7Visitor11visit_bytespEBc_
FN:135,_RNvNtNtCsmdD2PK2ogL_9detective8indexers33maker_executive_mainnet_proposals17data_for_proposal
FN:253,_RNvNtNtCsmdD2PK2ogL_9detective8indexers33maker_executive_mainnet_proposals17get_proposal_data
FN:301,_RNvNtNtCsmdD2PK2ogL_9detective8indexers33maker_executive_mainnet_proposals21extract_desired_bytes
FN:319,_RNvNtNtCsmdD2PK2ogL_9detective8indexers33maker_executive_mainnet_proposals26get_single_spell_addresses
FN:355,_RNvNtNtCsmdD2PK2ogL_9detective8indexers33maker_executive_mainnet_proposals25get_multi_spell_addresses
FN:124,_RNvXNtNtCsmdD2PK2ogL_9detective8indexers33maker_executive_mainnet_proposalsNtB2_37MakerExecutiveMainnetProposalsIndexerNtNtB6_7indexer7Indexer7process
FN:230,_RNvXs0_NvXNvNtNtCsmdD2PK2ogL_9detective8indexers33maker_executive_mainnet_proposalss_1__NtBa_9SpellDataNtNtCsi2zptu4QhLv_5serde2de11Deserialize11deserializeNtB5_9___VisitorNtB1F_7Visitor9expecting
FN:241,_RNvXs0_NvXNvNtNtCsmdD2PK2ogL_9detective8indexers33maker_executive_mainnet_proposalss1_1__NtBa_12ProposalDataNtNtCsi2zptu4QhLv_5serde2de11Deserialize11deserializeNtB5_9___VisitorNtB1K_7Visitor9expecting
FN:138,_RNCNvNtNtCsmdD2PK2ogL_9detective8indexers33maker_executive_mainnet_proposals17data_for_proposal0B7_
FN:253,_RNCNvNtNtCsmdD2PK2ogL_9detective8indexers33maker_executive_mainnet_proposals17get_proposal_data0B7_
FN:325,_RNCNvNtNtCsmdD2PK2ogL_9detective8indexers33maker_executive_mainnet_proposals26get_single_spell_addresses0B7_
FN:349,_RNCNCNvNtNtCsmdD2PK2ogL_9detective8indexers33maker_executive_mainnet_proposals26get_single_spell_addresses00B9_
FN:357,_RNCNvNtNtCsmdD2PK2ogL_9detective8indexers33maker_executive_mainnet_proposals25get_multi_spell_addresses0B7_
FN:371,_RNCNCNvNtNtCsmdD2PK2ogL_9detective8indexers33maker_executive_mainnet_proposals25get_multi_spell_addresses00B9_
FN:36,_RNCNvXNtNtCsmdD2PK2ogL_9detective8indexers33maker_executive_mainnet_proposalsNtB4_37MakerExecutiveMainnetProposalsIndexerNtNtB8_7indexer7Indexer7process0B8_
FN:102,_RNCNCNvXNtNtCsmdD2PK2ogL_9detective8indexers33maker_executive_mainnet_proposalsNtB6_37MakerExecutiveMainnetProposalsIndexerNtNtBa_7indexer7Indexer7process00Ba_
FN:110,_RNCNCNvXNtNtCsmdD2PK2ogL_9detective8indexers33maker_executive_mainnet_proposalsNtB6_37MakerExecutiveMainnetProposalsIndexerNtNtBa_7indexer7Indexer7process0s_0Ba_
FN:116,_RNCNCNvXNtNtCsmdD2PK2ogL_9detective8indexers33maker_executive_mainnet_proposalsNtB6_37MakerExecutiveMainnetProposalsIndexerNtNtBa_7indexer7Indexer7process0s0_0Ba_
FN:230,_RINvXNvXNvNtNtCsmdD2PK2ogL_9detective8indexers33maker_executive_mainnet_proposalss_1__NtB8_9SpellDataNtNtCsi2zptu4QhLv_5serde2de11Deserialize11deserializeNtB3_14___FieldVisitorNtB1D_7Visitor9visit_strNtNtCslSvSW0ZHiud_10serde_json5error5ErrorEBc_
FN:230,_RINvXs_NvXNvNtNtCsmdD2PK2ogL_9detective8indexers33maker_executive_mainnet_proposalss_1__NtBa_9SpellDataNtNtCsi2zptu4QhLv_5serde2de11Deserialize11deserializeNtB5_7___FieldB1D_11deserializeINtNtCslSvSW0ZHiud_10serde_json2de6MapKeyNtNtB34_4read9SliceReadEEBe_
FN:230,_RINvXs0_NvXNvNtNtCsmdD2PK2ogL_9detective8indexers33maker_executive_mainnet_proposalss_1__NtBb_9SpellDataNtNtCsi2zptu4QhLv_5serde2de11Deserialize11deserializeNtB6_9___VisitorNtB1G_7Visitor9visit_seqINtNtCslSvSW0ZHiud_10serde_json2de9SeqAccessNtNtB3e_4read9SliceReadEEBf_
FN:230,_RINvXs0_NvXNvNtNtCsmdD2PK2ogL_9detective8indexers33maker_executive_mainnet_proposalss_1__NtBb_9SpellDataNtNtCsi2zptu4QhLv_5serde2de11Deserialize11deserializeNtB6_9___VisitorNtB1G_7Visitor9visit_mapINtNtCslSvSW0ZHiud_10serde_json2de9MapAccessNtNtB3e_4read9SliceReadEEBf_
FN:241,_RINvXNvXNvNtNtCsmdD2PK2ogL_9detective8indexers33maker_executive_mainnet_proposalss1_1__NtB8_12ProposalDataNtNtCsi2zptu4QhLv_5serde2de11Deserialize11deserializeNtB3_14___FieldVisitorNtB1I_7Visitor9visit_strNtNtCslSvSW0ZHiud_10serde_json5error5ErrorEBc_
FN:241,_RINvXs_NvXNvNtNtCsmdD2PK2ogL_9detective8indexers33maker_executive_mainnet_proposalss1_1__NtBa_12ProposalDataNtNtCsi2zptu4QhLv_5serde2de11Deserialize11deserializeNtB5_7___FieldB1I_11deserializeINtNtCslSvSW0ZHiud_10serde_json2de6MapKeyNtNtB39_4read9SliceReadEEBe_
FN:241,_RINvXs0_NvXNvNtNtCsmdD2PK2ogL_9detective8indexers33maker_executive_mainnet_proposalss1_1__NtBb_12ProposalDataNtNtCsi2zptu4QhLv_5serde2de11Deserialize11deserializeNtB6_9___VisitorNtB1L_7Visitor9visit_seqINtNtCslSvSW0ZHiud_10serde_json2de9SeqAccessNtNtB3j_4read9SliceReadEEBf_
FN:241,_RINvXs0_NvXNvNtNtCsmdD2PK2ogL_9detective8indexers33maker_executive_mainnet_proposalss1_1__NtBb_12ProposalDataNtNtCsi2zptu4QhLv_5serde2de11Deserialize11deserializeNtB6_9___VisitorNtB1L_7Visitor9visit_mapINtNtCslSvSW0ZHiud_10serde_json2de9MapAccessNtNtB3j_4read9SliceReadEEBf_
FN:387,_RNCNvNtNtNtCsmdD2PK2ogL_9detective8indexers33maker_executive_mainnet_proposals33maker_executive_mainnet_proposalss_15maker_executive0B9_
FN:387,_RNvNtNtNtCsmdD2PK2ogL_9detective8indexers33maker_executive_mainnet_proposals33maker_executive_mainnet_proposalss_15maker_executive
FNDA:0,_RNvXNtNtCsmdD2PK2ogL_9detective8indexers33maker_executive_mainnet_proposalsNtB2_37MakerExecutiveMainnetProposalsIndexerNtNtB6_7indexer7Indexer17min_refresh_speed
FNDA:0,_RNvXNtNtCsmdD2PK2ogL_9detective8indexers33maker_executive_mainnet_proposalsNtB2_37MakerExecutiveMainnetProposalsIndexerNtNtB6_7indexer7Indexer17max_refresh_speed
FNDA:0,_RNvXNvXNvNtNtCsmdD2PK2ogL_9detective8indexers33maker_executive_mainnet_proposalss_1__NtB7_9SpellDataNtNtCsi2zptu4QhLv_5serde2de11Deserialize11deserializeNtB2_14___FieldVisitorNtB1C_7Visitor9expecting
FNDA:0,_RINvXNvXNvNtNtCsmdD2PK2ogL_9detective8indexers33maker_executive_mainnet_proposalss_1__NtB8_9SpellDataNtNtCsi2zptu4QhLv_5serde2de11Deserialize11deserializeNtB3_14___FieldVisitorNtB1D_7Visitor9visit_u64pEBc_
FNDA:0,_RINvXNvXNvNtNtCsmdD2PK2ogL_9detective8indexers33maker_executive_mainnet_proposalss_1__NtB8_9SpellDataNtNtCsi2zptu4QhLv_5serde2de11Deserialize11deserializeNtB3_14___FieldVisitorNtB1D_7Visitor11visit_bytespEBc_
FNDA:0,_RNvXNvXNvNtNtCsmdD2PK2ogL_9detective8indexers33maker_executive_mainnet_proposalss1_1__NtB7_12ProposalDataNtNtCsi2zptu4QhLv_5serde2de11Deserialize11deserializeNtB2_14___FieldVisitorNtB1H_7Visitor9expecting
FNDA:0,_RINvXNvXNvNtNtCsmdD2PK2ogL_9detective8indexers33maker_executive_mainnet_proposalss1_1__NtB8_12ProposalDataNtNtCsi2zptu4QhLv_5serde2de11Deserialize11deserializeNtB3_14___FieldVisitorNtB1I_7Visitor9visit_u64pEBc_
FNDA:0,_RINvXNvXNvNtNtCsmdD2PK2ogL_9detective8indexers33maker_executive_mainnet_proposalss1_1__NtB8_12ProposalDataNtNtCsi2zptu4QhLv_5serde2de11Deserialize11deserializeNtB3_14___FieldVisitorNtB1I_7Visitor11visit_bytespEBc_
FNDA:2,_RNvNtNtCsmdD2PK2ogL_9detective8indexers33maker_executive_mainnet_proposals17data_for_proposal
FNDA:2,_RNvNtNtCsmdD2PK2ogL_9detective8indexers33maker_executive_mainnet_proposals17get_proposal_data
FNDA:3,_RNvNtNtCsmdD2PK2ogL_9detective8indexers33maker_executive_mainnet_proposals21extract_desired_bytes
FNDA:1,_RNvNtNtCsmdD2PK2ogL_9detective8indexers33maker_executive_mainnet_proposals26get_single_spell_addresses
FNDA:1,_RNvNtNtCsmdD2PK2ogL_9detective8indexers33maker_executive_mainnet_proposals25get_multi_spell_addresses
FNDA:1,_RNvXNtNtCsmdD2PK2ogL_9detective8indexers33maker_executive_mainnet_proposalsNtB2_37MakerExecutiveMainnetProposalsIndexerNtNtB6_7indexer7Indexer7process
FNDA:0,_RNvXs0_NvXNvNtNtCsmdD2PK2ogL_9detective8indexers33maker_executive_mainnet_proposalss_1__NtBa_9SpellDataNtNtCsi2zptu4QhLv_5serde2de11Deserialize11deserializeNtB5_9___VisitorNtB1F_7Visitor9expecting
FNDA:0,_RNvXs0_NvXNvNtNtCsmdD2PK2ogL_9detective8indexers33maker_executive_mainnet_proposalss1_1__NtBa_12ProposalDataNtNtCsi2zptu4QhLv_5serde2de11Deserialize11deserializeNtB5_9___VisitorNtB1K_7Visitor9expecting
FNDA:2,_RNCNvNtNtCsmdD2PK2ogL_9detective8indexers33maker_executive_mainnet_proposals17data_for_proposal0B7_
FNDA:2,_RNCNvNtNtCsmdD2PK2ogL_9detective8indexers33maker_executive_mainnet_proposals17get_proposal_data0B7_
FNDA:1,_RNCNvNtNtCsmdD2PK2ogL_9detective8indexers33maker_executive_mainnet_proposals26get_single_spell_addresses0B7_
FNDA:2,_RNCNCNvNtNtCsmdD2PK2ogL_9detective8indexers33maker_executive_mainnet_proposals26get_single_spell_addresses00B9_
FNDA:1,_RNCNvNtNtCsmdD2PK2ogL_9detective8indexers33maker_executive_mainnet_proposals25get_multi_spell_addresses0B7_
FNDA:4,_RNCNCNvNtNtCsmdD2PK2ogL_9detective8indexers33maker_executive_mainnet_proposals25get_multi_spell_addresses00B9_
FNDA:1,_RNCNvXNtNtCsmdD2PK2ogL_9detective8indexers33maker_executive_mainnet_proposalsNtB4_37MakerExecutiveMainnetProposalsIndexerNtNtB8_7indexer7Indexer7process0B8_
FNDA:1,_RNCNCNvXNtNtCsmdD2PK2ogL_9detective8indexers33maker_executive_mainnet_proposalsNtB6_37MakerExecutiveMainnetProposalsIndexerNtNtBa_7indexer7Indexer7process00Ba_
FNDA:2,_RNCNCNvXNtNtCsmdD2PK2ogL_9detective8indexers33maker_executive_mainnet_proposalsNtB6_37MakerExecutiveMainnetProposalsIndexerNtNtBa_7indexer7Indexer7process0s_0Ba_
FNDA:0,_RNCNCNvXNtNtCsmdD2PK2ogL_9detective8indexers33maker_executive_mainnet_proposalsNtB6_37MakerExecutiveMainnetProposalsIndexerNtNtBa_7indexer7Indexer7process0s0_0Ba_
FNDA:20,_RINvXNvXNvNtNtCsmdD2PK2ogL_9detective8indexers33maker_executive_mainnet_proposalss_1__NtB8_9SpellDataNtNtCsi2zptu4QhLv_5serde2de11Deserialize11deserializeNtB3_14___FieldVisitorNtB1D_7Visitor9visit_strNtNtCslSvSW0ZHiud_10serde_json5error5ErrorEBc_
FNDA:20,_RINvXs_NvXNvNtNtCsmdD2PK2ogL_9detective8indexers33maker_executive_mainnet_proposalss_1__NtBa_9SpellDataNtNtCsi2zptu4QhLv_5serde2de11Deserialize11deserializeNtB5_7___FieldB1D_11deserializeINtNtCslSvSW0ZHiud_10serde_json2de6MapKeyNtNtB34_4read9SliceReadEEBe_
FNDA:0,_RINvXs0_NvXNvNtNtCsmdD2PK2ogL_9detective8indexers33maker_executive_mainnet_proposalss_1__NtBb_9SpellDataNtNtCsi2zptu4QhLv_5serde2de11Deserialize11deserializeNtB6_9___VisitorNtB1G_7Visitor9visit_seqINtNtCslSvSW0ZHiud_10serde_json2de9SeqAccessNtNtB3e_4read9SliceReadEEBf_
FNDA:2,_RINvXs0_NvXNvNtNtCsmdD2PK2ogL_9detective8indexers33maker_executive_mainnet_proposalss_1__NtBb_9SpellDataNtNtCsi2zptu4QhLv_5serde2de11Deserialize11deserializeNtB6_9___VisitorNtB1G_7Visitor9visit_mapINtNtCslSvSW0ZHiud_10serde_json2de9MapAccessNtNtB3e_4read9SliceReadEEBf_
FNDA:20,_RINvXNvXNvNtNtCsmdD2PK2ogL_9detective8indexers33maker_executive_mainnet_proposalss1_1__NtB8_12ProposalDataNtNtCsi2zptu4QhLv_5serde2de11Deserialize11deserializeNtB3_14___FieldVisitorNtB1I_7Visitor9visit_strNtNtCslSvSW0ZHiud_10serde_json5error5ErrorEBc_
FNDA:20,_RINvXs_NvXNvNtNtCsmdD2PK2ogL_9detective8indexers33maker_executive_mainnet_proposalss1_1__NtBa_12ProposalDataNtNtCsi2zptu4QhLv_5serde2de11Deserialize11deserializeNtB5_7___FieldB1I_11deserializeINtNtCslSvSW0ZHiud_10serde_json2de6MapKeyNtNtB39_4read9SliceReadEEBe_
FNDA:0,_RINvXs0_NvXNvNtNtCsmdD2PK2ogL_9detective8indexers33maker_executive_mainnet_proposalss1_1__NtBb_12ProposalDataNtNtCsi2zptu4QhLv_5serde2de11Deserialize11deserializeNtB6_9___VisitorNtB1L_7Visitor9visit_seqINtNtCslSvSW0ZHiud_10serde_json2de9SeqAccessNtNtB3j_4read9SliceReadEEBf_
FNDA:2,_RINvXs0_NvXNvNtNtCsmdD2PK2ogL_9detective8indexers33maker_executive_mainnet_proposalss1_1__NtBb_12ProposalDataNtNtCsi2zptu4QhLv_5serde2de11Deserialize11deserializeNtB6_9___VisitorNtB1L_7Visitor9visit_mapINtNtCslSvSW0ZHiud_10serde_json2de9MapAccessNtNtB3j_4read9SliceReadEEBf_
FNDA:1,_RNCNvNtNtNtCsmdD2PK2ogL_9detective8indexers33maker_executive_mainnet_proposals33maker_executive_mainnet_proposalss_15maker_executive0B9_
FNDA:1,_RNvNtNtNtCsmdD2PK2ogL_9detective8indexers33maker_executive_mainnet_proposals33maker_executive_mainnet_proposalss_15maker_executive
FNF:22
FNH:19
DA:36,1
DA:37,1
DA:39,1
DA:41,1
DA:42,1
DA:43,6
DA:44,1
DA:46,1
DA:47,1
DA:48,0
DA:50,1
DA:53,1
DA:54,1
DA:55,1
DA:56,1
DA:57,1
DA:58,1
DA:59,1
DA:61,1
DA:62,1
DA:63,1
DA:64,1
DA:65,1
DA:66,1
DA:67,1
DA:68,2
DA:69,1
DA:71,1
DA:72,1
DA:73,1
DA:74,1
DA:75,1
DA:76,1
DA:77,1
DA:78,4
DA:79,1
DA:81,1
DA:82,3
DA:83,1
DA:84,1
DA:85,0
DA:86,1
DA:88,1
DA:89,1
DA:90,1
DA:91,1
DA:92,1
DA:93,1
DA:94,1
DA:95,1
DA:97,2
DA:98,49
DA:99,2
DA:102,1
DA:103,1
DA:104,1
DA:105,1
DA:106,1
DA:107,1
DA:108,1
DA:109,1
DA:110,2
DA:111,2
DA:112,2
DA:115,2
DA:116,1
DA:117,0
DA:118,0
DA:119,1
DA:120,1
DA:121,1
DA:122,1
DA:123,1
DA:124,2
DA:126,0
DA:127,0
DA:128,0
DA:130,0
DA:131,0
DA:132,0
DA:135,2
DA:136,2
DA:137,2
DA:138,2
DA:139,2
DA:140,49
DA:141,2
DA:143,2
DA:144,2
DA:145,2
DA:146,2
DA:147,2
DA:148,2
DA:150,2
DA:152,2
DA:153,2
DA:154,2
DA:155,2
DA:156,2
DA:157,2
DA:158,2
DA:159,2
DA:160,2
DA:161,2
DA:162,2
DA:163,2
DA:164,2
DA:165,2
DA:166,2
DA:167,2
DA:168,2
DA:169,2
DA:170,2
DA:171,2
DA:172,2
DA:173,2
DA:175,2
DA:176,2
DA:177,0
DA:178,0
DA:179,0
DA:180,0
DA:181,0
DA:182,0
DA:183,0
DA:185,0
DA:187,0
DA:190,2
DA:191,2
DA:192,2
DA:193,2
DA:194,2
DA:195,2
DA:196,2
DA:197,2
DA:198,2
DA:199,2
DA:200,2
DA:201,0
DA:203,2
DA:204,2
DA:205,2
DA:206,2
DA:207,2
DA:208,2
DA:209,2
DA:210,2
DA:211,2
DA:212,2
DA:213,2
DA:214,2
DA:215,2
DA:216,2
DA:217,2
DA:218,2
DA:219,2
DA:220,2
DA:221,2
DA:222,2
DA:223,2
DA:224,2
DA:225,2
DA:226,2
DA:227,2
DA:230,22
DA:241,22
DA:253,2
DA:254,2
DA:256,2
DA:257,2
DA:258,2
DA:259,2
DA:260,2
DA:261,2
DA:262,2
DA:263,2
DA:264,2
DA:265,2
DA:266,2
DA:267,2
DA:268,12
DA:270,37
DA:271,2
DA:272,0
DA:273,0
DA:275,0
DA:277,0
DA:278,0
DA:280,0
DA:284,0
DA:285,0
DA:286,0
DA:287,0
DA:288,0
DA:289,0
DA:290,0
DA:291,0
DA:292,0
DA:293,0
DA:294,0
DA:295,0
DA:296,0
DA:297,0
DA:298,0
DA:299,2
DA:301,3
DA:302,3
DA:303,3
DA:306,12
DA:307,12
DA:308,3
DA:309,9
DA:310,9
DA:311,9
DA:312,9
DA:313,9
DA:316,3
DA:317,3
DA:319,1
DA:320,1
DA:321,1
DA:322,1
DA:323,1
DA:324,1
DA:325,1
DA:326,1
DA:328,2
DA:329,1
DA:330,1
DA:331,1
DA:334,3
DA:335,3
DA:336,2
DA:337,2
DA:338,2
DA:339,2
DA:341,1
DA:347,1
DA:348,1
DA:349,2
DA:350,1
DA:351,1
DA:352,1
DA:353,1
DA:355,1
DA:356,1
DA:357,1
DA:358,1
DA:360,3
DA:361,2
DA:363,10
DA:364,8
DA:365,8
DA:366,8
DA:369,1
DA:370,1
DA:371,4
DA:372,1
DA:373,1
DA:374,1
DA:375,1
DA:387,1
DA:388,1
DA:389,1
DA:390,1
DA:391,1
DA:392,1
DA:393,1
DA:394,1
DA:395,1
DA:396,1
DA:397,1
DA:398,1
DA:399,1
DA:400,1
DA:401,1
DA:402,1
DA:403,1
DA:404,1
DA:405,1
DA:406,1
DA:407,1
DA:408,1
DA:409,1
DA:410,1
DA:411,1
DA:412,1
DA:413,64
DA:414,1
DA:415,1
DA:416,1
DA:417,1
DA:418,1
DA:419,1
DA:420,1
DA:421,1
DA:422,1
DA:423,1
DA:424,1
DA:425,1
DA:426,1
DA:427,1
DA:428,1
DA:429,1
DA:430,1
DA:431,1
DA:432,1
DA:433,1
DA:434,1
DA:435,1
DA:436,1
DA:437,1
DA:438,1
DA:439,1
DA:440,1
DA:441,1
DA:442,1
DA:443,1
DA:444,1
DA:445,1
BRF:0
BRH:0
LF:387
LH:343
end_of_record
SF:/Users/andrei/git/proposalsapp/apps/detective/indexers/maker_executive_mainnet_votes.rs
FN:29,_RNvMNtNtCsmdD2PK2ogL_9detective8indexers29maker_executive_mainnet_votesNtB2_33MakerExecutiveMainnetVotesIndexer24proposal_indexer_variant
FN:114,_RNvXs_NtNtCsmdD2PK2ogL_9detective8indexers29maker_executive_mainnet_votesNtB4_33MakerExecutiveMainnetVotesIndexerNtNtB8_7indexer7Indexer7process
FN:40,_RNCNvXs_NtNtCsmdD2PK2ogL_9detective8indexers29maker_executive_mainnet_votesNtB6_33MakerExecutiveMainnetVotesIndexerNtNtBa_7indexer7Indexer7process0Ba_
FN:97,_RNCNCNvXs_NtNtCsmdD2PK2ogL_9detective8indexers29maker_executive_mainnet_votesNtB8_33MakerExecutiveMainnetVotesIndexerNtNtBc_7indexer7Indexer7process00Bc_
FN:116,_RNvXs_NtNtCsmdD2PK2ogL_9detective8indexers29maker_executive_mainnet_votesNtB4_33MakerExecutiveMainnetVotesIndexerNtNtB8_7indexer7Indexer17min_refresh_speed
FN:120,_RNvXs_NtNtCsmdD2PK2ogL_9detective8indexers29maker_executive_mainnet_votesNtB4_33MakerExecutiveMainnetVotesIndexerNtNtB8_7indexer7Indexer17max_refresh_speed
FN:125,_RNvNtNtCsmdD2PK2ogL_9detective8indexers29maker_executive_mainnet_votes9get_votes
FN:128,_RNCNvNtNtCsmdD2PK2ogL_9detective8indexers29maker_executive_mainnet_votes9get_votes0B7_
FN:152,_RNvNtNtCsmdD2PK2ogL_9detective8indexers29maker_executive_mainnet_votes21extract_desired_bytes
FN:181,_RNvNtNtCsmdD2PK2ogL_9detective8indexers29maker_executive_mainnet_votes26get_single_spell_addresses
FN:187,_RNCNvNtNtCsmdD2PK2ogL_9detective8indexers29maker_executive_mainnet_votes26get_single_spell_addresses0B7_
FN:215,_RNvNtNtCsmdD2PK2ogL_9detective8indexers29maker_executive_mainnet_votes25get_multi_spell_addresses
FN:215,_RNCNvNtNtCsmdD2PK2ogL_9detective8indexers29maker_executive_mainnet_votes25get_multi_spell_addresses0B7_
FNDA:0,_RNvMNtNtCsmdD2PK2ogL_9detective8indexers29maker_executive_mainnet_votesNtB2_33MakerExecutiveMainnetVotesIndexer24proposal_indexer_variant
FNDA:0,_RNvXs_NtNtCsmdD2PK2ogL_9detective8indexers29maker_executive_mainnet_votesNtB4_33MakerExecutiveMainnetVotesIndexerNtNtB8_7indexer7Indexer7process
FNDA:0,_RNCNvXs_NtNtCsmdD2PK2ogL_9detective8indexers29maker_executive_mainnet_votesNtB6_33MakerExecutiveMainnetVotesIndexerNtNtBa_7indexer7Indexer7process0Ba_
FNDA:0,_RNCNCNvXs_NtNtCsmdD2PK2ogL_9detective8indexers29maker_executive_mainnet_votesNtB8_33MakerExecutiveMainnetVotesIndexerNtNtBc_7indexer7Indexer7process00Bc_
FNDA:0,_RNvXs_NtNtCsmdD2PK2ogL_9detective8indexers29maker_executive_mainnet_votesNtB4_33MakerExecutiveMainnetVotesIndexerNtNtB8_7indexer7Indexer17min_refresh_speed
FNDA:0,_RNvXs_NtNtCsmdD2PK2ogL_9detective8indexers29maker_executive_mainnet_votesNtB4_33MakerExecutiveMainnetVotesIndexerNtNtB8_7indexer7Indexer17max_refresh_speed
FNDA:0,_RNvNtNtCsmdD2PK2ogL_9detective8indexers29maker_executive_mainnet_votes9get_votes
FNDA:0,_RNCNvNtNtCsmdD2PK2ogL_9detective8indexers29maker_executive_mainnet_votes9get_votes0B7_
FNDA:0,_RNvNtNtCsmdD2PK2ogL_9detective8indexers29maker_executive_mainnet_votes21extract_desired_bytes
FNDA:0,_RNvNtNtCsmdD2PK2ogL_9detective8indexers29maker_executive_mainnet_votes26get_single_spell_addresses
FNDA:0,_RNCNvNtNtCsmdD2PK2ogL_9detective8indexers29maker_executive_mainnet_votes26get_single_spell_addresses0B7_
FNDA:0,_RNvNtNtCsmdD2PK2ogL_9detective8indexers29maker_executive_mainnet_votes25get_multi_spell_addresses
FNDA:0,_RNCNvNtNtCsmdD2PK2ogL_9detective8indexers29maker_executive_mainnet_votes25get_multi_spell_addresses0B7_
FNF:13
FNH:0
DA:29,0
DA:30,0
DA:31,0
DA:40,0
DA:41,0
DA:43,0
DA:45,0
DA:46,0
DA:47,0
DA:48,0
DA:50,0
DA:51,0
DA:52,0
DA:54,0
DA:57,0
DA:58,0
DA:59,0
DA:60,0
DA:61,0
DA:62,0
DA:63,0
DA:64,0
DA:66,0
DA:67,0
DA:68,0
DA:69,0
DA:70,0
DA:71,0
DA:72,0
DA:73,0
DA:74,0
DA:76,0
DA:77,0
DA:78,0
DA:79,0
DA:80,0
DA:81,0
DA:82,0
DA:83,0
DA:84,0
DA:86,0
DA:87,0
DA:88,0
DA:89,0
DA:90,0
DA:91,0
DA:92,0
DA:94,0
DA:95,0
DA:96,0
DA:97,0
DA:98,0
DA:99,0
DA:100,0
DA:101,0
DA:102,0
DA:103,0
DA:104,0
DA:105,0
DA:106,0
DA:107,0
DA:109,0
DA:110,0
DA:111,0
DA:113,0
DA:114,0
DA:116,0
DA:117,0
DA:118,0
DA:120,0
DA:121,0
DA:122,0
DA:125,0
DA:126,0
DA:127,0
DA:128,0
DA:129,0
DA:131,0
DA:132,0
DA:133,0
DA:134,0
DA:135,0
DA:136,0
DA:137,0
DA:138,0
DA:139,0
DA:140,0
DA:141,0
DA:142,0
DA:143,0
DA:144,0
DA:147,0
DA:148,0
DA:152,0
DA:153,0
DA:154,0
DA:155,0
DA:158,0
DA:159,0
DA:160,0
DA:161,0
DA:162,0
DA:163,0
DA:165,0
DA:166,0
DA:167,0
DA:168,0
DA:169,0
DA:172,0
DA:173,0
DA:181,0
DA:182,0
DA:183,0
DA:184,0
DA:185,0
DA:186,0
DA:187,0
DA:188,0
DA:190,0
DA:191,0
DA:192,0
DA:193,0
DA:196,0
DA:197,0
DA:198,0
DA:199,0
DA:200,0
DA:201,0
DA:202,0
DA:203,0
DA:204,0
DA:206,0
DA:212,0
DA:213,0
DA:215,0
DA:216,0
DA:218,0
DA:219,0
DA:221,0
DA:222,0
DA:223,0
DA:224,0
DA:225,0
DA:226,0
DA:229,0
DA:230,0
BRF:0
BRH:0
LF:152
LH:0
end_of_record
SF:/Users/andrei/git/proposalsapp/apps/detective/indexers/maker_poll_arbitrum_votes.rs
FN:28,_RNvMNtNtCsmdD2PK2ogL_9detective8indexers25maker_poll_arbitrum_votesNtB2_29MakerPollArbitrumVotesIndexer24proposal_indexer_variant
FN:76,_RNvXs_NtNtCsmdD2PK2ogL_9detective8indexers25maker_poll_arbitrum_votesNtB4_29MakerPollArbitrumVotesIndexerNtNtB8_7indexer7Indexer17min_refresh_speed
FN:80,_RNvXs_NtNtCsmdD2PK2ogL_9detective8indexers25maker_poll_arbitrum_votesNtB4_29MakerPollArbitrumVotesIndexerNtNtB8_7indexer7Indexer17max_refresh_speed
FN:85,_RNvNtNtCsmdD2PK2ogL_9detective8indexers25maker_poll_arbitrum_votes9get_votes
FN:133,_RNvNtNtCsmdD2PK2ogL_9detective8indexers25maker_poll_arbitrum_votes11get_options
FN:144,_RNvXNCNvNtNtCsmdD2PK2ogL_9detective8indexers25maker_poll_arbitrum_votes11get_options0NtB2_15ToBufferOptionsNtNtCsliVzVx4luf9_4core7default7Default7default
FN:74,_RNvXs_NtNtCsmdD2PK2ogL_9detective8indexers25maker_poll_arbitrum_votesNtB4_29MakerPollArbitrumVotesIndexerNtNtB8_7indexer7Indexer7process
FN:89,_RNCNvNtNtCsmdD2PK2ogL_9detective8indexers25maker_poll_arbitrum_votes9get_votes0B7_
FN:133,_RNCNvNtNtCsmdD2PK2ogL_9detective8indexers25maker_poll_arbitrum_votes11get_options0B7_
FN:39,_RNCNvXs_NtNtCsmdD2PK2ogL_9detective8indexers25maker_poll_arbitrum_votesNtB6_29MakerPollArbitrumVotesIndexerNtNtBa_7indexer7Indexer7process0Ba_
FN:184,_RNCNvNtNtNtCsmdD2PK2ogL_9detective8indexers25maker_poll_arbitrum_votes25maker_poll_arbitrum_votess_21maker_poll_arbitrum_10B9_
FN:184,_RNvNtNtNtCsmdD2PK2ogL_9detective8indexers25maker_poll_arbitrum_votes25maker_poll_arbitrum_votess_21maker_poll_arbitrum_1
FNDA:0,_RNvMNtNtCsmdD2PK2ogL_9detective8indexers25maker_poll_arbitrum_votesNtB2_29MakerPollArbitrumVotesIndexer24proposal_indexer_variant
FNDA:0,_RNvXs_NtNtCsmdD2PK2ogL_9detective8indexers25maker_poll_arbitrum_votesNtB4_29MakerPollArbitrumVotesIndexerNtNtB8_7indexer7Indexer17min_refresh_speed
FNDA:0,_RNvXs_NtNtCsmdD2PK2ogL_9detective8indexers25maker_poll_arbitrum_votesNtB4_29MakerPollArbitrumVotesIndexerNtNtB8_7indexer7Indexer17max_refresh_speed
FNDA:1,_RNvNtNtCsmdD2PK2ogL_9detective8indexers25maker_poll_arbitrum_votes9get_votes
FNDA:3,_RNvNtNtCsmdD2PK2ogL_9detective8indexers25maker_poll_arbitrum_votes11get_options
FNDA:3,_RNvXNCNvNtNtCsmdD2PK2ogL_9detective8indexers25maker_poll_arbitrum_votes11get_options0NtB2_15ToBufferOptionsNtNtCsliVzVx4luf9_4core7default7Default7default
FNDA:1,_RNvXs_NtNtCsmdD2PK2ogL_9detective8indexers25maker_poll_arbitrum_votesNtB4_29MakerPollArbitrumVotesIndexerNtNtB8_7indexer7Indexer7process
FNDA:1,_RNCNvNtNtCsmdD2PK2ogL_9detective8indexers25maker_poll_arbitrum_votes9get_votes0B7_
FNDA:3,_RNCNvNtNtCsmdD2PK2ogL_9detective8indexers25maker_poll_arbitrum_votes11get_options0B7_
FNDA:1,_RNCNvXs_NtNtCsmdD2PK2ogL_9detective8indexers25maker_poll_arbitrum_votesNtB6_29MakerPollArbitrumVotesIndexerNtNtBa_7indexer7Indexer7process0Ba_
FNDA:1,_RNCNvNtNtNtCsmdD2PK2ogL_9detective8indexers25maker_poll_arbitrum_votes25maker_poll_arbitrum_votess_21maker_poll_arbitrum_10B9_
FNDA:1,_RNvNtNtNtCsmdD2PK2ogL_9detective8indexers25maker_poll_arbitrum_votes25maker_poll_arbitrum_votess_21maker_poll_arbitrum_1
FNF:12
FNH:9
DA:28,0
DA:29,0
DA:30,0
DA:39,1
DA:40,1
DA:42,1
DA:44,1
DA:45,1
DA:46,6
DA:47,1
DA:49,1
DA:50,1
DA:51,0
DA:53,1
DA:56,1
DA:57,1
DA:58,1
DA:60,1
DA:61,1
DA:62,1
DA:63,1
DA:64,1
DA:65,1
DA:66,3
DA:67,1
DA:69,1
DA:70,9
DA:71,1
DA:73,1
DA:74,2
DA:76,0
DA:77,0
DA:78,0
DA:80,0
DA:81,0
DA:82,0
DA:85,1
DA:86,1
DA:87,1
DA:88,1
DA:89,1
DA:90,1
DA:91,1
DA:92,1
DA:94,4
DA:95,3
DA:96,3
DA:97,3
DA:98,9
DA:99,3
DA:100,3
DA:101,3
DA:102,3
DA:103,3
DA:104,3
DA:105,3
DA:106,3
DA:107,3
DA:108,3
DA:110,3
DA:111,3
DA:112,3
DA:113,3
DA:114,3
DA:115,3
DA:116,3
DA:117,3
DA:118,3
DA:119,3
DA:120,3
DA:121,3
DA:122,3
DA:123,3
DA:124,3
DA:125,3
DA:126,3
DA:127,3
DA:130,1
DA:131,1
DA:133,3
DA:144,3
DA:145,3
DA:146,3
DA:147,3
DA:148,3
DA:149,3
DA:152,3
DA:153,3
DA:155,3
DA:156,3
DA:157,0
DA:158,0
DA:159,0
DA:160,0
DA:161,3
DA:163,3
DA:165,3
DA:166,3
DA:167,3
DA:171,3
DA:172,3
DA:184,1
DA:185,1
DA:186,1
DA:187,1
DA:188,1
DA:189,1
DA:190,1
DA:191,1
DA:192,1
DA:193,1
DA:194,1
DA:195,1
DA:196,1
DA:197,1
DA:198,1
DA:199,1
DA:200,1
DA:201,1
DA:202,1
DA:203,1
DA:204,1
DA:205,1
DA:206,1
DA:207,1
DA:208,18
DA:209,1
DA:210,1
DA:211,1
DA:212,1
DA:213,1
DA:214,1
DA:215,1
DA:216,1
DA:217,1
DA:218,1
DA:219,1
DA:220,1
DA:221,1
DA:222,1
DA:223,1
DA:224,1
DA:225,1
DA:226,1
DA:227,1
DA:228,1
DA:229,1
DA:230,1
BRF:0
BRH:0
LF:195
LH:180
end_of_record
SF:/Users/andrei/git/proposalsapp/apps/detective/indexers/maker_poll_mainnet_proposals.rs
FN:94,_RNvXNtNtCsmdD2PK2ogL_9detective8indexers28maker_poll_mainnet_proposalsNtB2_32MakerPollMainnetProposalsIndexerNtNtB6_7indexer7Indexer7process
FN:39,_RNCNvXNtNtCsmdD2PK2ogL_9detective8indexers28maker_poll_mainnet_proposalsNtB4_32MakerPollMainnetProposalsIndexerNtNtB8_7indexer7Indexer7process0B8_
FN:80,_RNCNCNvXNtNtCsmdD2PK2ogL_9detective8indexers28maker_poll_mainnet_proposalsNtB6_32MakerPollMainnetProposalsIndexerNtNtBa_7indexer7Indexer7process00Ba_
FN:86,_RNCNCNvXNtNtCsmdD2PK2ogL_9detective8indexers28maker_poll_mainnet_proposalsNtB6_32MakerPollMainnetProposalsIndexerNtNtBa_7indexer7Indexer7process0s_0Ba_
FN:96,_RNvXNtNtCsmdD2PK2ogL_9detective8indexers28maker_poll_mainnet_proposalsNtB2_32MakerPollMainnetProposalsIndexerNtNtB6_7indexer7Indexer17min_refresh_speed
FN:100,_RNvXNtNtCsmdD2PK2ogL_9detective8indexers28maker_poll_mainnet_proposalsNtB2_32MakerPollMainnetProposalsIndexerNtNtB6_7indexer7Indexer17max_refresh_speed
FN:105,_RNvNtNtCsmdD2PK2ogL_9detective8indexers28maker_poll_mainnet_proposals17data_for_proposal
FN:109,_RNCNvNtNtCsmdD2PK2ogL_9detective8indexers28maker_poll_mainnet_proposals17data_for_proposal0B7_
FN:157,_RNCNCNvNtNtCsmdD2PK2ogL_9detective8indexers28maker_poll_mainnet_proposals17data_for_proposal00B9_
FN:213,_RNvXNvXNvNtNtCsmdD2PK2ogL_9detective8indexers28maker_poll_mainnet_proposalss_1__NtB7_10ResultDataNtNtCsi2zptu4QhLv_5serde2de11Deserialize11deserializeNtB2_14___FieldVisitorNtB1z_7Visitor9expecting
FN:213,_RINvXNvXNvNtNtCsmdD2PK2ogL_9detective8indexers28maker_poll_mainnet_proposalss_1__NtB8_10ResultDataNtNtCsi2zptu4QhLv_5serde2de11Deserialize11deserializeNtB3_14___FieldVisitorNtB1A_7Visitor9visit_u64pEBc_
FN:213,_RINvXNvXNvNtNtCsmdD2PK2ogL_9detective8indexers28maker_poll_mainnet_proposalss_1__NtB8_10ResultDataNtNtCsi2zptu4QhLv_5serde2de11Deserialize11deserializeNtB3_14___FieldVisitorNtB1A_7Visitor9visit_strpEBc_
FN:213,_RINvXNvXNvNtNtCsmdD2PK2ogL_9detective8indexers28maker_poll_mainnet_proposalss_1__NtB8_10ResultDataNtNtCsi2zptu4QhLv_5serde2de11Deserialize11deserializeNtB3_14___FieldVisitorNtB1A_7Visitor11visit_bytespEBc_
FN:213,_RINvXs_NvXNvNtNtCsmdD2PK2ogL_9detective8indexers28maker_poll_mainnet_proposalss_1__NtBa_10ResultDataNtNtCsi2zptu4QhLv_5serde2de11Deserialize11deserializeNtB5_7___FieldB1A_11deserializepEBe_
FN:213,_RNvXs0_NvXNvNtNtCsmdD2PK2ogL_9detective8indexers28maker_poll_mainnet_proposalss_1__NtBa_10ResultDataNtNtCsi2zptu4QhLv_5serde2de11Deserialize11deserializeNtB5_9___VisitorNtB1C_7Visitor9expecting
FN:213,_RINvXs0_NvXNvNtNtCsmdD2PK2ogL_9detective8indexers28maker_poll_mainnet_proposalss_1__NtBb_10ResultDataNtNtCsi2zptu4QhLv_5serde2de11Deserialize11deserializeNtB6_9___VisitorNtB1D_7Visitor9visit_seqpEBf_
FN:213,_RINvXs0_NvXNvNtNtCsmdD2PK2ogL_9detective8indexers28maker_poll_mainnet_proposalss_1__NtBb_10ResultDataNtNtCsi2zptu4QhLv_5serde2de11Deserialize11deserializeNtB6_9___VisitorNtB1D_7Visitor9visit_mappEBf_
FN:220,_RNvXNvXNvNtNtCsmdD2PK2ogL_9detective8indexers28maker_poll_mainnet_proposalss1_1__NtB7_11ResultsDataNtNtCsi2zptu4QhLv_5serde2de11Deserialize11deserializeNtB2_14___FieldVisitorNtB1B_7Visitor9expecting
FN:220,_RINvXNvXNvNtNtCsmdD2PK2ogL_9detective8indexers28maker_poll_mainnet_proposalss1_1__NtB8_11ResultsDataNtNtCsi2zptu4QhLv_5serde2de11Deserialize11deserializeNtB3_14___FieldVisitorNtB1C_7Visitor9visit_u64pEBc_
FN:220,_RINvXNvXNvNtNtCsmdD2PK2ogL_9detective8indexers28maker_poll_mainnet_proposalss1_1__NtB8_11ResultsDataNtNtCsi2zptu4QhLv_5serde2de11Deserialize11deserializeNtB3_14___FieldVisitorNtB1C_7Visitor9visit_strpEBc_
FN:220,_RINvXNvXNvNtNtCsmdD2PK2ogL_9detective8indexers28maker_poll_mainnet_proposalss1_1__NtB8_11ResultsDataNtNtCsi2zptu4QhLv_5serde2de11Deserialize11deserializeNtB3_14___FieldVisitorNtB1C_7Visitor11visit_bytespEBc_
FN:220,_RINvXs_NvXNvNtNtCsmdD2PK2ogL_9detective8indexers28maker_poll_mainnet_proposalss1_1__NtBa_11ResultsDataNtNtCsi2zptu4QhLv_5serde2de11Deserialize11deserializeNtB5_7___FieldB1C_11deserializepEBe_
FN:220,_RNvXs0_NvXNvNtNtCsmdD2PK2ogL_9detective8indexers28maker_poll_mainnet_proposalss1_1__NtBa_11ResultsDataNtNtCsi2zptu4QhLv_5serde2de11Deserialize11deserializeNtB5_9___VisitorNtB1E_7Visitor9expecting
FN:220,_RINvXs0_NvXNvNtNtCsmdD2PK2ogL_9detective8indexers28maker_poll_mainnet_proposalss1_1__NtBb_11ResultsDataNtNtCsi2zptu4QhLv_5serde2de11Deserialize11deserializeNtB6_9___VisitorNtB1F_7Visitor9visit_seqpEBf_
FN:220,_RINvXs0_NvXNvNtNtCsmdD2PK2ogL_9detective8indexers28maker_poll_mainnet_proposalss1_1__NtBb_11ResultsDataNtNtCsi2zptu4QhLv_5serde2de11Deserialize11deserializeNtB6_9___VisitorNtB1F_7Visitor9visit_mappEBf_
FN:227,_RNvNtNtCsmdD2PK2ogL_9detective8indexers28maker_poll_mainnet_proposals16get_results_data
FN:227,_RNCNvNtNtCsmdD2PK2ogL_9detective8indexers28maker_poll_mainnet_proposals16get_results_data0B7_
FN:267,_RNvNtNtCsmdD2PK2ogL_9detective8indexers28maker_poll_mainnet_proposals9get_title
FN:267,_RNCNvNtNtCsmdD2PK2ogL_9detective8indexers28maker_poll_mainnet_proposals9get_title0B7_
FN:285,_RNCNCNvNtNtCsmdD2PK2ogL_9detective8indexers28maker_poll_mainnet_proposals9get_title00B9_
FN:285,_RNCNCNCNvNtNtCsmdD2PK2ogL_9detective8indexers28maker_poll_mainnet_proposals9get_title000Bb_
FN:286,_RNCNCNvNtNtCsmdD2PK2ogL_9detective8indexers28maker_poll_mainnet_proposals9get_title0s_0B9_
FNDA:0,_RNvXNtNtCsmdD2PK2ogL_9detective8indexers28maker_poll_mainnet_proposalsNtB2_32MakerPollMainnetProposalsIndexerNtNtB6_7indexer7Indexer7process
FNDA:0,_RNCNvXNtNtCsmdD2PK2ogL_9detective8indexers28maker_poll_mainnet_proposalsNtB4_32MakerPollMainnetProposalsIndexerNtNtB8_7indexer7Indexer7process0B8_
FNDA:0,_RNCNCNvXNtNtCsmdD2PK2ogL_9detective8indexers28maker_poll_mainnet_proposalsNtB6_32MakerPollMainnetProposalsIndexerNtNtBa_7indexer7Indexer7process00Ba_
FNDA:0,_RNCNCNvXNtNtCsmdD2PK2ogL_9detective8indexers28maker_poll_mainnet_proposalsNtB6_32MakerPollMainnetProposalsIndexerNtNtBa_7indexer7Indexer7process0s_0Ba_
FNDA:0,_RNvXNtNtCsmdD2PK2ogL_9detective8indexers28maker_poll_mainnet_proposalsNtB2_32MakerPollMainnetProposalsIndexerNtNtB6_7indexer7Indexer17min_refresh_speed
FNDA:0,_RNvXNtNtCsmdD2PK2ogL_9detective8indexers28maker_poll_mainnet_proposalsNtB2_32MakerPollMainnetProposalsIndexerNtNtB6_7indexer7Indexer17max_refresh_speed
FNDA:0,_RNvNtNtCsmdD2PK2ogL_9detective8indexers28maker_poll_mainnet_proposals17data_for_proposal
FNDA:0,_RNCNvNtNtCsmdD2PK2ogL_9detective8indexers28maker_poll_mainnet_proposals17data_for_proposal0B7_
FNDA:0,_RNCNCNvNtNtCsmdD2PK2ogL_9detective8indexers28maker_poll_mainnet_proposals17data_for_proposal00B9_
FNDA:0,_RNvXNvXNvNtNtCsmdD2PK2ogL_9detective8indexers28maker_poll_mainnet_proposalss_1__NtB7_10ResultDataNtNtCsi2zptu4QhLv_5serde2de11Deserialize11deserializeNtB2_14___FieldVisitorNtB1z_7Visitor9expecting
FNDA:0,_RINvXNvXNvNtNtCsmdD2PK2ogL_9detective8indexers28maker_poll_mainnet_proposalss_1__NtB8_10ResultDataNtNtCsi2zptu4QhLv_5serde2de11Deserialize11deserializeNtB3_14___FieldVisitorNtB1A_7Visitor9visit_u64pEBc_
FNDA:0,_RINvXNvXNvNtNtCsmdD2PK2ogL_9detective8indexers28maker_poll_mainnet_proposalss_1__NtB8_10ResultDataNtNtCsi2zptu4QhLv_5serde2de11Deserialize11deserializeNtB3_14___FieldVisitorNtB1A_7Visitor9visit_strpEBc_
FNDA:0,_RINvXNvXNvNtNtCsmdD2PK2ogL_9detective8indexers28maker_poll_mainnet_proposalss_1__NtB8_10ResultDataNtNtCsi2zptu4QhLv_5serde2de11Deserialize11deserializeNtB3_14___FieldVisitorNtB1A_7Visitor11visit_bytespEBc_
FNDA:0,_RINvXs_NvXNvNtNtCsmdD2PK2ogL_9detective8indexers28maker_poll_mainnet_proposalss_1__NtBa_10ResultDataNtNtCsi2zptu4QhLv_5serde2de11Deserialize11deserializeNtB5_7___FieldB1A_11deserializepEBe_
FNDA:0,_RNvXs0_NvXNvNtNtCsmdD2PK2ogL_9detective8indexers28maker_poll_mainnet_proposalss_1__NtBa_10ResultDataNtNtCsi2zptu4QhLv_5serde2de11Deserialize11deserializeNtB5_9___VisitorNtB1C_7Visitor9expecting
FNDA:0,_RINvXs0_NvXNvNtNtCsmdD2PK2ogL_9detective8indexers28maker_poll_mainnet_proposalss_1__NtBb_10ResultDataNtNtCsi2zptu4QhLv_5serde2de11Deserialize11deserializeNtB6_9___VisitorNtB1D_7Visitor9visit_seqpEBf_
FNDA:0,_RINvXs0_NvXNvNtNtCsmdD2PK2ogL_9detective8indexers28maker_poll_mainnet_proposalss_1__NtBb_10ResultDataNtNtCsi2zptu4QhLv_5serde2de11Deserialize11deserializeNtB6_9___VisitorNtB1D_7Visitor9visit_mappEBf_
FNDA:0,_RNvXNvXNvNtNtCsmdD2PK2ogL_9detective8indexers28maker_poll_mainnet_proposalss1_1__NtB7_11ResultsDataNtNtCsi2zptu4QhLv_5serde2de11Deserialize11deserializeNtB2_14___FieldVisitorNtB1B_7Visitor9expecting
FNDA:0,_RINvXNvXNvNtNtCsmdD2PK2ogL_9detective8indexers28maker_poll_mainnet_proposalss1_1__NtB8_11ResultsDataNtNtCsi2zptu4QhLv_5serde2de11Deserialize11deserializeNtB3_14___FieldVisitorNtB1C_7Visitor9visit_u64pEBc_
FNDA:0,_RINvXNvXNvNtNtCsmdD2PK2ogL_9detective8indexers28maker_poll_mainnet_proposalss1_1__NtB8_11ResultsDataNtNtCsi2zptu4QhLv_5serde2de11Deserialize11deserializeNtB3_14___FieldVisitorNtB1C_7Visitor9visit_strpEBc_
FNDA:0,_RINvXNvXNvNtNtCsmdD2PK2ogL_9detective8indexers28maker_poll_mainnet_proposalss1_1__NtB8_11ResultsDataNtNtCsi2zptu4QhLv_5serde2de11Deserialize11deserializeNtB3_14___FieldVisitorNtB1C_7Visitor11visit_bytespEBc_
FNDA:0,_RINvXs_NvXNvNtNtCsmdD2PK2ogL_9detective8indexers28maker_poll_mainnet_proposalss1_1__NtBa_11ResultsDataNtNtCsi2zptu4QhLv_5serde2de11Deserialize11deserializeNtB5_7___FieldB1C_11deserializepEBe_
FNDA:0,_RNvXs0_NvXNvNtNtCsmdD2PK2ogL_9detective8indexers28maker_poll_mainnet_proposalss1_1__NtBa_11ResultsDataNtNtCsi2zptu4QhLv_5serde2de11Deserialize11deserializeNtB5_9___VisitorNtB1E_7Visitor9expecting
FNDA:0,_RINvXs0_NvXNvNtNtCsmdD2PK2ogL_9detective8indexers28maker_poll_mainnet_proposalss1_1__NtBb_11ResultsDataNtNtCsi2zptu4QhLv_5serde2de11Deserialize11deserializeNtB6_9___VisitorNtB1F_7Visitor9visit_seqpEBf_
FNDA:0,_RINvXs0_NvXNvNtNtCsmdD2PK2ogL_9detective8indexers28maker_poll_mainnet_proposalss1_1__NtBb_11ResultsDataNtNtCsi2zptu4QhLv_5serde2de11Deserialize11deserializeNtB6_9___VisitorNtB1F_7Visitor9visit_mappEBf_
FNDA:0,_RNvNtNtCsmdD2PK2ogL_9detective8indexers28maker_poll_mainnet_proposals16get_results_data
FNDA:0,_RNCNvNtNtCsmdD2PK2ogL_9detective8indexers28maker_poll_mainnet_proposals16get_results_data0B7_
FNDA:0,_RNvNtNtCsmdD2PK2ogL_9detective8indexers28maker_poll_mainnet_proposals9get_title
FNDA:0,_RNCNvNtNtCsmdD2PK2ogL_9detective8indexers28maker_poll_mainnet_proposals9get_title0B7_
FNDA:0,_RNCNCNvNtNtCsmdD2PK2ogL_9detective8indexers28maker_poll_mainnet_proposals9get_title00B9_
FNDA:0,_RNCNCNCNvNtNtCsmdD2PK2ogL_9detective8indexers28maker_poll_mainnet_proposals9get_title000Bb_
FNDA:0,_RNCNCNvNtNtCsmdD2PK2ogL_9detective8indexers28maker_poll_mainnet_proposals9get_title0s_0B9_
FNF:18
FNH:0
DA:39,0
DA:40,0
DA:42,0
DA:44,0
DA:45,0
DA:46,0
DA:47,0
DA:49,0
DA:50,0
DA:51,0
DA:53,0
DA:56,0
DA:57,0
DA:58,0
DA:60,0
DA:61,0
DA:62,0
DA:63,0
DA:64,0
DA:65,0
DA:66,0
DA:67,0
DA:69,0
DA:71,0
DA:72,0
DA:73,0
DA:74,0
DA:75,0
DA:78,0
DA:79,0
DA:80,0
DA:81,0
DA:82,0
DA:85,0
DA:86,0
DA:87,0
DA:88,0
DA:89,0
DA:90,0
DA:91,0
DA:92,0
DA:93,0
DA:94,0
DA:96,0
DA:97,0
DA:98,0
DA:100,0
DA:101,0
DA:102,0
DA:105,0
DA:106,0
DA:107,0
DA:108,0
DA:109,0
DA:110,0
DA:111,0
DA:112,0
DA:113,0
DA:114,0
DA:115,0
DA:116,0
DA:117,0
DA:118,0
DA:120,0
DA:121,0
DA:122,0
DA:123,0
DA:125,0
DA:126,0
DA:127,0
DA:128,0
DA:129,0
DA:130,0
DA:131,0
DA:132,0
DA:134,0
DA:135,0
DA:136,0
DA:138,0
DA:139,0
DA:140,0
DA:141,0
DA:142,0
DA:143,0
DA:145,0
DA:147,0
DA:148,0
DA:149,0
DA:150,0
DA:151,0
DA:152,0
DA:153,0
DA:155,0
DA:157,0
DA:158,0
DA:159,0
DA:160,0
DA:161,0
DA:162,0
DA:164,0
DA:165,0
DA:166,0
DA:167,0
DA:168,0
DA:170,0
DA:171,0
DA:172,0
DA:175,0
DA:176,0
DA:178,0
DA:181,0
DA:182,0
DA:183,0
DA:184,0
DA:185,0
DA:186,0
DA:187,0
DA:188,0
DA:189,0
DA:190,0
DA:191,0
DA:192,0
DA:193,0
DA:194,0
DA:195,0
DA:196,0
DA:197,0
DA:198,0
DA:199,0
DA:200,0
DA:201,0
DA:202,0
DA:203,0
DA:204,0
DA:205,0
DA:206,0
DA:207,0
DA:208,0
DA:209,0
DA:210,0
DA:213,0
DA:220,0
DA:227,0
DA:228,0
DA:230,0
DA:231,0
DA:232,0
DA:233,0
DA:234,0
DA:235,0
DA:236,0
DA:237,0
DA:238,0
DA:239,0
DA:240,0
DA:241,0
DA:242,0
DA:244,0
DA:245,0
DA:246,0
DA:247,0
DA:248,0
DA:250,0
DA:252,0
DA:253,0
DA:255,0
DA:257,0
DA:258,0
DA:260,0
DA:264,0
DA:265,0
DA:267,0
DA:268,0
DA:270,0
DA:271,0
DA:272,0
DA:273,0
DA:274,0
DA:275,0
DA:276,0
DA:277,0
DA:279,0
DA:280,0
DA:281,0
DA:282,0
DA:283,0
DA:284,0
DA:285,0
DA:286,0
DA:287,0
DA:289,0
DA:290,0
DA:292,0
DA:294,0
DA:295,0
DA:297,0
DA:298,0
DA:299,0
DA:301,0
DA:305,0
DA:306,0
BRF:0
BRH:0
LF:214
LH:0
end_of_record
SF:/Users/andrei/git/proposalsapp/apps/detective/indexers/maker_poll_mainnet_votes.rs
FN:28,_RNvMNtNtCsmdD2PK2ogL_9detective8indexers24maker_poll_mainnet_votesNtB2_28MakerPollMainnetVotesIndexer24proposal_indexer_variant
FN:76,_RNvXs_NtNtCsmdD2PK2ogL_9detective8indexers24maker_poll_mainnet_votesNtB4_28MakerPollMainnetVotesIndexerNtNtB8_7indexer7Indexer17min_refresh_speed
FN:80,_RNvXs_NtNtCsmdD2PK2ogL_9detective8indexers24maker_poll_mainnet_votesNtB4_28MakerPollMainnetVotesIndexerNtNtB8_7indexer7Indexer17max_refresh_speed
FN:184,_RNCNvNtNtNtCsmdD2PK2ogL_9detective8indexers24maker_poll_mainnet_votes24maker_poll_mainnet_votess_20maker_poll_mainnet_10B9_
FN:85,_RNvNtNtCsmdD2PK2ogL_9detective8indexers24maker_poll_mainnet_votes9get_votes
FN:133,_RNvNtNtCsmdD2PK2ogL_9detective8indexers24maker_poll_mainnet_votes11get_options
FN:144,_RNvXNCNvNtNtCsmdD2PK2ogL_9detective8indexers24maker_poll_mainnet_votes11get_options0NtB2_15ToBufferOptionsNtNtCsliVzVx4luf9_4core7default7Default7default
FN:74,_RNvXs_NtNtCsmdD2PK2ogL_9detective8indexers24maker_poll_mainnet_votesNtB4_28MakerPollMainnetVotesIndexerNtNtB8_7indexer7Indexer7process
FN:184,_RNvNtNtNtCsmdD2PK2ogL_9detective8indexers24maker_poll_mainnet_votes24maker_poll_mainnet_votess_20maker_poll_mainnet_1
FN:89,_RNCNvNtNtCsmdD2PK2ogL_9detective8indexers24maker_poll_mainnet_votes9get_votes0B7_
FN:133,_RNCNvNtNtCsmdD2PK2ogL_9detective8indexers24maker_poll_mainnet_votes11get_options0B7_
FN:39,_RNCNvXs_NtNtCsmdD2PK2ogL_9detective8indexers24maker_poll_mainnet_votesNtB6_28MakerPollMainnetVotesIndexerNtNtBa_7indexer7Indexer7process0Ba_
FNDA:0,_RNvMNtNtCsmdD2PK2ogL_9detective8indexers24maker_poll_mainnet_votesNtB2_28MakerPollMainnetVotesIndexer24proposal_indexer_variant
FNDA:0,_RNvXs_NtNtCsmdD2PK2ogL_9detective8indexers24maker_poll_mainnet_votesNtB4_28MakerPollMainnetVotesIndexerNtNtB8_7indexer7Indexer17min_refresh_speed
FNDA:0,_RNvXs_NtNtCsmdD2PK2ogL_9detective8indexers24maker_poll_mainnet_votesNtB4_28MakerPollMainnetVotesIndexerNtNtB8_7indexer7Indexer17max_refresh_speed
FNDA:1,_RNCNvNtNtNtCsmdD2PK2ogL_9detective8indexers24maker_poll_mainnet_votes24maker_poll_mainnet_votess_20maker_poll_mainnet_10B9_
FNDA:1,_RNvNtNtCsmdD2PK2ogL_9detective8indexers24maker_poll_mainnet_votes9get_votes
FNDA:2,_RNvNtNtCsmdD2PK2ogL_9detective8indexers24maker_poll_mainnet_votes11get_options
FNDA:2,_RNvXNCNvNtNtCsmdD2PK2ogL_9detective8indexers24maker_poll_mainnet_votes11get_options0NtB2_15ToBufferOptionsNtNtCsliVzVx4luf9_4core7default7Default7default
FNDA:1,_RNvXs_NtNtCsmdD2PK2ogL_9detective8indexers24maker_poll_mainnet_votesNtB4_28MakerPollMainnetVotesIndexerNtNtB8_7indexer7Indexer7process
FNDA:1,_RNvNtNtNtCsmdD2PK2ogL_9detective8indexers24maker_poll_mainnet_votes24maker_poll_mainnet_votess_20maker_poll_mainnet_1
FNDA:1,_RNCNvNtNtCsmdD2PK2ogL_9detective8indexers24maker_poll_mainnet_votes9get_votes0B7_
FNDA:2,_RNCNvNtNtCsmdD2PK2ogL_9detective8indexers24maker_poll_mainnet_votes11get_options0B7_
FNDA:1,_RNCNvXs_NtNtCsmdD2PK2ogL_9detective8indexers24maker_poll_mainnet_votesNtB6_28MakerPollMainnetVotesIndexerNtNtBa_7indexer7Indexer7process0Ba_
FNF:12
FNH:9
DA:28,0
DA:29,0
DA:30,0
DA:39,1
DA:40,1
DA:42,1
DA:44,1
DA:45,1
DA:46,6
DA:47,1
DA:49,1
DA:50,1
DA:51,0
DA:53,1
DA:56,1
DA:57,1
DA:58,1
DA:60,1
DA:61,1
DA:62,1
DA:63,1
DA:64,1
DA:65,1
DA:66,3
DA:67,1
DA:69,1
DA:70,26
DA:71,1
DA:73,1
DA:74,2
DA:76,0
DA:77,0
DA:78,0
DA:80,0
DA:81,0
DA:82,0
DA:85,1
DA:86,1
DA:87,1
DA:88,1
DA:89,1
DA:90,1
DA:91,1
DA:92,1
DA:94,3
DA:95,2
DA:96,2
DA:97,2
DA:98,26
DA:99,2
DA:100,2
DA:101,2
DA:102,2
DA:103,2
DA:104,2
DA:105,2
DA:106,2
DA:107,2
DA:108,2
DA:110,2
DA:111,2
DA:112,2
DA:113,2
DA:114,2
DA:115,2
DA:116,2
DA:117,2
DA:118,2
DA:119,2
DA:120,2
DA:121,2
DA:122,2
DA:123,2
DA:124,2
DA:125,2
DA:126,2
DA:127,2
DA:130,1
DA:131,1
DA:133,2
DA:144,2
DA:145,2
DA:146,2
DA:147,2
DA:148,2
DA:149,2
DA:152,2
DA:153,2
DA:155,2
DA:156,2
DA:157,0
DA:158,0
DA:159,0
DA:160,0
DA:161,2
DA:163,2
DA:165,2
DA:166,2
DA:167,2
DA:171,2
DA:172,2
DA:184,1
DA:185,1
DA:186,1
DA:187,1
DA:188,1
DA:189,1
DA:190,1
DA:191,1
DA:192,1
DA:193,1
DA:194,1
DA:195,1
DA:196,1
DA:197,1
DA:198,1
DA:199,1
DA:200,1
DA:201,1
DA:202,1
DA:203,1
DA:204,1
DA:205,1
DA:206,1
DA:207,1
DA:208,35
DA:209,1
DA:210,1
DA:211,1
DA:212,1
DA:213,1
DA:214,1
DA:215,1
DA:216,1
DA:217,1
DA:218,1
DA:219,1
DA:220,1
DA:221,1
DA:222,1
DA:223,1
DA:224,1
DA:225,1
DA:226,1
DA:227,1
DA:228,1
DA:229,1
DA:230,1
BRF:0
BRH:0
LF:195
LH:180
end_of_record
SF:/Users/andrei/git/proposalsapp/apps/detective/indexers/nouns_mainnet_proposals.rs
FN:92,_RNvXNtNtCsmdD2PK2ogL_9detective8indexers23nouns_mainnet_proposalsNtB2_28NounsMainnetProposalsIndexerNtNtB6_7indexer7Indexer7process
FN:37,_RNCNvXNtNtCsmdD2PK2ogL_9detective8indexers23nouns_mainnet_proposalsNtB4_28NounsMainnetProposalsIndexerNtNtB8_7indexer7Indexer7process0B8_
FN:78,_RNCNCNvXNtNtCsmdD2PK2ogL_9detective8indexers23nouns_mainnet_proposalsNtB6_28NounsMainnetProposalsIndexerNtNtBa_7indexer7Indexer7process00Ba_
FN:84,_RNCNCNvXNtNtCsmdD2PK2ogL_9detective8indexers23nouns_mainnet_proposalsNtB6_28NounsMainnetProposalsIndexerNtNtBa_7indexer7Indexer7process0s_0Ba_
FN:94,_RNvXNtNtCsmdD2PK2ogL_9detective8indexers23nouns_mainnet_proposalsNtB2_28NounsMainnetProposalsIndexerNtNtB6_7indexer7Indexer17min_refresh_speed
FN:98,_RNvXNtNtCsmdD2PK2ogL_9detective8indexers23nouns_mainnet_proposalsNtB2_28NounsMainnetProposalsIndexerNtNtB6_7indexer7Indexer17max_refresh_speed
FN:103,_RNvNtNtCsmdD2PK2ogL_9detective8indexers23nouns_mainnet_proposals17data_for_proposal
FN:111,_RNCNvNtNtCsmdD2PK2ogL_9detective8indexers23nouns_mainnet_proposals17data_for_proposal0B7_
FNDA:0,_RNvXNtNtCsmdD2PK2ogL_9detective8indexers23nouns_mainnet_proposalsNtB2_28NounsMainnetProposalsIndexerNtNtB6_7indexer7Indexer7process
FNDA:0,_RNCNvXNtNtCsmdD2PK2ogL_9detective8indexers23nouns_mainnet_proposalsNtB4_28NounsMainnetProposalsIndexerNtNtB8_7indexer7Indexer7process0B8_
FNDA:0,_RNCNCNvXNtNtCsmdD2PK2ogL_9detective8indexers23nouns_mainnet_proposalsNtB6_28NounsMainnetProposalsIndexerNtNtBa_7indexer7Indexer7process00Ba_
FNDA:0,_RNCNCNvXNtNtCsmdD2PK2ogL_9detective8indexers23nouns_mainnet_proposalsNtB6_28NounsMainnetProposalsIndexerNtNtBa_7indexer7Indexer7process0s_0Ba_
FNDA:0,_RNvXNtNtCsmdD2PK2ogL_9detective8indexers23nouns_mainnet_proposalsNtB2_28NounsMainnetProposalsIndexerNtNtB6_7indexer7Indexer17min_refresh_speed
FNDA:0,_RNvXNtNtCsmdD2PK2ogL_9detective8indexers23nouns_mainnet_proposalsNtB2_28NounsMainnetProposalsIndexerNtNtB6_7indexer7Indexer17max_refresh_speed
FNDA:0,_RNvNtNtCsmdD2PK2ogL_9detective8indexers23nouns_mainnet_proposals17data_for_proposal
FNDA:0,_RNCNvNtNtCsmdD2PK2ogL_9detective8indexers23nouns_mainnet_proposals17data_for_proposal0B7_
FNF:8
FNH:0
DA:37,0
DA:38,0
DA:40,0
DA:42,0
DA:43,0
DA:44,0
DA:45,0
DA:47,0
DA:48,0
DA:49,0
DA:51,0
DA:54,0
DA:55,0
DA:56,0
DA:58,0
DA:59,0
DA:60,0
DA:61,0
DA:62,0
DA:63,0
DA:64,0
DA:65,0
DA:67,0
DA:69,0
DA:70,0
DA:71,0
DA:72,0
DA:73,0
DA:76,0
DA:77,0
DA:78,0
DA:79,0
DA:80,0
DA:83,0
DA:84,0
DA:85,0
DA:86,0
DA:87,0
DA:88,0
DA:89,0
DA:90,0
DA:91,0
DA:92,0
DA:94,0
DA:95,0
DA:96,0
DA:98,0
DA:99,0
DA:100,0
DA:103,0
DA:104,0
DA:105,0
DA:106,0
DA:107,0
DA:108,0
DA:109,0
DA:110,0
DA:111,0
DA:112,0
DA:113,0
DA:114,0
DA:115,0
DA:116,0
DA:117,0
DA:118,0
DA:119,0
DA:120,0
DA:121,0
DA:122,0
DA:123,0
DA:124,0
DA:125,0
DA:127,0
DA:128,0
DA:130,0
DA:131,0
DA:132,0
DA:133,0
DA:134,0
DA:135,0
DA:136,0
DA:137,0
DA:138,0
DA:141,0
DA:142,0
DA:146,0
DA:147,0
DA:149,0
DA:150,0
DA:151,0
DA:152,0
DA:153,0
DA:154,0
DA:155,0
DA:156,0
DA:157,0
DA:160,0
DA:161,0
DA:165,0
DA:166,0
DA:167,0
DA:169,0
DA:170,0
DA:171,0
DA:172,0
DA:173,0
DA:176,0
DA:177,0
DA:178,0
DA:179,0
DA:180,0
DA:181,0
DA:182,0
DA:183,0
DA:184,0
DA:185,0
DA:186,0
DA:187,0
DA:188,0
DA:190,0
DA:191,0
DA:192,0
DA:194,0
DA:195,0
DA:196,0
DA:197,0
DA:198,0
DA:199,0
DA:200,0
DA:201,0
DA:202,0
DA:203,0
DA:204,0
DA:205,0
DA:206,0
DA:207,0
DA:208,0
DA:209,0
DA:211,0
DA:212,0
DA:213,0
DA:214,0
DA:215,0
DA:218,0
DA:219,0
DA:220,0
DA:221,0
DA:222,0
DA:223,0
DA:224,0
DA:225,0
DA:226,0
DA:227,0
DA:230,0
DA:231,0
DA:232,0
DA:233,0
DA:234,0
DA:235,0
DA:236,0
DA:237,0
DA:238,0
DA:239,0
DA:240,0
DA:241,0
DA:242,0
DA:243,0
DA:244,0
DA:245,0
DA:246,0
DA:247,0
DA:248,0
DA:249,0
DA:250,0
DA:251,0
DA:252,0
DA:253,0
DA:254,0
DA:255,0
DA:256,0
DA:257,0
DA:258,0
DA:259,0
DA:260,0
DA:261,0
BRF:0
BRH:0
LF:191
LH:0
end_of_record
SF:/Users/andrei/git/proposalsapp/apps/detective/indexers/nouns_mainnet_votes.rs
FN:27,_RNvMNtNtCsmdD2PK2ogL_9detective8indexers19nouns_mainnet_votesNtB2_24NounsMainnetVotesIndexer24proposal_indexer_variant
FN:75,_RNvXs_NtNtCsmdD2PK2ogL_9detective8indexers19nouns_mainnet_votesNtB4_24NounsMainnetVotesIndexerNtNtB8_7indexer7Indexer17min_refresh_speed
FN:79,_RNvXs_NtNtCsmdD2PK2ogL_9detective8indexers19nouns_mainnet_votesNtB4_24NounsMainnetVotesIndexerNtNtB8_7indexer7Indexer17max_refresh_speed
FN:146,_RNvNtNtNtCsmdD2PK2ogL_9detective8indexers19nouns_mainnet_votes19nouns_mainnet_votess_15nouns_mainnet_1
FN:88,_RNCNvNtNtCsmdD2PK2ogL_9detective8indexers19nouns_mainnet_votes9get_votes0B7_
FN:38,_RNCNvXs_NtNtCsmdD2PK2ogL_9detective8indexers19nouns_mainnet_votesNtB6_24NounsMainnetVotesIndexerNtNtBa_7indexer7Indexer7process0Ba_
FN:84,_RNvNtNtCsmdD2PK2ogL_9detective8indexers19nouns_mainnet_votes9get_votes
FN:73,_RNvXs_NtNtCsmdD2PK2ogL_9detective8indexers19nouns_mainnet_votesNtB4_24NounsMainnetVotesIndexerNtNtB8_7indexer7Indexer7process
FN:146,_RNCNvNtNtNtCsmdD2PK2ogL_9detective8indexers19nouns_mainnet_votes19nouns_mainnet_votess_15nouns_mainnet_10B9_
FNDA:0,_RNvMNtNtCsmdD2PK2ogL_9detective8indexers19nouns_mainnet_votesNtB2_24NounsMainnetVotesIndexer24proposal_indexer_variant
FNDA:0,_RNvXs_NtNtCsmdD2PK2ogL_9detective8indexers19nouns_mainnet_votesNtB4_24NounsMainnetVotesIndexerNtNtB8_7indexer7Indexer17min_refresh_speed
FNDA:0,_RNvXs_NtNtCsmdD2PK2ogL_9detective8indexers19nouns_mainnet_votesNtB4_24NounsMainnetVotesIndexerNtNtB8_7indexer7Indexer17max_refresh_speed
FNDA:1,_RNvNtNtNtCsmdD2PK2ogL_9detective8indexers19nouns_mainnet_votes19nouns_mainnet_votess_15nouns_mainnet_1
FNDA:1,_RNCNvNtNtCsmdD2PK2ogL_9detective8indexers19nouns_mainnet_votes9get_votes0B7_
FNDA:1,_RNCNvXs_NtNtCsmdD2PK2ogL_9detective8indexers19nouns_mainnet_votesNtB6_24NounsMainnetVotesIndexerNtNtBa_7indexer7Indexer7process0Ba_
FNDA:1,_RNvNtNtCsmdD2PK2ogL_9detective8indexers19nouns_mainnet_votes9get_votes
FNDA:1,_RNvXs_NtNtCsmdD2PK2ogL_9detective8indexers19nouns_mainnet_votesNtB4_24NounsMainnetVotesIndexerNtNtB8_7indexer7Indexer7process
FNDA:1,_RNCNvNtNtNtCsmdD2PK2ogL_9detective8indexers19nouns_mainnet_votes19nouns_mainnet_votess_15nouns_mainnet_10B9_
FNF:9
FNH:6
DA:27,0
DA:28,0
DA:29,0
DA:38,1
DA:39,1
DA:41,1
DA:43,1
DA:44,1
DA:45,6
DA:46,1
DA:48,1
DA:49,1
DA:50,0
DA:52,1
DA:55,1
DA:56,1
DA:57,1
DA:59,1
DA:60,1
DA:61,1
DA:62,1
DA:63,1
DA:64,1
DA:65,3
DA:66,1
DA:68,1
DA:69,13
DA:70,1
DA:72,1
DA:73,2
DA:75,0
DA:76,0
DA:77,0
DA:79,0
DA:80,0
DA:81,0
DA:84,1
DA:85,1
DA:86,1
DA:87,1
DA:88,1
DA:89,1
DA:90,1
DA:91,1
DA:93,2
DA:94,1
DA:95,1
DA:96,1
DA:97,13
DA:98,1
DA:99,1
DA:100,1
DA:101,1
DA:102,1
DA:103,1
DA:104,1
DA:105,1
DA:106,1
DA:107,1
DA:108,1
DA:109,1
DA:110,1
DA:111,1
DA:112,1
DA:113,0
DA:114,1
DA:115,0
DA:116,0
DA:118,1
DA:119,1
DA:120,1
DA:121,1
DA:122,1
DA:123,1
DA:124,1
DA:125,1
DA:126,1
DA:127,1
DA:128,1
DA:129,1
DA:133,1
DA:134,1
DA:146,1
DA:147,1
DA:148,1
DA:149,1
DA:150,1
DA:151,1
DA:152,1
DA:153,1
DA:154,1
DA:155,1
DA:156,1
DA:157,1
DA:158,1
DA:159,1
DA:160,1
DA:161,1
DA:162,1
DA:163,1
DA:164,1
DA:165,1
DA:166,1
DA:167,1
DA:168,1
DA:169,1
DA:170,22
DA:171,1
DA:172,1
DA:173,1
DA:174,1
DA:175,1
DA:176,1
DA:177,1
DA:178,1
DA:179,1
DA:180,1
DA:181,1
DA:182,1
DA:183,1
DA:184,1
DA:185,1
DA:186,1
DA:187,1
DA:188,1
DA:189,1
DA:190,1
DA:191,1
DA:192,1
BRF:0
BRH:0
LF:175
LH:161
end_of_record
SF:/Users/andrei/git/proposalsapp/apps/detective/indexers/optimism_proposals.rs
FN:180,_RNvXNtNtCsmdD2PK2ogL_9detective8indexers18optimism_proposalsNtB2_24OptimismProposalsIndexerNtNtB6_7indexer7Indexer17min_refresh_speed
FN:184,_RNvXNtNtCsmdD2PK2ogL_9detective8indexers18optimism_proposalsNtB2_24OptimismProposalsIndexerNtNtB6_7indexer7Indexer17max_refresh_speed
FN:424,_RNvXNvXNvNCNvNtNtCsmdD2PK2ogL_9detective8indexers18optimism_proposals21data_for_proposal_two01__NtB7_16ProposalSettingsNtNtCsi2zptu4QhLv_5serde2de11Deserialize11deserializeNtB2_14___FieldVisitorNtB1V_7Visitor9expecting
FN:424,_RINvXNvXNvNCNvNtNtCsmdD2PK2ogL_9detective8indexers18optimism_proposals21data_for_proposal_two01__NtB8_16ProposalSettingsNtNtCsi2zptu4QhLv_5serde2de11Deserialize11deserializeNtB3_14___FieldVisitorNtB1W_7Visitor9visit_u64pEBg_
FN:424,_RINvXNvXNvNCNvNtNtCsmdD2PK2ogL_9detective8indexers18optimism_proposals21data_for_proposal_two01__NtB8_16ProposalSettingsNtNtCsi2zptu4QhLv_5serde2de11Deserialize11deserializeNtB3_14___FieldVisitorNtB1W_7Visitor9visit_strpEBg_
FN:424,_RINvXNvXNvNCNvNtNtCsmdD2PK2ogL_9detective8indexers18optimism_proposals21data_for_proposal_two01__NtB8_16ProposalSettingsNtNtCsi2zptu4QhLv_5serde2de11Deserialize11deserializeNtB3_14___FieldVisitorNtB1W_7Visitor11visit_bytespEBg_
FN:424,_RINvXs_NvXNvNCNvNtNtCsmdD2PK2ogL_9detective8indexers18optimism_proposals21data_for_proposal_two01__NtBa_16ProposalSettingsNtNtCsi2zptu4QhLv_5serde2de11Deserialize11deserializeNtB5_7___FieldB1W_11deserializepEBi_
FN:424,_RNvXs0_NvXNvNCNvNtNtCsmdD2PK2ogL_9detective8indexers18optimism_proposals21data_for_proposal_two01__NtBa_16ProposalSettingsNtNtCsi2zptu4QhLv_5serde2de11Deserialize11deserializeNtB5_9___VisitorNtB1Y_7Visitor9expecting
FN:424,_RINvXs0_NvXNvNCNvNtNtCsmdD2PK2ogL_9detective8indexers18optimism_proposals21data_for_proposal_two01__NtBb_16ProposalSettingsNtNtCsi2zptu4QhLv_5serde2de11Deserialize11deserializeNtB6_9___VisitorNtB1Z_7Visitor9visit_seqpEBj_
FN:424,_RINvXs0_NvXNvNCNvNtNtCsmdD2PK2ogL_9detective8indexers18optimism_proposals21data_for_proposal_two01__NtBb_16ProposalSettingsNtNtCsi2zptu4QhLv_5serde2de11Deserialize11deserializeNtB6_9___VisitorNtB1Z_7Visitor9visit_mappEBj_
FN:197,_RNCNvNtNtCsmdD2PK2ogL_9detective8indexers18optimism_proposals21data_for_proposal_one0B7_
FN:356,_RNCNvNtNtCsmdD2PK2ogL_9detective8indexers18optimism_proposals21data_for_proposal_two0B7_
FN:491,_RNCNCNvNtNtCsmdD2PK2ogL_9detective8indexers18optimism_proposals21data_for_proposal_two00B9_
FN:503,_RNCNCNvNtNtCsmdD2PK2ogL_9detective8indexers18optimism_proposals21data_for_proposal_two0s_0B9_
FN:535,_RNCNCNvNtNtCsmdD2PK2ogL_9detective8indexers18optimism_proposals21data_for_proposal_two0s0_0B9_
FN:615,_RNCNvNtNtCsmdD2PK2ogL_9detective8indexers18optimism_proposals23data_for_proposal_three0B7_
FN:736,_RNCNCNvNtNtCsmdD2PK2ogL_9detective8indexers18optimism_proposals23data_for_proposal_three00B9_
FN:748,_RNCNCNvNtNtCsmdD2PK2ogL_9detective8indexers18optimism_proposals23data_for_proposal_three0s_0B9_
FN:759,_RNCNCNvNtNtCsmdD2PK2ogL_9detective8indexers18optimism_proposals23data_for_proposal_three0s0_0B9_
FN:819,_RNCNvNtNtCsmdD2PK2ogL_9detective8indexers18optimism_proposals22data_for_proposal_four0B7_
FN:65,_RNCNvXNtNtCsmdD2PK2ogL_9detective8indexers18optimism_proposalsNtB4_24OptimismProposalsIndexerNtNtB8_7indexer7Indexer7process0B8_
FN:164,_RNCNCNvXNtNtCsmdD2PK2ogL_9detective8indexers18optimism_proposalsNtB6_24OptimismProposalsIndexerNtNtBa_7indexer7Indexer7process00Ba_
FN:170,_RNCNCNvXNtNtCsmdD2PK2ogL_9detective8indexers18optimism_proposalsNtB6_24OptimismProposalsIndexerNtNtBa_7indexer7Indexer7process0s_0Ba_
FN:189,_RNvNtNtCsmdD2PK2ogL_9detective8indexers18optimism_proposals21data_for_proposal_one
FN:347,_RNvNtNtCsmdD2PK2ogL_9detective8indexers18optimism_proposals21data_for_proposal_two
FN:607,_RNvNtNtCsmdD2PK2ogL_9detective8indexers18optimism_proposals23data_for_proposal_three
FN:811,_RNvNtNtCsmdD2PK2ogL_9detective8indexers18optimism_proposals22data_for_proposal_four
FN:178,_RNvXNtNtCsmdD2PK2ogL_9detective8indexers18optimism_proposalsNtB2_24OptimismProposalsIndexerNtNtB6_7indexer7Indexer7process
FN:979,_RNCNvNtNtNtCsmdD2PK2ogL_9detective8indexers18optimism_proposals18optimism_proposalss_20optimism_proposals_10B9_
FN:1036,_RNCNvNtNtNtCsmdD2PK2ogL_9detective8indexers18optimism_proposals18optimism_proposalss_20optimism_proposals_20B9_
FN:1093,_RNCNvNtNtNtCsmdD2PK2ogL_9detective8indexers18optimism_proposals18optimism_proposalss_20optimism_proposals_30B9_
FN:1150,_RNCNvNtNtNtCsmdD2PK2ogL_9detective8indexers18optimism_proposals18optimism_proposalss_20optimism_proposals_40B9_
FN:1208,_RNCNvNtNtNtCsmdD2PK2ogL_9detective8indexers18optimism_proposals18optimism_proposalss_20optimism_proposals_50B9_
FN:1266,_RNCNvNtNtNtCsmdD2PK2ogL_9detective8indexers18optimism_proposals18optimism_proposalss_20optimism_proposals_60B9_
FN:1324,_RNCNvNtNtNtCsmdD2PK2ogL_9detective8indexers18optimism_proposals18optimism_proposalss_20optimism_proposals_70B9_
FN:1382,_RNCNvNtNtNtCsmdD2PK2ogL_9detective8indexers18optimism_proposals18optimism_proposalss_20optimism_proposals_80B9_
FN:979,_RNvNtNtNtCsmdD2PK2ogL_9detective8indexers18optimism_proposals18optimism_proposalss_20optimism_proposals_1
FN:1036,_RNvNtNtNtCsmdD2PK2ogL_9detective8indexers18optimism_proposals18optimism_proposalss_20optimism_proposals_2
FN:1093,_RNvNtNtNtCsmdD2PK2ogL_9detective8indexers18optimism_proposals18optimism_proposalss_20optimism_proposals_3
FN:1150,_RNvNtNtNtCsmdD2PK2ogL_9detective8indexers18optimism_proposals18optimism_proposalss_20optimism_proposals_4
FN:1208,_RNvNtNtNtCsmdD2PK2ogL_9detective8indexers18optimism_proposals18optimism_proposalss_20optimism_proposals_5
FN:1266,_RNvNtNtNtCsmdD2PK2ogL_9detective8indexers18optimism_proposals18optimism_proposalss_20optimism_proposals_6
FN:1324,_RNvNtNtNtCsmdD2PK2ogL_9detective8indexers18optimism_proposals18optimism_proposalss_20optimism_proposals_7
FN:1382,_RNvNtNtNtCsmdD2PK2ogL_9detective8indexers18optimism_proposals18optimism_proposalss_20optimism_proposals_8
FNDA:0,_RNvXNtNtCsmdD2PK2ogL_9detective8indexers18optimism_proposalsNtB2_24OptimismProposalsIndexerNtNtB6_7indexer7Indexer17min_refresh_speed
FNDA:0,_RNvXNtNtCsmdD2PK2ogL_9detective8indexers18optimism_proposalsNtB2_24OptimismProposalsIndexerNtNtB6_7indexer7Indexer17max_refresh_speed
FNDA:0,_RNvXNvXNvNCNvNtNtCsmdD2PK2ogL_9detective8indexers18optimism_proposals21data_for_proposal_two01__NtB7_16ProposalSettingsNtNtCsi2zptu4QhLv_5serde2de11Deserialize11deserializeNtB2_14___FieldVisitorNtB1V_7Visitor9expecting
FNDA:0,_RINvXNvXNvNCNvNtNtCsmdD2PK2ogL_9detective8indexers18optimism_proposals21data_for_proposal_two01__NtB8_16ProposalSettingsNtNtCsi2zptu4QhLv_5serde2de11Deserialize11deserializeNtB3_14___FieldVisitorNtB1W_7Visitor9visit_u64pEBg_
FNDA:0,_RINvXNvXNvNCNvNtNtCsmdD2PK2ogL_9detective8indexers18optimism_proposals21data_for_proposal_two01__NtB8_16ProposalSettingsNtNtCsi2zptu4QhLv_5serde2de11Deserialize11deserializeNtB3_14___FieldVisitorNtB1W_7Visitor9visit_strpEBg_
FNDA:0,_RINvXNvXNvNCNvNtNtCsmdD2PK2ogL_9detective8indexers18optimism_proposals21data_for_proposal_two01__NtB8_16ProposalSettingsNtNtCsi2zptu4QhLv_5serde2de11Deserialize11deserializeNtB3_14___FieldVisitorNtB1W_7Visitor11visit_bytespEBg_
FNDA:0,_RINvXs_NvXNvNCNvNtNtCsmdD2PK2ogL_9detective8indexers18optimism_proposals21data_for_proposal_two01__NtBa_16ProposalSettingsNtNtCsi2zptu4QhLv_5serde2de11Deserialize11deserializeNtB5_7___FieldB1W_11deserializepEBi_
FNDA:0,_RNvXs0_NvXNvNCNvNtNtCsmdD2PK2ogL_9detective8indexers18optimism_proposals21data_for_proposal_two01__NtBa_16ProposalSettingsNtNtCsi2zptu4QhLv_5serde2de11Deserialize11deserializeNtB5_9___VisitorNtB1Y_7Visitor9expecting
FNDA:0,_RINvXs0_NvXNvNCNvNtNtCsmdD2PK2ogL_9detective8indexers18optimism_proposals21data_for_proposal_two01__NtBb_16ProposalSettingsNtNtCsi2zptu4QhLv_5serde2de11Deserialize11deserializeNtB6_9___VisitorNtB1Z_7Visitor9visit_seqpEBj_
FNDA:0,_RINvXs0_NvXNvNCNvNtNtCsmdD2PK2ogL_9detective8indexers18optimism_proposals21data_for_proposal_two01__NtBb_16ProposalSettingsNtNtCsi2zptu4QhLv_5serde2de11Deserialize11deserializeNtB6_9___VisitorNtB1Z_7Visitor9visit_mappEBj_
FNDA:0,_RNCNvNtNtCsmdD2PK2ogL_9detective8indexers18optimism_proposals21data_for_proposal_one0B7_
FNDA:0,_RNCNvNtNtCsmdD2PK2ogL_9detective8indexers18optimism_proposals21data_for_proposal_two0B7_
FNDA:0,_RNCNCNvNtNtCsmdD2PK2ogL_9detective8indexers18optimism_proposals21data_for_proposal_two00B9_
FNDA:0,_RNCNCNvNtNtCsmdD2PK2ogL_9detective8indexers18optimism_proposals21data_for_proposal_two0s_0B9_
FNDA:0,_RNCNCNvNtNtCsmdD2PK2ogL_9detective8indexers18optimism_proposals21data_for_proposal_two0s0_0B9_
FNDA:3,_RNCNvNtNtCsmdD2PK2ogL_9detective8indexers18optimism_proposals23data_for_proposal_three0B7_
FNDA:0,_RNCNCNvNtNtCsmdD2PK2ogL_9detective8indexers18optimism_proposals23data_for_proposal_three00B9_
FNDA:19,_RNCNCNvNtNtCsmdD2PK2ogL_9detective8indexers18optimism_proposals23data_for_proposal_three0s_0B9_
FNDA:19,_RNCNCNvNtNtCsmdD2PK2ogL_9detective8indexers18optimism_proposals23data_for_proposal_three0s0_0B9_
FNDA:8,_RNCNvNtNtCsmdD2PK2ogL_9detective8indexers18optimism_proposals22data_for_proposal_four0B7_
FNDA:4,_RNCNvXNtNtCsmdD2PK2ogL_9detective8indexers18optimism_proposalsNtB4_24OptimismProposalsIndexerNtNtB8_7indexer7Indexer7process0B8_
FNDA:11,_RNCNCNvXNtNtCsmdD2PK2ogL_9detective8indexers18optimism_proposalsNtB6_24OptimismProposalsIndexerNtNtBa_7indexer7Indexer7process00Ba_
FNDA:0,_RNCNCNvXNtNtCsmdD2PK2ogL_9detective8indexers18optimism_proposalsNtB6_24OptimismProposalsIndexerNtNtBa_7indexer7Indexer7process0s_0Ba_
FNDA:0,_RNvNtNtCsmdD2PK2ogL_9detective8indexers18optimism_proposals21data_for_proposal_one
FNDA:0,_RNvNtNtCsmdD2PK2ogL_9detective8indexers18optimism_proposals21data_for_proposal_two
FNDA:3,_RNvNtNtCsmdD2PK2ogL_9detective8indexers18optimism_proposals23data_for_proposal_three
FNDA:8,_RNvNtNtCsmdD2PK2ogL_9detective8indexers18optimism_proposals22data_for_proposal_four
FNDA:4,_RNvXNtNtCsmdD2PK2ogL_9detective8indexers18optimism_proposalsNtB2_24OptimismProposalsIndexerNtNtB6_7indexer7Indexer7process
FNDA:1,_RNCNvNtNtNtCsmdD2PK2ogL_9detective8indexers18optimism_proposals18optimism_proposalss_20optimism_proposals_10B9_
FNDA:1,_RNCNvNtNtNtCsmdD2PK2ogL_9detective8indexers18optimism_proposals18optimism_proposalss_20optimism_proposals_20B9_
FNDA:1,_RNCNvNtNtNtCsmdD2PK2ogL_9detective8indexers18optimism_proposals18optimism_proposalss_20optimism_proposals_30B9_
FNDA:1,_RNCNvNtNtNtCsmdD2PK2ogL_9detective8indexers18optimism_proposals18optimism_proposalss_20optimism_proposals_40B9_
FNDA:0,_RNCNvNtNtNtCsmdD2PK2ogL_9detective8indexers18optimism_proposals18optimism_proposalss_20optimism_proposals_50B9_
FNDA:0,_RNCNvNtNtNtCsmdD2PK2ogL_9detective8indexers18optimism_proposals18optimism_proposalss_20optimism_proposals_60B9_
FNDA:0,_RNCNvNtNtNtCsmdD2PK2ogL_9detective8indexers18optimism_proposals18optimism_proposalss_20optimism_proposals_70B9_
FNDA:0,_RNCNvNtNtNtCsmdD2PK2ogL_9detective8indexers18optimism_proposals18optimism_proposalss_20optimism_proposals_80B9_
FNDA:1,_RNvNtNtNtCsmdD2PK2ogL_9detective8indexers18optimism_proposals18optimism_proposalss_20optimism_proposals_1
FNDA:1,_RNvNtNtNtCsmdD2PK2ogL_9detective8indexers18optimism_proposals18optimism_proposalss_20optimism_proposals_2
FNDA:1,_RNvNtNtNtCsmdD2PK2ogL_9detective8indexers18optimism_proposals18optimism_proposalss_20optimism_proposals_3
FNDA:1,_RNvNtNtNtCsmdD2PK2ogL_9detective8indexers18optimism_proposals18optimism_proposalss_20optimism_proposals_4
FNDA:0,_RNvNtNtNtCsmdD2PK2ogL_9detective8indexers18optimism_proposals18optimism_proposalss_20optimism_proposals_5
FNDA:0,_RNvNtNtNtCsmdD2PK2ogL_9detective8indexers18optimism_proposals18optimism_proposalss_20optimism_proposals_6
FNDA:0,_RNvNtNtNtCsmdD2PK2ogL_9detective8indexers18optimism_proposals18optimism_proposalss_20optimism_proposals_7
FNDA:0,_RNvNtNtNtCsmdD2PK2ogL_9detective8indexers18optimism_proposals18optimism_proposalss_20optimism_proposals_8
FNF:37
FNH:17
DA:65,4
DA:66,4
DA:68,4
DA:70,4
DA:71,4
DA:72,24
DA:73,4
DA:75,4
DA:76,4
DA:77,0
DA:79,4
DA:82,4
DA:83,4
DA:84,4
DA:85,4
DA:86,4
DA:87,4
DA:88,4
DA:89,4
DA:90,4
DA:93,4
DA:94,4
DA:95,4
DA:96,4
DA:97,4
DA:98,4
DA:99,4
DA:101,4
DA:102,0
DA:103,0
DA:104,0
DA:105,0
DA:109,4
DA:110,4
DA:111,4
DA:112,4
DA:113,4
DA:114,4
DA:115,4
DA:117,4
DA:118,0
DA:119,0
DA:120,0
DA:121,0
DA:122,0
DA:123,0
DA:124,0
DA:125,0
DA:126,0
DA:127,0
DA:131,4
DA:132,4
DA:133,4
DA:134,4
DA:135,4
DA:136,25
DA:137,4
DA:139,4
DA:140,3
DA:141,177
DA:142,3
DA:143,3
DA:147,4
DA:148,4
DA:149,4
DA:150,4
DA:151,4
DA:152,24
DA:153,4
DA:155,8
DA:156,8
DA:157,432
DA:158,8
DA:159,8
DA:162,4
DA:163,4
DA:164,11
DA:165,11
DA:166,11
DA:169,11
DA:170,4
DA:171,0
DA:172,0
DA:173,4
DA:174,4
DA:175,4
DA:176,4
DA:177,4
DA:178,8
DA:180,0
DA:181,0
DA:182,0
DA:184,0
DA:185,0
DA:186,0
DA:189,0
DA:190,0
DA:191,0
DA:192,0
DA:193,0
DA:194,0
DA:195,0
DA:196,0
DA:197,0
DA:198,0
DA:199,0
DA:200,0
DA:201,0
DA:202,0
DA:203,0
DA:204,0
DA:205,0
DA:206,0
DA:208,0
DA:209,0
DA:210,0
DA:211,0
DA:212,0
DA:214,0
DA:216,0
DA:217,0
DA:218,0
DA:219,0
DA:220,0
DA:222,0
DA:224,0
DA:225,0
DA:226,0
DA:227,0
DA:228,0
DA:229,0
DA:230,0
DA:231,0
DA:234,0
DA:235,0
DA:236,0
DA:237,0
DA:238,0
DA:239,0
DA:240,0
DA:241,0
DA:244,0
DA:245,0
DA:246,0
DA:247,0
DA:248,0
DA:249,0
DA:250,0
DA:251,0
DA:252,0
DA:253,0
DA:254,0
DA:255,0
DA:256,0
DA:258,0
DA:259,0
DA:260,0
DA:262,0
DA:263,0
DA:264,0
DA:265,0
DA:266,0
DA:268,0
DA:269,0
DA:270,0
DA:271,0
DA:272,0
DA:274,0
DA:275,0
DA:276,0
DA:277,0
DA:278,0
DA:279,0
DA:280,0
DA:282,0
DA:283,0
DA:284,0
DA:285,0
DA:286,0
DA:289,0
DA:290,0
DA:291,0
DA:293,0
DA:294,0
DA:295,0
DA:296,0
DA:297,0
DA:299,0
DA:300,0
DA:302,0
DA:303,0
DA:304,0
DA:305,0
DA:306,0
DA:307,0
DA:308,0
DA:309,0
DA:310,0
DA:311,0
DA:314,0
DA:315,0
DA:316,0
DA:317,0
DA:318,0
DA:319,0
DA:320,0
DA:321,0
DA:322,0
DA:323,0
DA:324,0
DA:325,0
DA:326,0
DA:327,0
DA:328,0
DA:329,0
DA:330,0
DA:331,0
DA:332,0
DA:333,0
DA:334,0
DA:335,0
DA:336,0
DA:337,0
DA:338,0
DA:339,0
DA:340,0
DA:341,0
DA:342,0
DA:343,0
DA:344,0
DA:345,0
DA:347,0
DA:348,0
DA:349,0
DA:350,0
DA:351,0
DA:352,0
DA:353,0
DA:354,0
DA:355,0
DA:356,0
DA:357,0
DA:358,0
DA:359,0
DA:360,0
DA:361,0
DA:362,0
DA:363,0
DA:364,0
DA:365,0
DA:366,0
DA:367,0
DA:368,0
DA:369,0
DA:371,0
DA:372,0
DA:373,0
DA:374,0
DA:375,0
DA:376,0
DA:377,0
DA:378,0
DA:381,0
DA:382,0
DA:383,0
DA:384,0
DA:385,0
DA:386,0
DA:387,0
DA:388,0
DA:391,0
DA:392,0
DA:393,0
DA:394,0
DA:395,0
DA:396,0
DA:397,0
DA:398,0
DA:399,0
DA:400,0
DA:401,0
DA:402,0
DA:403,0
DA:405,0
DA:406,0
DA:407,0
DA:409,0
DA:410,0
DA:411,0
DA:412,0
DA:413,0
DA:414,0
DA:415,0
DA:416,0
DA:417,0
DA:418,0
DA:419,0
DA:420,0
DA:421,0
DA:422,0
DA:423,0
DA:424,0
DA:425,0
DA:429,0
DA:430,0
DA:431,0
DA:432,0
DA:433,0
DA:434,0
DA:435,0
DA:436,0
DA:437,0
DA:438,0
DA:440,0
DA:441,0
DA:442,0
DA:443,0
DA:445,0
DA:446,0
DA:447,0
DA:448,0
DA:449,0
DA:452,0
DA:454,0
DA:456,0
DA:459,0
DA:461,0
DA:462,0
DA:463,0
DA:464,0
DA:465,0
DA:466,0
DA:467,0
DA:468,0
DA:469,0
DA:471,0
DA:472,0
DA:473,0
DA:474,0
DA:475,0
DA:476,0
DA:477,0
DA:478,0
DA:479,0
DA:480,0
DA:481,0
DA:482,0
DA:483,0
DA:484,0
DA:485,0
DA:486,0
DA:487,0
DA:489,0
DA:490,0
DA:491,0
DA:493,0
DA:494,0
DA:495,0
DA:496,0
DA:497,0
DA:498,0
DA:499,0
DA:500,0
DA:501,0
DA:503,0
DA:504,0
DA:505,0
DA:506,0
DA:509,0
DA:510,0
DA:511,0
DA:512,0
DA:513,0
DA:514,0
DA:515,0
DA:516,0
DA:518,0
DA:520,0
DA:521,0
DA:522,0
DA:523,0
DA:524,0
DA:525,0
DA:526,0
DA:527,0
DA:528,0
DA:530,0
DA:533,0
DA:534,0
DA:535,0
DA:536,0
DA:537,0
DA:538,0
DA:539,0
DA:540,0
DA:541,0
DA:542,0
DA:544,0
DA:545,0
DA:546,0
DA:547,0
DA:548,0
DA:551,0
DA:552,0
DA:553,0
DA:554,0
DA:555,0
DA:557,0
DA:558,0
DA:560,0
DA:561,0
DA:562,0
DA:563,0
DA:564,0
DA:565,0
DA:566,0
DA:567,0
DA:568,0
DA:569,0
DA:572,0
DA:573,0
DA:574,0
DA:575,0
DA:576,0
DA:577,0
DA:578,0
DA:579,0
DA:580,0
DA:581,0
DA:582,0
DA:583,0
DA:584,0
DA:585,0
DA:586,0
DA:587,0
DA:588,0
DA:589,0
DA:590,0
DA:591,0
DA:592,0
DA:593,0
DA:594,0
DA:595,0
DA:596,0
DA:597,0
DA:598,0
DA:599,0
DA:600,0
DA:601,0
DA:602,0
DA:603,0
DA:604,0
DA:605,0
DA:607,3
DA:608,3
DA:609,3
DA:610,3
DA:611,3
DA:612,3
DA:613,3
DA:614,3
DA:615,3
DA:616,3
DA:617,3
DA:618,3
DA:619,3
DA:620,3
DA:621,9
DA:622,3
DA:623,3
DA:624,3
DA:626,3
DA:627,3
DA:628,3
DA:629,3
DA:630,3
DA:632,3
DA:634,3
DA:635,3
DA:636,3
DA:637,3
DA:638,3
DA:640,3
DA:642,117
DA:643,3
DA:644,0
DA:645,0
DA:646,0
DA:647,0
DA:648,0
DA:649,0
DA:652,36
DA:653,3
DA:654,0
DA:655,0
DA:656,0
DA:657,0
DA:658,0
DA:659,0
DA:662,3
DA:663,3
DA:664,3
DA:665,3
DA:666,3
DA:667,3
DA:668,3
DA:669,3
DA:670,3
DA:671,3
DA:672,3
DA:673,3
DA:674,3
DA:676,3
DA:677,0
DA:678,3
DA:680,3
DA:682,3
DA:683,3
DA:684,3
DA:685,3
DA:686,3
DA:689,3
DA:690,0
DA:691,0
DA:692,1
DA:693,1
DA:694,1
DA:695,0
DA:696,0
DA:697,0
DA:698,0
DA:701,3
DA:702,3
DA:703,3
DA:704,3
DA:705,3
DA:706,3
DA:707,3
DA:708,3
DA:709,3
DA:710,3
DA:711,3
DA:712,3
DA:713,3
DA:714,3
DA:715,3
DA:716,3
DA:717,3
DA:718,3
DA:719,3
DA:720,3
DA:721,3
DA:722,3
DA:723,3
DA:724,3
DA:725,3
DA:726,3
DA:727,3
DA:728,3
DA:729,3
DA:730,3
DA:731,3
DA:732,3
DA:734,3
DA:735,3
DA:736,3
DA:738,3
DA:739,3
DA:740,3
DA:741,22
DA:742,19
DA:743,19
DA:744,19
DA:745,19
DA:746,0
DA:748,19
DA:749,3
DA:750,0
DA:751,0
DA:754,3
DA:755,3
DA:756,3
DA:757,3
DA:758,3
DA:759,19
DA:760,3
DA:761,3
DA:762,3
DA:763,0
DA:765,0
DA:767,3
DA:769,3
DA:770,3
DA:771,3
DA:772,3
DA:773,3
DA:775,3
DA:776,3
DA:777,3
DA:778,3
DA:779,3
DA:780,3
DA:781,3
DA:782,3
DA:783,3
DA:784,3
DA:785,3
DA:786,3
DA:787,3
DA:788,3
DA:789,3
DA:790,3
DA:791,3
DA:792,3
DA:793,3
DA:794,3
DA:795,3
DA:796,3
DA:797,3
DA:798,3
DA:799,3
DA:800,3
DA:801,3
DA:802,3
DA:803,3
DA:804,3
DA:805,3
DA:806,3
DA:807,3
DA:808,3
DA:809,3
DA:811,8
DA:812,8
DA:813,8
DA:814,8
DA:815,8
DA:816,8
DA:817,8
DA:818,8
DA:819,8
DA:820,8
DA:821,8
DA:822,8
DA:823,8
DA:824,8
DA:825,21
DA:826,8
DA:827,8
DA:828,8
DA:830,8
DA:831,8
DA:832,8
DA:833,8
DA:834,8
DA:836,8
DA:838,8
DA:839,8
DA:840,8
DA:841,8
DA:842,8
DA:844,8
DA:846,276
DA:847,8
DA:848,0
DA:849,0
DA:850,0
DA:851,0
DA:852,0
DA:853,0
DA:856,95
DA:857,8
DA:858,0
DA:859,0
DA:860,0
DA:861,0
DA:862,0
DA:863,0
DA:866,8
DA:867,8
DA:868,8
DA:869,8
DA:870,8
DA:871,8
DA:872,8
DA:873,8
DA:874,8
DA:875,8
DA:876,8
DA:877,7
DA:878,7
DA:880,8
DA:881,0
DA:882,8
DA:884,8
DA:885,8
DA:886,8
DA:887,8
DA:888,8
DA:890,8
DA:891,8
DA:892,8
DA:893,8
DA:894,8
DA:896,8
DA:897,8
DA:898,8
DA:899,8
DA:900,8
DA:901,8
DA:902,8
DA:903,8
DA:904,8
DA:905,8
DA:906,8
DA:908,8
DA:909,8
DA:910,8
DA:911,8
DA:912,8
DA:914,8
DA:915,8
DA:917,8
DA:918,8
DA:919,8
DA:920,8
DA:921,8
DA:924,8
DA:925,0
DA:926,0
DA:927,0
DA:928,1
DA:929,7
DA:930,0
DA:931,0
DA:932,0
DA:933,0
DA:936,8
DA:937,8
DA:938,8
DA:939,8
DA:940,8
DA:941,8
DA:942,8
DA:943,8
DA:944,8
DA:945,8
DA:946,8
DA:947,8
DA:948,8
DA:949,8
DA:950,8
DA:951,8
DA:952,8
DA:953,8
DA:954,8
DA:955,8
DA:956,8
DA:957,8
DA:958,8
DA:959,8
DA:960,8
DA:961,8
DA:962,8
DA:963,8
DA:964,8
DA:965,8
DA:966,8
DA:967,8
DA:979,1
DA:980,1
DA:981,1
DA:982,1
DA:983,1
DA:984,1
DA:985,1
DA:986,1
DA:987,1
DA:988,1
DA:989,1
DA:990,1
DA:991,1
DA:992,1
DA:993,1
DA:994,1
DA:995,1
DA:996,1
DA:997,1
DA:998,1
DA:999,1
DA:1000,1
DA:1001,1
DA:1002,1
DA:1003,41
DA:1004,1
DA:1005,1
DA:1006,1
DA:1007,1
DA:1008,1
DA:1009,1
DA:1010,1
DA:1011,1
DA:1012,1
DA:1013,1
DA:1014,1
DA:1015,1
DA:1016,1
DA:1017,1
DA:1018,1
DA:1019,1
DA:1020,1
DA:1021,1
DA:1022,1
DA:1023,1
DA:1024,1
DA:1025,1
DA:1026,1
DA:1027,1
DA:1028,1
DA:1029,1
DA:1030,1
DA:1031,1
DA:1032,1
DA:1033,1
DA:1036,1
DA:1037,1
DA:1038,1
DA:1039,1
DA:1040,1
DA:1041,1
DA:1042,1
DA:1043,1
DA:1044,1
DA:1045,1
DA:1046,1
DA:1047,1
DA:1048,1
DA:1049,1
DA:1050,1
DA:1051,1
DA:1052,1
DA:1053,1
DA:1054,1
DA:1055,1
DA:1056,1
DA:1057,1
DA:1058,1
DA:1059,1
DA:1060,431
DA:1061,1
DA:1062,1
DA:1063,1
DA:1064,1
DA:1065,1
DA:1066,1
DA:1067,1
DA:1068,1
DA:1069,1
DA:1070,1
DA:1071,1
DA:1072,1
DA:1073,1
DA:1074,1
DA:1075,1
DA:1076,1
DA:1077,1
DA:1078,1
DA:1079,1
DA:1080,1
DA:1081,1
DA:1082,1
DA:1083,1
DA:1084,1
DA:1085,1
DA:1086,1
DA:1087,1
DA:1088,1
DA:1089,1
DA:1090,1
DA:1093,1
DA:1094,1
DA:1095,1
DA:1096,1
DA:1097,1
DA:1098,1
DA:1099,1
DA:1100,1
DA:1101,1
DA:1102,1
DA:1103,1
DA:1104,1
DA:1105,1
DA:1106,1
DA:1107,1
DA:1108,1
DA:1109,1
DA:1110,1
DA:1111,1
DA:1112,1
DA:1113,1
DA:1114,1
DA:1115,1
DA:1116,1
DA:1117,145
DA:1118,1
DA:1119,1
DA:1120,1
DA:1121,1
DA:1122,1
DA:1123,1
DA:1124,1
DA:1125,1
DA:1126,1
DA:1127,1
DA:1128,1
DA:1129,1
DA:1130,1
DA:1131,1
DA:1132,1
DA:1133,1
DA:1134,1
DA:1135,1
DA:1136,1
DA:1137,1
DA:1138,1
DA:1139,1
DA:1140,1
DA:1141,1
DA:1142,1
DA:1143,1
DA:1144,1
DA:1145,1
DA:1146,1
DA:1147,1
DA:1150,1
DA:1151,1
DA:1152,1
DA:1153,1
DA:1154,1
DA:1155,1
DA:1156,1
DA:1157,1
DA:1158,1
DA:1159,1
DA:1160,1
DA:1161,1
DA:1162,1
DA:1163,1
DA:1164,1
DA:1165,1
DA:1166,1
DA:1167,1
DA:1168,1
DA:1169,1
DA:1170,1
DA:1171,1
DA:1172,1
DA:1173,1
DA:1174,73
DA:1175,1
DA:1176,1
DA:1177,1
DA:1178,1
DA:1179,1
DA:1180,1
DA:1181,1
DA:1182,1
DA:1183,1
DA:1184,1
DA:1185,1
DA:1186,1
DA:1187,1
DA:1188,1
DA:1189,1
DA:1190,1
DA:1191,1
DA:1192,1
DA:1193,1
DA:1194,1
DA:1195,1
DA:1196,1
DA:1197,1
DA:1198,1
DA:1199,1
DA:1200,1
DA:1201,1
DA:1202,1
DA:1203,1
DA:1204,1
DA:1208,0
DA:1209,0
DA:1210,0
DA:1211,0
DA:1212,0
DA:1213,0
DA:1214,0
DA:1215,0
DA:1216,0
DA:1217,0
DA:1218,0
DA:1219,0
DA:1220,0
DA:1221,0
DA:1222,0
DA:1223,0
DA:1224,0
DA:1225,0
DA:1226,0
DA:1227,0
DA:1228,0
DA:1229,0
DA:1230,0
DA:1231,0
DA:1232,0
DA:1233,0
DA:1234,0
DA:1235,0
DA:1236,0
DA:1237,0
DA:1238,0
DA:1239,0
DA:1240,0
DA:1241,0
DA:1242,0
DA:1243,0
DA:1244,0
DA:1245,0
DA:1246,0
DA:1247,0
DA:1248,0
DA:1249,0
DA:1250,0
DA:1251,0
DA:1252,0
DA:1253,0
DA:1254,0
DA:1255,0
DA:1256,0
DA:1257,0
DA:1258,0
DA:1259,0
DA:1260,0
DA:1261,0
DA:1262,0
DA:1266,0
DA:1267,0
DA:1268,0
DA:1269,0
DA:1270,0
DA:1271,0
DA:1272,0
DA:1273,0
DA:1274,0
DA:1275,0
DA:1276,0
DA:1277,0
DA:1278,0
DA:1279,0
DA:1280,0
DA:1281,0
DA:1282,0
DA:1283,0
DA:1284,0
DA:1285,0
DA:1286,0
DA:1287,0
DA:1288,0
DA:1289,0
DA:1290,0
DA:1291,0
DA:1292,0
DA:1293,0
DA:1294,0
DA:1295,0
DA:1296,0
DA:1297,0
DA:1298,0
DA:1299,0
DA:1300,0
DA:1301,0
DA:1302,0
DA:1303,0
DA:1304,0
DA:1305,0
DA:1306,0
DA:1307,0
DA:1308,0
DA:1309,0
DA:1310,0
DA:1311,0
DA:1312,0
DA:1313,0
DA:1314,0
DA:1315,0
DA:1316,0
DA:1317,0
DA:1318,0
DA:1319,0
DA:1320,0
DA:1324,0
DA:1325,0
DA:1326,0
DA:1327,0
DA:1328,0
DA:1329,0
DA:1330,0
DA:1331,0
DA:1332,0
DA:1333,0
DA:1334,0
DA:1335,0
DA:1336,0
DA:1337,0
DA:1338,0
DA:1339,0
DA:1340,0
DA:1341,0
DA:1342,0
DA:1343,0
DA:1344,0
DA:1345,0
DA:1346,0
DA:1347,0
DA:1348,0
DA:1349,0
DA:1350,0
DA:1351,0
DA:1352,0
DA:1353,0
DA:1354,0
DA:1355,0
DA:1356,0
DA:1357,0
DA:1358,0
DA:1359,0
DA:1360,0
DA:1361,0
DA:1362,0
DA:1363,0
DA:1364,0
DA:1365,0
DA:1366,0
DA:1367,0
DA:1368,0
DA:1369,0
DA:1370,0
DA:1371,0
DA:1372,0
DA:1373,0
DA:1374,0
DA:1375,0
DA:1376,0
DA:1377,0
DA:1378,0
DA:1382,0
DA:1383,0
DA:1384,0
DA:1385,0
DA:1386,0
DA:1387,0
DA:1388,0
DA:1389,0
DA:1390,0
DA:1391,0
DA:1392,0
DA:1393,0
DA:1394,0
DA:1395,0
DA:1396,0
DA:1397,0
DA:1398,0
DA:1399,0
DA:1400,0
DA:1401,0
DA:1402,0
DA:1403,0
DA:1404,0
DA:1405,0
DA:1406,0
DA:1407,0
DA:1408,0
DA:1409,0
DA:1410,0
DA:1411,0
DA:1412,0
DA:1413,0
DA:1414,0
DA:1415,0
DA:1416,0
DA:1417,0
DA:1418,0
DA:1419,0
DA:1420,0
DA:1421,0
DA:1422,0
DA:1423,0
DA:1424,0
DA:1425,0
DA:1426,0
DA:1427,0
DA:1428,0
DA:1429,0
DA:1430,0
DA:1431,0
DA:1432,0
DA:1433,0
DA:1434,0
DA:1435,0
DA:1436,0
BRF:0
BRH:0
LF:1640
LH:774
end_of_record
SF:/Users/andrei/git/proposalsapp/apps/detective/indexers/optimism_votes.rs
FN:31,_RNvMNtNtCsmdD2PK2ogL_9detective8indexers14optimism_votesNtB2_20OptimismVotesIndexer24proposal_indexer_variant
FN:94,_RNvXs_NtNtCsmdD2PK2ogL_9detective8indexers14optimism_votesNtB4_20OptimismVotesIndexerNtNtB8_7indexer7Indexer17min_refresh_speed
FN:98,_RNvXs_NtNtCsmdD2PK2ogL_9detective8indexers14optimism_votesNtB4_20OptimismVotesIndexerNtNtB8_7indexer7Indexer17max_refresh_speed
FN:198,_RNvXNvXNvNCNvNtNtCsmdD2PK2ogL_9detective8indexers14optimism_votes21get_votes_with_params01__NtB7_16ProposalMetadataNtNtCsi2zptu4QhLv_5serde2de11Deserialize11deserializeNtB2_14___FieldVisitorNtB1R_7Visitor9expecting
FN:198,_RINvXNvXNvNCNvNtNtCsmdD2PK2ogL_9detective8indexers14optimism_votes21get_votes_with_params01__NtB8_16ProposalMetadataNtNtCsi2zptu4QhLv_5serde2de11Deserialize11deserializeNtB3_14___FieldVisitorNtB1S_7Visitor9visit_u64pEBg_
FN:198,_RINvXNvXNvNCNvNtNtCsmdD2PK2ogL_9detective8indexers14optimism_votes21get_votes_with_params01__NtB8_16ProposalMetadataNtNtCsi2zptu4QhLv_5serde2de11Deserialize11deserializeNtB3_14___FieldVisitorNtB1S_7Visitor11visit_bytespEBg_
FN:296,_RNCNvNtNtNtCsmdD2PK2ogL_9detective8indexers14optimism_votes14optimism_votess_16optimism_votes_10B9_
FN:346,_RNCNvNtNtNtCsmdD2PK2ogL_9detective8indexers14optimism_votes14optimism_votess_16optimism_votes_20B9_
FN:396,_RNCNvNtNtNtCsmdD2PK2ogL_9detective8indexers14optimism_votes14optimism_votess_16optimism_votes_30B9_
FN:446,_RNCNvNtNtNtCsmdD2PK2ogL_9detective8indexers14optimism_votes14optimism_votess_16optimism_votes_40B9_
FN:496,_RNCNvNtNtNtCsmdD2PK2ogL_9detective8indexers14optimism_votes14optimism_votess_16optimism_votes_50B9_
FN:546,_RNCNvNtNtNtCsmdD2PK2ogL_9detective8indexers14optimism_votes14optimism_votess_16optimism_votes_60B9_
FN:596,_RNCNvNtNtNtCsmdD2PK2ogL_9detective8indexers14optimism_votes14optimism_votess_16optimism_votes_70B9_
FN:646,_RNCNvNtNtNtCsmdD2PK2ogL_9detective8indexers14optimism_votes14optimism_votess_16optimism_votes_80B9_
FN:296,_RNvNtNtNtCsmdD2PK2ogL_9detective8indexers14optimism_votes14optimism_votess_16optimism_votes_1
FN:346,_RNvNtNtNtCsmdD2PK2ogL_9detective8indexers14optimism_votes14optimism_votess_16optimism_votes_2
FN:396,_RNvNtNtNtCsmdD2PK2ogL_9detective8indexers14optimism_votes14optimism_votess_16optimism_votes_3
FN:446,_RNvNtNtNtCsmdD2PK2ogL_9detective8indexers14optimism_votes14optimism_votess_16optimism_votes_4
FN:496,_RNvNtNtNtCsmdD2PK2ogL_9detective8indexers14optimism_votes14optimism_votess_16optimism_votes_5
FN:546,_RNvNtNtNtCsmdD2PK2ogL_9detective8indexers14optimism_votes14optimism_votess_16optimism_votes_6
FN:596,_RNvNtNtNtCsmdD2PK2ogL_9detective8indexers14optimism_votes14optimism_votess_16optimism_votes_7
FN:646,_RNvNtNtNtCsmdD2PK2ogL_9detective8indexers14optimism_votes14optimism_votess_16optimism_votes_8
FN:107,_RNCNvNtNtCsmdD2PK2ogL_9detective8indexers14optimism_votes9get_votes0B7_
FN:154,_RNCNvNtNtCsmdD2PK2ogL_9detective8indexers14optimism_votes21get_votes_with_params0B7_
FN:185,_RNCNCNvNtNtCsmdD2PK2ogL_9detective8indexers14optimism_votes21get_votes_with_params00B9_
FN:212,_RNCNCNvNtNtCsmdD2PK2ogL_9detective8indexers14optimism_votes21get_votes_with_params0s_0B9_
FN:233,_RNCNCNvNtNtCsmdD2PK2ogL_9detective8indexers14optimism_votes21get_votes_with_params0s0_0B9_
FN:253,_RNCNCNvNtNtCsmdD2PK2ogL_9detective8indexers14optimism_votes21get_votes_with_params0s1_0B9_
FN:42,_RNCNvXs_NtNtCsmdD2PK2ogL_9detective8indexers14optimism_votesNtB6_20OptimismVotesIndexerNtNtBa_7indexer7Indexer7process0Ba_
FN:198,_RINvXNvXNvNCNvNtNtCsmdD2PK2ogL_9detective8indexers14optimism_votes21get_votes_with_params01__NtB8_16ProposalMetadataNtNtCsi2zptu4QhLv_5serde2de11Deserialize11deserializeNtB3_14___FieldVisitorNtB1S_7Visitor9visit_strNtNtCslSvSW0ZHiud_10serde_json5error5ErrorEBg_
FN:198,_RINvXs_NvXNvNCNvNtNtCsmdD2PK2ogL_9detective8indexers14optimism_votes21get_votes_with_params01__NtBa_16ProposalMetadataNtNtCsi2zptu4QhLv_5serde2de11Deserialize11deserializeNtB5_7___FieldB1S_11deserializeNtNtNtCslSvSW0ZHiud_10serde_json5value2de18MapKeyDeserializerEBi_
FN:198,_RINvXs0_NvXNvNCNvNtNtCsmdD2PK2ogL_9detective8indexers14optimism_votes21get_votes_with_params01__NtBb_16ProposalMetadataNtNtCsi2zptu4QhLv_5serde2de11Deserialize11deserializeNtB6_9___VisitorNtB1V_7Visitor9visit_seqQNtNtNtCslSvSW0ZHiud_10serde_json5value2de15SeqDeserializerEBj_
FN:198,_RINvXs0_NvXNvNCNvNtNtCsmdD2PK2ogL_9detective8indexers14optimism_votes21get_votes_with_params01__NtBb_16ProposalMetadataNtNtCsi2zptu4QhLv_5serde2de11Deserialize11deserializeNtB6_9___VisitorNtB1V_7Visitor9visit_mapQNtNtNtCslSvSW0ZHiud_10serde_json5value2de15MapDeserializerEBj_
FN:103,_RNvNtNtCsmdD2PK2ogL_9detective8indexers14optimism_votes9get_votes
FN:150,_RNvNtNtCsmdD2PK2ogL_9detective8indexers14optimism_votes21get_votes_with_params
FN:92,_RNvXs_NtNtCsmdD2PK2ogL_9detective8indexers14optimism_votesNtB4_20OptimismVotesIndexerNtNtB8_7indexer7Indexer7process
FN:198,_RNvXs0_NvXNvNCNvNtNtCsmdD2PK2ogL_9detective8indexers14optimism_votes21get_votes_with_params01__NtBa_16ProposalMetadataNtNtCsi2zptu4QhLv_5serde2de11Deserialize11deserializeNtB5_9___VisitorNtB1U_7Visitor9expecting
FNDA:0,_RNvMNtNtCsmdD2PK2ogL_9detective8indexers14optimism_votesNtB2_20OptimismVotesIndexer24proposal_indexer_variant
FNDA:0,_RNvXs_NtNtCsmdD2PK2ogL_9detective8indexers14optimism_votesNtB4_20OptimismVotesIndexerNtNtB8_7indexer7Indexer17min_refresh_speed
FNDA:0,_RNvXs_NtNtCsmdD2PK2ogL_9detective8indexers14optimism_votesNtB4_20OptimismVotesIndexerNtNtB8_7indexer7Indexer17max_refresh_speed
FNDA:0,_RNvXNvXNvNCNvNtNtCsmdD2PK2ogL_9detective8indexers14optimism_votes21get_votes_with_params01__NtB7_16ProposalMetadataNtNtCsi2zptu4QhLv_5serde2de11Deserialize11deserializeNtB2_14___FieldVisitorNtB1R_7Visitor9expecting
FNDA:0,_RINvXNvXNvNCNvNtNtCsmdD2PK2ogL_9detective8indexers14optimism_votes21get_votes_with_params01__NtB8_16ProposalMetadataNtNtCsi2zptu4QhLv_5serde2de11Deserialize11deserializeNtB3_14___FieldVisitorNtB1S_7Visitor9visit_u64pEBg_
FNDA:0,_RINvXNvXNvNCNvNtNtCsmdD2PK2ogL_9detective8indexers14optimism_votes21get_votes_with_params01__NtB8_16ProposalMetadataNtNtCsi2zptu4QhLv_5serde2de11Deserialize11deserializeNtB3_14___FieldVisitorNtB1S_7Visitor11visit_bytespEBg_
FNDA:0,_RNCNvNtNtNtCsmdD2PK2ogL_9detective8indexers14optimism_votes14optimism_votess_16optimism_votes_10B9_
FNDA:0,_RNCNvNtNtNtCsmdD2PK2ogL_9detective8indexers14optimism_votes14optimism_votess_16optimism_votes_20B9_
FNDA:0,_RNCNvNtNtNtCsmdD2PK2ogL_9detective8indexers14optimism_votes14optimism_votess_16optimism_votes_30B9_
FNDA:0,_RNCNvNtNtNtCsmdD2PK2ogL_9detective8indexers14optimism_votes14optimism_votess_16optimism_votes_40B9_
FNDA:0,_RNCNvNtNtNtCsmdD2PK2ogL_9detective8indexers14optimism_votes14optimism_votess_16optimism_votes_50B9_
FNDA:0,_RNCNvNtNtNtCsmdD2PK2ogL_9detective8indexers14optimism_votes14optimism_votess_16optimism_votes_60B9_
FNDA:0,_RNCNvNtNtNtCsmdD2PK2ogL_9detective8indexers14optimism_votes14optimism_votess_16optimism_votes_70B9_
FNDA:0,_RNCNvNtNtNtCsmdD2PK2ogL_9detective8indexers14optimism_votes14optimism_votess_16optimism_votes_80B9_
FNDA:0,_RNvNtNtNtCsmdD2PK2ogL_9detective8indexers14optimism_votes14optimism_votess_16optimism_votes_1
FNDA:0,_RNvNtNtNtCsmdD2PK2ogL_9detective8indexers14optimism_votes14optimism_votess_16optimism_votes_2
FNDA:0,_RNvNtNtNtCsmdD2PK2ogL_9detective8indexers14optimism_votes14optimism_votess_16optimism_votes_3
FNDA:0,_RNvNtNtNtCsmdD2PK2ogL_9detective8indexers14optimism_votes14optimism_votess_16optimism_votes_4
FNDA:0,_RNvNtNtNtCsmdD2PK2ogL_9detective8indexers14optimism_votes14optimism_votess_16optimism_votes_5
FNDA:0,_RNvNtNtNtCsmdD2PK2ogL_9detective8indexers14optimism_votes14optimism_votess_16optimism_votes_6
FNDA:0,_RNvNtNtNtCsmdD2PK2ogL_9detective8indexers14optimism_votes14optimism_votess_16optimism_votes_7
FNDA:0,_RNvNtNtNtCsmdD2PK2ogL_9detective8indexers14optimism_votes14optimism_votess_16optimism_votes_8
FNDA:0,_RNCNvNtNtCsmdD2PK2ogL_9detective8indexers14optimism_votes9get_votes0B7_
FNDA:0,_RNCNvNtNtCsmdD2PK2ogL_9detective8indexers14optimism_votes21get_votes_with_params0B7_
FNDA:0,_RNCNCNvNtNtCsmdD2PK2ogL_9detective8indexers14optimism_votes21get_votes_with_params00B9_
FNDA:0,_RNCNCNvNtNtCsmdD2PK2ogL_9detective8indexers14optimism_votes21get_votes_with_params0s_0B9_
FNDA:0,_RNCNCNvNtNtCsmdD2PK2ogL_9detective8indexers14optimism_votes21get_votes_with_params0s0_0B9_
FNDA:0,_RNCNCNvNtNtCsmdD2PK2ogL_9detective8indexers14optimism_votes21get_votes_with_params0s1_0B9_
FNDA:0,_RNCNvXs_NtNtCsmdD2PK2ogL_9detective8indexers14optimism_votesNtB6_20OptimismVotesIndexerNtNtBa_7indexer7Indexer7process0Ba_
FNDA:0,_RINvXNvXNvNCNvNtNtCsmdD2PK2ogL_9detective8indexers14optimism_votes21get_votes_with_params01__NtB8_16ProposalMetadataNtNtCsi2zptu4QhLv_5serde2de11Deserialize11deserializeNtB3_14___FieldVisitorNtB1S_7Visitor9visit_strNtNtCslSvSW0ZHiud_10serde_json5error5ErrorEBg_
FNDA:0,_RINvXs_NvXNvNCNvNtNtCsmdD2PK2ogL_9detective8indexers14optimism_votes21get_votes_with_params01__NtBa_16ProposalMetadataNtNtCsi2zptu4QhLv_5serde2de11Deserialize11deserializeNtB5_7___FieldB1S_11deserializeNtNtNtCslSvSW0ZHiud_10serde_json5value2de18MapKeyDeserializerEBi_
FNDA:0,_RINvXs0_NvXNvNCNvNtNtCsmdD2PK2ogL_9detective8indexers14optimism_votes21get_votes_with_params01__NtBb_16ProposalMetadataNtNtCsi2zptu4QhLv_5serde2de11Deserialize11deserializeNtB6_9___VisitorNtB1V_7Visitor9visit_seqQNtNtNtCslSvSW0ZHiud_10serde_json5value2de15SeqDeserializerEBj_
FNDA:0,_RINvXs0_NvXNvNCNvNtNtCsmdD2PK2ogL_9detective8indexers14optimism_votes21get_votes_with_params01__NtBb_16ProposalMetadataNtNtCsi2zptu4QhLv_5serde2de11Deserialize11deserializeNtB6_9___VisitorNtB1V_7Visitor9visit_mapQNtNtNtCslSvSW0ZHiud_10serde_json5value2de15MapDeserializerEBj_
FNDA:0,_RNvNtNtCsmdD2PK2ogL_9detective8indexers14optimism_votes9get_votes
FNDA:0,_RNvNtNtCsmdD2PK2ogL_9detective8indexers14optimism_votes21get_votes_with_params
FNDA:0,_RNvXs_NtNtCsmdD2PK2ogL_9detective8indexers14optimism_votesNtB4_20OptimismVotesIndexerNtNtB8_7indexer7Indexer7process
FNDA:0,_RNvXs0_NvXNvNCNvNtNtCsmdD2PK2ogL_9detective8indexers14optimism_votes21get_votes_with_params01__NtBa_16ProposalMetadataNtNtCsi2zptu4QhLv_5serde2de11Deserialize11deserializeNtB5_9___VisitorNtB1U_7Visitor9expecting
FNF:30
FNH:0
DA:31,0
DA:32,0
DA:33,0
DA:42,0
DA:43,0
DA:45,0
DA:47,0
DA:48,0
DA:49,0
DA:50,0
DA:52,0
DA:53,0
DA:54,0
DA:56,0
DA:59,0
DA:60,0
DA:61,0
DA:63,0
DA:64,0
DA:65,0
DA:66,0
DA:67,0
DA:68,0
DA:69,0
DA:70,0
DA:72,0
DA:73,0
DA:74,0
DA:75,0
DA:76,0
DA:77,0
DA:78,0
DA:79,0
DA:81,0
DA:82,0
DA:83,0
DA:85,0
DA:86,0
DA:87,0
DA:89,0
DA:90,0
DA:91,0
DA:92,0
DA:94,0
DA:95,0
DA:96,0
DA:98,0
DA:99,0
DA:100,0
DA:103,0
DA:104,0
DA:105,0
DA:106,0
DA:107,0
DA:108,0
DA:109,0
DA:110,0
DA:112,0
DA:113,0
DA:114,0
DA:115,0
DA:116,0
DA:117,0
DA:118,0
DA:119,0
DA:120,0
DA:121,0
DA:122,0
DA:123,0
DA:124,0
DA:125,0
DA:126,0
DA:127,0
DA:128,0
DA:129,0
DA:130,0
DA:131,0
DA:132,0
DA:133,0
DA:134,0
DA:135,0
DA:136,0
DA:137,0
DA:138,0
DA:139,0
DA:140,0
DA:141,0
DA:142,0
DA:143,0
DA:144,0
DA:147,0
DA:148,0
DA:150,0
DA:151,0
DA:152,0
DA:153,0
DA:154,0
DA:155,0
DA:157,0
DA:158,0
DA:159,0
DA:161,0
DA:162,0
DA:163,0
DA:164,0
DA:165,0
DA:166,0
DA:167,0
DA:168,0
DA:169,0
DA:170,0
DA:171,0
DA:172,0
DA:173,0
DA:174,0
DA:175,0
DA:176,0
DA:178,0
DA:179,0
DA:180,0
DA:181,0
DA:182,0
DA:183,0
DA:184,0
DA:185,0
DA:186,0
DA:188,0
DA:189,0
DA:190,0
DA:191,0
DA:192,0
DA:193,0
DA:194,0
DA:195,0
DA:196,0
DA:198,0
DA:203,0
DA:204,0
DA:206,0
DA:207,0
DA:208,0
DA:210,0
DA:211,0
DA:212,0
DA:214,0
DA:215,0
DA:216,0
DA:217,0
DA:218,0
DA:219,0
DA:220,0
DA:221,0
DA:222,0
DA:223,0
DA:224,0
DA:225,0
DA:226,0
DA:227,0
DA:228,0
DA:231,0
DA:232,0
DA:233,0
DA:234,0
DA:236,0
DA:238,0
DA:239,0
DA:240,0
DA:241,0
DA:242,0
DA:243,0
DA:244,0
DA:245,0
DA:246,0
DA:248,0
DA:249,0
DA:251,0
DA:252,0
DA:253,0
DA:255,0
DA:256,0
DA:257,0
DA:258,0
DA:259,0
DA:260,0
DA:261,0
DA:262,0
DA:264,0
DA:265,0
DA:266,0
DA:267,0
DA:268,0
DA:269,0
DA:270,0
DA:271,0
DA:272,0
DA:273,0
DA:274,0
DA:275,0
DA:276,0
DA:277,0
DA:278,0
DA:279,0
DA:280,0
DA:281,0
DA:284,0
DA:285,0
DA:296,0
DA:297,0
DA:298,0
DA:299,0
DA:300,0
DA:301,0
DA:302,0
DA:303,0
DA:304,0
DA:305,0
DA:306,0
DA:307,0
DA:308,0
DA:309,0
DA:310,0
DA:311,0
DA:312,0
DA:313,0
DA:314,0
DA:315,0
DA:316,0
DA:317,0
DA:318,0
DA:319,0
DA:320,0
DA:321,0
DA:322,0
DA:323,0
DA:324,0
DA:325,0
DA:326,0
DA:327,0
DA:328,0
DA:329,0
DA:330,0
DA:331,0
DA:332,0
DA:333,0
DA:334,0
DA:335,0
DA:336,0
DA:337,0
DA:338,0
DA:339,0
DA:340,0
DA:341,0
DA:342,0
DA:346,0
DA:347,0
DA:348,0
DA:349,0
DA:350,0
DA:351,0
DA:352,0
DA:353,0
DA:354,0
DA:355,0
DA:356,0
DA:357,0
DA:358,0
DA:359,0
DA:360,0
DA:361,0
DA:362,0
DA:363,0
DA:364,0
DA:365,0
DA:366,0
DA:367,0
DA:368,0
DA:369,0
DA:370,0
DA:371,0
DA:372,0
DA:373,0
DA:374,0
DA:375,0
DA:376,0
DA:377,0
DA:378,0
DA:379,0
DA:380,0
DA:381,0
DA:382,0
DA:383,0
DA:384,0
DA:385,0
DA:386,0
DA:387,0
DA:388,0
DA:389,0
DA:390,0
DA:391,0
DA:392,0
DA:396,0
DA:397,0
DA:398,0
DA:399,0
DA:400,0
DA:401,0
DA:402,0
DA:403,0
DA:404,0
DA:405,0
DA:406,0
DA:407,0
DA:408,0
DA:409,0
DA:410,0
DA:411,0
DA:412,0
DA:413,0
DA:414,0
DA:415,0
DA:416,0
DA:417,0
DA:418,0
DA:419,0
DA:420,0
DA:421,0
DA:422,0
DA:423,0
DA:424,0
DA:425,0
DA:426,0
DA:427,0
DA:428,0
DA:429,0
DA:430,0
DA:431,0
DA:432,0
DA:433,0
DA:434,0
DA:435,0
DA:436,0
DA:437,0
DA:438,0
DA:439,0
DA:440,0
DA:441,0
DA:442,0
DA:446,0
DA:447,0
DA:448,0
DA:449,0
DA:450,0
DA:451,0
DA:452,0
DA:453,0
DA:454,0
DA:455,0
DA:456,0
DA:457,0
DA:458,0
DA:459,0
DA:460,0
DA:461,0
DA:462,0
DA:463,0
DA:464,0
DA:465,0
DA:466,0
DA:467,0
DA:468,0
DA:469,0
DA:470,0
DA:471,0
DA:472,0
DA:473,0
DA:474,0
DA:475,0
DA:476,0
DA:477,0
DA:478,0
DA:479,0
DA:480,0
DA:481,0
DA:482,0
DA:483,0
DA:484,0
DA:485,0
DA:486,0
DA:487,0
DA:488,0
DA:489,0
DA:490,0
DA:491,0
DA:492,0
DA:496,0
DA:497,0
DA:498,0
DA:499,0
DA:500,0
DA:501,0
DA:502,0
DA:503,0
DA:504,0
DA:505,0
DA:506,0
DA:507,0
DA:508,0
DA:509,0
DA:510,0
DA:511,0
DA:512,0
DA:513,0
DA:514,0
DA:515,0
DA:516,0
DA:517,0
DA:518,0
DA:519,0
DA:520,0
DA:521,0
DA:522,0
DA:523,0
DA:524,0
DA:525,0
DA:526,0
DA:527,0
DA:528,0
DA:529,0
DA:530,0
DA:531,0
DA:532,0
DA:533,0
DA:534,0
DA:535,0
DA:536,0
DA:537,0
DA:538,0
DA:539,0
DA:540,0
DA:541,0
DA:542,0
DA:546,0
DA:547,0
DA:548,0
DA:549,0
DA:550,0
DA:551,0
DA:552,0
DA:553,0
DA:554,0
DA:555,0
DA:556,0
DA:557,0
DA:558,0
DA:559,0
DA:560,0
DA:561,0
DA:562,0
DA:563,0
DA:564,0
DA:565,0
DA:566,0
DA:567,0
DA:568,0
DA:569,0
DA:570,0
DA:571,0
DA:572,0
DA:573,0
DA:574,0
DA:575,0
DA:576,0
DA:577,0
DA:578,0
DA:579,0
DA:580,0
DA:581,0
DA:582,0
DA:583,0
DA:584,0
DA:585,0
DA:586,0
DA:587,0
DA:588,0
DA:589,0
DA:590,0
DA:591,0
DA:592,0
DA:596,0
DA:597,0
DA:598,0
DA:599,0
DA:600,0
DA:601,0
DA:602,0
DA:603,0
DA:604,0
DA:605,0
DA:606,0
DA:607,0
DA:608,0
DA:609,0
DA:610,0
DA:611,0
DA:612,0
DA:613,0
DA:614,0
DA:615,0
DA:616,0
DA:617,0
DA:618,0
DA:619,0
DA:620,0
DA:621,0
DA:622,0
DA:623,0
DA:624,0
DA:625,0
DA:626,0
DA:627,0
DA:628,0
DA:629,0
DA:630,0
DA:631,0
DA:632,0
DA:633,0
DA:634,0
DA:635,0
DA:636,0
DA:637,0
DA:638,0
DA:639,0
DA:640,0
DA:641,0
DA:642,0
DA:646,0
DA:647,0
DA:648,0
DA:649,0
DA:650,0
DA:651,0
DA:652,0
DA:653,0
DA:654,0
DA:655,0
DA:656,0
DA:657,0
DA:658,0
DA:659,0
DA:660,0
DA:661,0
DA:662,0
DA:663,0
DA:664,0
DA:665,0
DA:666,0
DA:667,0
DA:668,0
DA:669,0
DA:670,0
DA:671,0
DA:672,0
DA:673,0
DA:674,0
DA:675,0
DA:676,0
DA:677,0
DA:678,0
DA:679,0
DA:680,0
DA:681,0
DA:682,0
DA:683,0
DA:684,0
DA:685,0
DA:686,0
DA:687,0
DA:688,0
DA:689,0
DA:690,0
DA:691,0
DA:692,0
BRF:0
BRH:0
LF:941
LH:0
end_of_record
SF:/Users/andrei/git/proposalsapp/apps/detective/indexers/snapshot_proposals.rs
FN:11,_RNvXNvXNvNtNtCsmdD2PK2ogL_9detective8indexers18snapshot_proposals1__NtB7_15GraphQLResponseNtNtCsi2zptu4QhLv_5serde2de11Deserialize11deserializeNtB2_14___FieldVisitorNtB1s_7Visitor9expecting
FN:11,_RINvXNvXNvNtNtCsmdD2PK2ogL_9detective8indexers18snapshot_proposals1__NtB8_15GraphQLResponseNtNtCsi2zptu4QhLv_5serde2de11Deserialize11deserializeNtB3_14___FieldVisitorNtB1t_7Visitor9visit_u64pEBc_
FN:11,_RINvXNvXNvNtNtCsmdD2PK2ogL_9detective8indexers18snapshot_proposals1__NtB8_15GraphQLResponseNtNtCsi2zptu4QhLv_5serde2de11Deserialize11deserializeNtB3_14___FieldVisitorNtB1t_7Visitor11visit_bytespEBc_
FN:16,_RNvXNvXNvNtNtCsmdD2PK2ogL_9detective8indexers18snapshot_proposalss_1__NtB7_20GraphQLResponseInnerNtNtCsi2zptu4QhLv_5serde2de11Deserialize11deserializeNtB2_14___FieldVisitorNtB1z_7Visitor9expecting
FN:16,_RINvXNvXNvNtNtCsmdD2PK2ogL_9detective8indexers18snapshot_proposalss_1__NtB8_20GraphQLResponseInnerNtNtCsi2zptu4QhLv_5serde2de11Deserialize11deserializeNtB3_14___FieldVisitorNtB1A_7Visitor9visit_u64pEBc_
FN:16,_RINvXNvXNvNtNtCsmdD2PK2ogL_9detective8indexers18snapshot_proposalss_1__NtB8_20GraphQLResponseInnerNtNtCsi2zptu4QhLv_5serde2de11Deserialize11deserializeNtB3_14___FieldVisitorNtB1A_7Visitor11visit_bytespEBc_
FN:21,_RNvXNvXNvNtNtCsmdD2PK2ogL_9detective8indexers18snapshot_proposalss0_1__NtB7_15GraphQLProposalNtNtCsi2zptu4QhLv_5serde2de11Deserialize11deserializeNtB2_14___FieldVisitorNtB1v_7Visitor9expecting
FN:21,_RINvXNvXNvNtNtCsmdD2PK2ogL_9detective8indexers18snapshot_proposalss0_1__NtB8_15GraphQLProposalNtNtCsi2zptu4QhLv_5serde2de11Deserialize11deserializeNtB3_14___FieldVisitorNtB1w_7Visitor9visit_u64pEBc_
FN:21,_RINvXNvXNvNtNtCsmdD2PK2ogL_9detective8indexers18snapshot_proposalss0_1__NtB8_15GraphQLProposalNtNtCsi2zptu4QhLv_5serde2de11Deserialize11deserializeNtB3_14___FieldVisitorNtB1w_7Visitor11visit_bytespEBc_
FN:133,_RNvXs3_NtNtCsmdD2PK2ogL_9detective8indexers18snapshot_proposalsNtB5_24SnapshotProposalsIndexerNtNtB9_7indexer7Indexer17min_refresh_speed
FN:137,_RNvXs3_NtNtCsmdD2PK2ogL_9detective8indexers18snapshot_proposalsNtB5_24SnapshotProposalsIndexerNtNtB9_7indexer7Indexer17max_refresh_speed
FN:46,_RNvMNtNtCsmdD2PK2ogL_9detective8indexers18snapshot_proposalsNtB2_24SnapshotProposalsIndexer3new
FN:142,_RNvNtNtCsmdD2PK2ogL_9detective8indexers18snapshot_proposals15parse_proposals
FN:11,_RNvXs0_NvXNvNtNtCsmdD2PK2ogL_9detective8indexers18snapshot_proposals1__NtBa_15GraphQLResponseNtNtCsi2zptu4QhLv_5serde2de11Deserialize11deserializeNtB5_9___VisitorNtB1v_7Visitor9expecting
FN:16,_RNvXs0_NvXNvNtNtCsmdD2PK2ogL_9detective8indexers18snapshot_proposalss_1__NtBa_20GraphQLResponseInnerNtNtCsi2zptu4QhLv_5serde2de11Deserialize11deserializeNtB5_9___VisitorNtB1C_7Visitor9expecting
FN:21,_RNvXs0_NvXNvNtNtCsmdD2PK2ogL_9detective8indexers18snapshot_proposalss0_1__NtBa_15GraphQLProposalNtNtCsi2zptu4QhLv_5serde2de11Deserialize11deserializeNtB5_9___VisitorNtB1y_7Visitor9expecting
FN:131,_RNvXs3_NtNtCsmdD2PK2ogL_9detective8indexers18snapshot_proposalsNtB5_24SnapshotProposalsIndexerNtNtB9_7indexer7Indexer7process
FN:213,_RNCNvNtNtNtCsmdD2PK2ogL_9detective8indexers18snapshot_proposals18snapshot_proposalss_13snapshot_aave0B9_
FN:148,_RNCNvNtNtCsmdD2PK2ogL_9detective8indexers18snapshot_proposals15parse_proposals0B7_
FN:11,_RINvXNvXNvNtNtCsmdD2PK2ogL_9detective8indexers18snapshot_proposals1__NtB8_15GraphQLResponseNtNtCsi2zptu4QhLv_5serde2de11Deserialize11deserializeNtB3_14___FieldVisitorNtB1t_7Visitor9visit_strNtNtCslSvSW0ZHiud_10serde_json5error5ErrorEBc_
FN:11,_RINvXs_NvXNvNtNtCsmdD2PK2ogL_9detective8indexers18snapshot_proposals1__NtBa_15GraphQLResponseNtNtCsi2zptu4QhLv_5serde2de11Deserialize11deserializeNtB5_7___FieldB1t_11deserializeINtNtCslSvSW0ZHiud_10serde_json2de6MapKeyNtNtB2U_4read7StrReadEEBe_
FN:11,_RINvXs0_NvXNvNtNtCsmdD2PK2ogL_9detective8indexers18snapshot_proposals1__NtBb_15GraphQLResponseNtNtCsi2zptu4QhLv_5serde2de11Deserialize11deserializeNtB6_9___VisitorNtB1w_7Visitor9visit_seqINtNtCslSvSW0ZHiud_10serde_json2de9SeqAccessNtNtB34_4read7StrReadEEBf_
FN:11,_RINvXs0_NvXNvNtNtCsmdD2PK2ogL_9detective8indexers18snapshot_proposals1__NtBb_15GraphQLResponseNtNtCsi2zptu4QhLv_5serde2de11Deserialize11deserializeNtB6_9___VisitorNtB1w_7Visitor9visit_mapINtNtCslSvSW0ZHiud_10serde_json2de9MapAccessNtNtB34_4read7StrReadEEBf_
FN:16,_RINvXNvXNvNtNtCsmdD2PK2ogL_9detective8indexers18snapshot_proposalss_1__NtB8_20GraphQLResponseInnerNtNtCsi2zptu4QhLv_5serde2de11Deserialize11deserializeNtB3_14___FieldVisitorNtB1A_7Visitor9visit_strNtNtCslSvSW0ZHiud_10serde_json5error5ErrorEBc_
FN:16,_RINvXs_NvXNvNtNtCsmdD2PK2ogL_9detective8indexers18snapshot_proposalss_1__NtBa_20GraphQLResponseInnerNtNtCsi2zptu4QhLv_5serde2de11Deserialize11deserializeNtB5_7___FieldB1A_11deserializeINtNtCslSvSW0ZHiud_10serde_json2de6MapKeyNtNtB31_4read7StrReadEEBe_
FN:16,_RINvXs0_NvXNvNtNtCsmdD2PK2ogL_9detective8indexers18snapshot_proposalss_1__NtBb_20GraphQLResponseInnerNtNtCsi2zptu4QhLv_5serde2de11Deserialize11deserializeNtB6_9___VisitorNtB1D_7Visitor9visit_seqINtNtCslSvSW0ZHiud_10serde_json2de9SeqAccessNtNtB3b_4read7StrReadEEBf_
FN:16,_RINvXs0_NvXNvNtNtCsmdD2PK2ogL_9detective8indexers18snapshot_proposalss_1__NtBb_20GraphQLResponseInnerNtNtCsi2zptu4QhLv_5serde2de11Deserialize11deserializeNtB6_9___VisitorNtB1D_7Visitor9visit_mapINtNtCslSvSW0ZHiud_10serde_json2de9MapAccessNtNtB3b_4read7StrReadEEBf_
FN:21,_RINvXNvXNvNtNtCsmdD2PK2ogL_9detective8indexers18snapshot_proposalss0_1__NtB8_15GraphQLProposalNtNtCsi2zptu4QhLv_5serde2de11Deserialize11deserializeNtB3_14___FieldVisitorNtB1w_7Visitor9visit_strNtNtCslSvSW0ZHiud_10serde_json5error5ErrorEBc_
FN:21,_RINvXs_NvXNvNtNtCsmdD2PK2ogL_9detective8indexers18snapshot_proposalss0_1__NtBa_15GraphQLProposalNtNtCsi2zptu4QhLv_5serde2de11Deserialize11deserializeNtB5_7___FieldB1w_11deserializeINtNtCslSvSW0ZHiud_10serde_json2de6MapKeyNtNtB2X_4read7StrReadEEBe_
FN:21,_RINvXs0_NvXNvNtNtCsmdD2PK2ogL_9detective8indexers18snapshot_proposalss0_1__NtBb_15GraphQLProposalNtNtCsi2zptu4QhLv_5serde2de11Deserialize11deserializeNtB6_9___VisitorNtB1z_7Visitor9visit_seqINtNtCslSvSW0ZHiud_10serde_json2de9SeqAccessNtNtB37_4read7StrReadEEBf_
FN:21,_RINvXs0_NvXNvNtNtCsmdD2PK2ogL_9detective8indexers18snapshot_proposalss0_1__NtBb_15GraphQLProposalNtNtCsi2zptu4QhLv_5serde2de11Deserialize11deserializeNtB6_9___VisitorNtB1z_7Visitor9visit_mapINtNtCslSvSW0ZHiud_10serde_json2de9MapAccessNtNtB37_4read7StrReadEEBf_
FN:57,_RNCNvXs3_NtNtCsmdD2PK2ogL_9detective8indexers18snapshot_proposalsNtB7_24SnapshotProposalsIndexerNtNtBb_7indexer7Indexer7process0Bb_
FN:126,_RNCNCNvXs3_NtNtCsmdD2PK2ogL_9detective8indexers18snapshot_proposalsNtB9_24SnapshotProposalsIndexerNtNtBd_7indexer7Indexer7process00Bd_
FN:213,_RNvNtNtNtCsmdD2PK2ogL_9detective8indexers18snapshot_proposals18snapshot_proposalss_13snapshot_aave
FNDA:0,_RNvXNvXNvNtNtCsmdD2PK2ogL_9detective8indexers18snapshot_proposals1__NtB7_15GraphQLResponseNtNtCsi2zptu4QhLv_5serde2de11Deserialize11deserializeNtB2_14___FieldVisitorNtB1s_7Visitor9expecting
FNDA:0,_RINvXNvXNvNtNtCsmdD2PK2ogL_9detective8indexers18snapshot_proposals1__NtB8_15GraphQLResponseNtNtCsi2zptu4QhLv_5serde2de11Deserialize11deserializeNtB3_14___FieldVisitorNtB1t_7Visitor9visit_u64pEBc_
FNDA:0,_RINvXNvXNvNtNtCsmdD2PK2ogL_9detective8indexers18snapshot_proposals1__NtB8_15GraphQLResponseNtNtCsi2zptu4QhLv_5serde2de11Deserialize11deserializeNtB3_14___FieldVisitorNtB1t_7Visitor11visit_bytespEBc_
FNDA:0,_RNvXNvXNvNtNtCsmdD2PK2ogL_9detective8indexers18snapshot_proposalss_1__NtB7_20GraphQLResponseInnerNtNtCsi2zptu4QhLv_5serde2de11Deserialize11deserializeNtB2_14___FieldVisitorNtB1z_7Visitor9expecting
FNDA:0,_RINvXNvXNvNtNtCsmdD2PK2ogL_9detective8indexers18snapshot_proposalss_1__NtB8_20GraphQLResponseInnerNtNtCsi2zptu4QhLv_5serde2de11Deserialize11deserializeNtB3_14___FieldVisitorNtB1A_7Visitor9visit_u64pEBc_
FNDA:0,_RINvXNvXNvNtNtCsmdD2PK2ogL_9detective8indexers18snapshot_proposalss_1__NtB8_20GraphQLResponseInnerNtNtCsi2zptu4QhLv_5serde2de11Deserialize11deserializeNtB3_14___FieldVisitorNtB1A_7Visitor11visit_bytespEBc_
FNDA:0,_RNvXNvXNvNtNtCsmdD2PK2ogL_9detective8indexers18snapshot_proposalss0_1__NtB7_15GraphQLProposalNtNtCsi2zptu4QhLv_5serde2de11Deserialize11deserializeNtB2_14___FieldVisitorNtB1v_7Visitor9expecting
FNDA:0,_RINvXNvXNvNtNtCsmdD2PK2ogL_9detective8indexers18snapshot_proposalss0_1__NtB8_15GraphQLProposalNtNtCsi2zptu4QhLv_5serde2de11Deserialize11deserializeNtB3_14___FieldVisitorNtB1w_7Visitor9visit_u64pEBc_
FNDA:0,_RINvXNvXNvNtNtCsmdD2PK2ogL_9detective8indexers18snapshot_proposalss0_1__NtB8_15GraphQLProposalNtNtCsi2zptu4QhLv_5serde2de11Deserialize11deserializeNtB3_14___FieldVisitorNtB1w_7Visitor11visit_bytespEBc_
FNDA:0,_RNvXs3_NtNtCsmdD2PK2ogL_9detective8indexers18snapshot_proposalsNtB5_24SnapshotProposalsIndexerNtNtB9_7indexer7Indexer17min_refresh_speed
FNDA:0,_RNvXs3_NtNtCsmdD2PK2ogL_9detective8indexers18snapshot_proposalsNtB5_24SnapshotProposalsIndexerNtNtB9_7indexer7Indexer17max_refresh_speed
FNDA:1,_RNvMNtNtCsmdD2PK2ogL_9detective8indexers18snapshot_proposalsNtB2_24SnapshotProposalsIndexer3new
FNDA:1,_RNvNtNtCsmdD2PK2ogL_9detective8indexers18snapshot_proposals15parse_proposals
FNDA:0,_RNvXs0_NvXNvNtNtCsmdD2PK2ogL_9detective8indexers18snapshot_proposals1__NtBa_15GraphQLResponseNtNtCsi2zptu4QhLv_5serde2de11Deserialize11deserializeNtB5_9___VisitorNtB1v_7Visitor9expecting
FNDA:0,_RNvXs0_NvXNvNtNtCsmdD2PK2ogL_9detective8indexers18snapshot_proposalss_1__NtBa_20GraphQLResponseInnerNtNtCsi2zptu4QhLv_5serde2de11Deserialize11deserializeNtB5_9___VisitorNtB1C_7Visitor9expecting
FNDA:0,_RNvXs0_NvXNvNtNtCsmdD2PK2ogL_9detective8indexers18snapshot_proposalss0_1__NtBa_15GraphQLProposalNtNtCsi2zptu4QhLv_5serde2de11Deserialize11deserializeNtB5_9___VisitorNtB1y_7Visitor9expecting
FNDA:1,_RNvXs3_NtNtCsmdD2PK2ogL_9detective8indexers18snapshot_proposalsNtB5_24SnapshotProposalsIndexerNtNtB9_7indexer7Indexer7process
FNDA:1,_RNCNvNtNtNtCsmdD2PK2ogL_9detective8indexers18snapshot_proposals18snapshot_proposalss_13snapshot_aave0B9_
FNDA:1,_RNCNvNtNtCsmdD2PK2ogL_9detective8indexers18snapshot_proposals15parse_proposals0B7_
FNDA:1,_RINvXNvXNvNtNtCsmdD2PK2ogL_9detective8indexers18snapshot_proposals1__NtB8_15GraphQLResponseNtNtCsi2zptu4QhLv_5serde2de11Deserialize11deserializeNtB3_14___FieldVisitorNtB1t_7Visitor9visit_strNtNtCslSvSW0ZHiud_10serde_json5error5ErrorEBc_
FNDA:1,_RINvXs_NvXNvNtNtCsmdD2PK2ogL_9detective8indexers18snapshot_proposals1__NtBa_15GraphQLResponseNtNtCsi2zptu4QhLv_5serde2de11Deserialize11deserializeNtB5_7___FieldB1t_11deserializeINtNtCslSvSW0ZHiud_10serde_json2de6MapKeyNtNtB2U_4read7StrReadEEBe_
FNDA:0,_RINvXs0_NvXNvNtNtCsmdD2PK2ogL_9detective8indexers18snapshot_proposals1__NtBb_15GraphQLResponseNtNtCsi2zptu4QhLv_5serde2de11Deserialize11deserializeNtB6_9___VisitorNtB1w_7Visitor9visit_seqINtNtCslSvSW0ZHiud_10serde_json2de9SeqAccessNtNtB34_4read7StrReadEEBf_
FNDA:1,_RINvXs0_NvXNvNtNtCsmdD2PK2ogL_9detective8indexers18snapshot_proposals1__NtBb_15GraphQLResponseNtNtCsi2zptu4QhLv_5serde2de11Deserialize11deserializeNtB6_9___VisitorNtB1w_7Visitor9visit_mapINtNtCslSvSW0ZHiud_10serde_json2de9MapAccessNtNtB34_4read7StrReadEEBf_
FNDA:1,_RINvXNvXNvNtNtCsmdD2PK2ogL_9detective8indexers18snapshot_proposalss_1__NtB8_20GraphQLResponseInnerNtNtCsi2zptu4QhLv_5serde2de11Deserialize11deserializeNtB3_14___FieldVisitorNtB1A_7Visitor9visit_strNtNtCslSvSW0ZHiud_10serde_json5error5ErrorEBc_
FNDA:1,_RINvXs_NvXNvNtNtCsmdD2PK2ogL_9detective8indexers18snapshot_proposalss_1__NtBa_20GraphQLResponseInnerNtNtCsi2zptu4QhLv_5serde2de11Deserialize11deserializeNtB5_7___FieldB1A_11deserializeINtNtCslSvSW0ZHiud_10serde_json2de6MapKeyNtNtB31_4read7StrReadEEBe_
FNDA:0,_RINvXs0_NvXNvNtNtCsmdD2PK2ogL_9detective8indexers18snapshot_proposalss_1__NtBb_20GraphQLResponseInnerNtNtCsi2zptu4QhLv_5serde2de11Deserialize11deserializeNtB6_9___VisitorNtB1D_7Visitor9visit_seqINtNtCslSvSW0ZHiud_10serde_json2de9SeqAccessNtNtB3b_4read7StrReadEEBf_
FNDA:1,_RINvXs0_NvXNvNtNtCsmdD2PK2ogL_9detective8indexers18snapshot_proposalss_1__NtBb_20GraphQLResponseInnerNtNtCsi2zptu4QhLv_5serde2de11Deserialize11deserializeNtB6_9___VisitorNtB1D_7Visitor9visit_mapINtNtCslSvSW0ZHiud_10serde_json2de9MapAccessNtNtB3b_4read7StrReadEEBf_
FNDA:16,_RINvXNvXNvNtNtCsmdD2PK2ogL_9detective8indexers18snapshot_proposalss0_1__NtB8_15GraphQLProposalNtNtCsi2zptu4QhLv_5serde2de11Deserialize11deserializeNtB3_14___FieldVisitorNtB1w_7Visitor9visit_strNtNtCslSvSW0ZHiud_10serde_json5error5ErrorEBc_
FNDA:16,_RINvXs_NvXNvNtNtCsmdD2PK2ogL_9detective8indexers18snapshot_proposalss0_1__NtBa_15GraphQLProposalNtNtCsi2zptu4QhLv_5serde2de11Deserialize11deserializeNtB5_7___FieldB1w_11deserializeINtNtCslSvSW0ZHiud_10serde_json2de6MapKeyNtNtB2X_4read7StrReadEEBe_
FNDA:0,_RINvXs0_NvXNvNtNtCsmdD2PK2ogL_9detective8indexers18snapshot_proposalss0_1__NtBb_15GraphQLProposalNtNtCsi2zptu4QhLv_5serde2de11Deserialize11deserializeNtB6_9___VisitorNtB1z_7Visitor9visit_seqINtNtCslSvSW0ZHiud_10serde_json2de9SeqAccessNtNtB37_4read7StrReadEEBf_
FNDA:1,_RINvXs0_NvXNvNtNtCsmdD2PK2ogL_9detective8indexers18snapshot_proposalss0_1__NtBb_15GraphQLProposalNtNtCsi2zptu4QhLv_5serde2de11Deserialize11deserializeNtB6_9___VisitorNtB1z_7Visitor9visit_mapINtNtCslSvSW0ZHiud_10serde_json2de9MapAccessNtNtB37_4read7StrReadEEBf_
FNDA:1,_RNCNvXs3_NtNtCsmdD2PK2ogL_9detective8indexers18snapshot_proposalsNtB7_24SnapshotProposalsIndexerNtNtBb_7indexer7Indexer7process0Bb_
FNDA:1,_RNCNCNvXs3_NtNtCsmdD2PK2ogL_9detective8indexers18snapshot_proposalsNtB9_24SnapshotProposalsIndexerNtNtBd_7indexer7Indexer7process00Bd_
FNDA:1,_RNvNtNtNtCsmdD2PK2ogL_9detective8indexers18snapshot_proposals18snapshot_proposalss_13snapshot_aave
FNF:13
FNH:11
DA:11,2
DA:16,2
DA:21,17
DA:46,1
DA:47,1
DA:48,1
DA:57,1
DA:58,1
DA:60,1
DA:61,1
DA:62,1
DA:63,1
DA:64,1
DA:65,1
DA:66,1
DA:67,1
DA:68,1
DA:69,1
DA:70,1
DA:72,0
DA:73,0
DA:74,0
DA:75,0
DA:79,1
DA:80,1
DA:81,1
DA:82,1
DA:83,1
DA:84,1
DA:85,1
DA:86,1
DA:87,1
DA:88,1
DA:89,1
DA:90,1
DA:91,1
DA:92,1
DA:93,1
DA:94,1
DA:95,1
DA:96,1
DA:97,1
DA:98,1
DA:99,1
DA:100,1
DA:101,1
DA:102,1
DA:103,1
DA:104,1
DA:105,1
DA:106,1
DA:107,1
DA:108,1
DA:109,1
DA:110,1
DA:111,1
DA:113,1
DA:114,1
DA:115,1
DA:116,1
DA:118,1
DA:119,1
DA:121,0
DA:124,1
DA:125,1
DA:126,1
DA:127,1
DA:128,1
DA:129,1
DA:130,1
DA:131,2
DA:133,0
DA:134,0
DA:135,0
DA:137,0
DA:138,0
DA:139,0
DA:142,1
DA:143,1
DA:144,1
DA:145,1
DA:146,1
DA:147,1
DA:148,1
DA:149,1
DA:150,1
DA:151,1
DA:152,1
DA:153,1
DA:154,1
DA:156,0
DA:159,0
DA:162,1
DA:163,1
DA:164,1
DA:165,1
DA:166,1
DA:167,1
DA:168,1
DA:169,1
DA:170,1
DA:171,1
DA:172,1
DA:173,1
DA:174,1
DA:175,1
DA:176,1
DA:177,1
DA:178,1
DA:179,1
DA:180,1
DA:181,1
DA:182,1
DA:183,1
DA:184,1
DA:185,1
DA:186,1
DA:187,1
DA:188,1
DA:189,1
DA:190,1
DA:191,1
DA:192,1
DA:193,1
DA:194,1
DA:195,1
DA:196,1
DA:197,1
DA:198,1
DA:213,1
DA:214,1
DA:215,1
DA:216,1
DA:217,1
DA:218,1
DA:219,1
DA:220,1
DA:221,1
DA:222,1
DA:223,1
DA:224,1
DA:225,1
DA:226,1
DA:227,1
DA:228,1
DA:229,1
DA:230,1
DA:231,1
DA:232,1
DA:233,1
DA:234,1
DA:235,1
DA:236,1
DA:237,1
DA:238,1
DA:239,1
DA:240,1
DA:241,1
DA:242,1
DA:243,1
DA:244,1
DA:245,1
DA:246,1
DA:247,1
DA:248,1
DA:249,1
DA:250,1
DA:251,1
DA:252,1
DA:253,1
DA:254,1
DA:255,1
DA:256,1
DA:257,1
DA:258,1
DA:259,1
DA:260,1
DA:261,1
DA:262,1
DA:263,1
DA:264,1
DA:265,1
DA:266,1
DA:267,1
DA:268,1
DA:269,1
DA:270,1
BRF:0
BRH:0
LF:246
LH:232
end_of_record
SF:/Users/andrei/git/proposalsapp/apps/detective/indexers/snapshot_votes.rs
FN:13,_RNvXNvXNvNtNtCsmdD2PK2ogL_9detective8indexers14snapshot_votes1__NtB7_15GraphQLResponseNtNtCsi2zptu4QhLv_5serde2de11Deserialize11deserializeNtB2_14___FieldVisitorNtB1o_7Visitor9expecting
FN:13,_RINvXNvXNvNtNtCsmdD2PK2ogL_9detective8indexers14snapshot_votes1__NtB8_15GraphQLResponseNtNtCsi2zptu4QhLv_5serde2de11Deserialize11deserializeNtB3_14___FieldVisitorNtB1p_7Visitor9visit_u64pEBc_
FN:13,_RINvXNvXNvNtNtCsmdD2PK2ogL_9detective8indexers14snapshot_votes1__NtB8_15GraphQLResponseNtNtCsi2zptu4QhLv_5serde2de11Deserialize11deserializeNtB3_14___FieldVisitorNtB1p_7Visitor9visit_strpEBc_
FN:13,_RINvXNvXNvNtNtCsmdD2PK2ogL_9detective8indexers14snapshot_votes1__NtB8_15GraphQLResponseNtNtCsi2zptu4QhLv_5serde2de11Deserialize11deserializeNtB3_14___FieldVisitorNtB1p_7Visitor11visit_bytespEBc_
FN:13,_RINvXs_NvXNvNtNtCsmdD2PK2ogL_9detective8indexers14snapshot_votes1__NtBa_15GraphQLResponseNtNtCsi2zptu4QhLv_5serde2de11Deserialize11deserializeNtB5_7___FieldB1p_11deserializepEBe_
FN:13,_RNvXs0_NvXNvNtNtCsmdD2PK2ogL_9detective8indexers14snapshot_votes1__NtBa_15GraphQLResponseNtNtCsi2zptu4QhLv_5serde2de11Deserialize11deserializeNtB5_9___VisitorNtB1r_7Visitor9expecting
FN:13,_RINvXs0_NvXNvNtNtCsmdD2PK2ogL_9detective8indexers14snapshot_votes1__NtBb_15GraphQLResponseNtNtCsi2zptu4QhLv_5serde2de11Deserialize11deserializeNtB6_9___VisitorNtB1s_7Visitor9visit_seqpEBf_
FN:13,_RINvXs0_NvXNvNtNtCsmdD2PK2ogL_9detective8indexers14snapshot_votes1__NtBb_15GraphQLResponseNtNtCsi2zptu4QhLv_5serde2de11Deserialize11deserializeNtB6_9___VisitorNtB1s_7Visitor9visit_mappEBf_
FN:18,_RNvXNvXNvNtNtCsmdD2PK2ogL_9detective8indexers14snapshot_votess_1__NtB7_20GraphQLResponseInnerNtNtCsi2zptu4QhLv_5serde2de11Deserialize11deserializeNtB2_14___FieldVisitorNtB1v_7Visitor9expecting
FN:18,_RINvXNvXNvNtNtCsmdD2PK2ogL_9detective8indexers14snapshot_votess_1__NtB8_20GraphQLResponseInnerNtNtCsi2zptu4QhLv_5serde2de11Deserialize11deserializeNtB3_14___FieldVisitorNtB1w_7Visitor9visit_u64pEBc_
FN:18,_RINvXNvXNvNtNtCsmdD2PK2ogL_9detective8indexers14snapshot_votess_1__NtB8_20GraphQLResponseInnerNtNtCsi2zptu4QhLv_5serde2de11Deserialize11deserializeNtB3_14___FieldVisitorNtB1w_7Visitor9visit_strpEBc_
FN:18,_RINvXNvXNvNtNtCsmdD2PK2ogL_9detective8indexers14snapshot_votess_1__NtB8_20GraphQLResponseInnerNtNtCsi2zptu4QhLv_5serde2de11Deserialize11deserializeNtB3_14___FieldVisitorNtB1w_7Visitor11visit_bytespEBc_
FN:18,_RINvXs_NvXNvNtNtCsmdD2PK2ogL_9detective8indexers14snapshot_votess_1__NtBa_20GraphQLResponseInnerNtNtCsi2zptu4QhLv_5serde2de11Deserialize11deserializeNtB5_7___FieldB1w_11deserializepEBe_
FN:18,_RNvXs0_NvXNvNtNtCsmdD2PK2ogL_9detective8indexers14snapshot_votess_1__NtBa_20GraphQLResponseInnerNtNtCsi2zptu4QhLv_5serde2de11Deserialize11deserializeNtB5_9___VisitorNtB1y_7Visitor9expecting
FN:18,_RINvXs0_NvXNvNtNtCsmdD2PK2ogL_9detective8indexers14snapshot_votess_1__NtBb_20GraphQLResponseInnerNtNtCsi2zptu4QhLv_5serde2de11Deserialize11deserializeNtB6_9___VisitorNtB1z_7Visitor9visit_seqpEBf_
FN:18,_RINvXs0_NvXNvNtNtCsmdD2PK2ogL_9detective8indexers14snapshot_votess_1__NtBb_20GraphQLResponseInnerNtNtCsi2zptu4QhLv_5serde2de11Deserialize11deserializeNtB6_9___VisitorNtB1z_7Visitor9visit_mappEBf_
FN:23,_RNvXNvXNvNtNtCsmdD2PK2ogL_9detective8indexers14snapshot_votess0_1__NtB7_15GraphQLProposalNtNtCsi2zptu4QhLv_5serde2de11Deserialize11deserializeNtB2_14___FieldVisitorNtB1r_7Visitor9expecting
FN:23,_RINvXNvXNvNtNtCsmdD2PK2ogL_9detective8indexers14snapshot_votess0_1__NtB8_15GraphQLProposalNtNtCsi2zptu4QhLv_5serde2de11Deserialize11deserializeNtB3_14___FieldVisitorNtB1s_7Visitor9visit_u64pEBc_
FN:23,_RINvXNvXNvNtNtCsmdD2PK2ogL_9detective8indexers14snapshot_votess0_1__NtB8_15GraphQLProposalNtNtCsi2zptu4QhLv_5serde2de11Deserialize11deserializeNtB3_14___FieldVisitorNtB1s_7Visitor9visit_strpEBc_
FN:23,_RINvXNvXNvNtNtCsmdD2PK2ogL_9detective8indexers14snapshot_votess0_1__NtB8_15GraphQLProposalNtNtCsi2zptu4QhLv_5serde2de11Deserialize11deserializeNtB3_14___FieldVisitorNtB1s_7Visitor11visit_bytespEBc_
FN:23,_RINvXs_NvXNvNtNtCsmdD2PK2ogL_9detective8indexers14snapshot_votess0_1__NtBa_15GraphQLProposalNtNtCsi2zptu4QhLv_5serde2de11Deserialize11deserializeNtB5_7___FieldB1s_11deserializepEBe_
FN:23,_RNvXs0_NvXNvNtNtCsmdD2PK2ogL_9detective8indexers14snapshot_votess0_1__NtBa_15GraphQLProposalNtNtCsi2zptu4QhLv_5serde2de11Deserialize11deserializeNtB5_9___VisitorNtB1u_7Visitor9expecting
FN:23,_RINvXs0_NvXNvNtNtCsmdD2PK2ogL_9detective8indexers14snapshot_votess0_1__NtBb_15GraphQLProposalNtNtCsi2zptu4QhLv_5serde2de11Deserialize11deserializeNtB6_9___VisitorNtB1v_7Visitor9visit_seqpEBf_
FN:23,_RINvXs0_NvXNvNtNtCsmdD2PK2ogL_9detective8indexers14snapshot_votess0_1__NtBb_15GraphQLProposalNtNtCsi2zptu4QhLv_5serde2de11Deserialize11deserializeNtB6_9___VisitorNtB1v_7Visitor9visit_mappEBf_
FN:28,_RNvXNvXNvNtNtCsmdD2PK2ogL_9detective8indexers14snapshot_votess1_1__NtB7_11GraphQLVoteNtNtCsi2zptu4QhLv_5serde2de11Deserialize11deserializeNtB2_14___FieldVisitorNtB1n_7Visitor9expecting
FN:28,_RINvXNvXNvNtNtCsmdD2PK2ogL_9detective8indexers14snapshot_votess1_1__NtB8_11GraphQLVoteNtNtCsi2zptu4QhLv_5serde2de11Deserialize11deserializeNtB3_14___FieldVisitorNtB1o_7Visitor9visit_u64pEBc_
FN:28,_RINvXNvXNvNtNtCsmdD2PK2ogL_9detective8indexers14snapshot_votess1_1__NtB8_11GraphQLVoteNtNtCsi2zptu4QhLv_5serde2de11Deserialize11deserializeNtB3_14___FieldVisitorNtB1o_7Visitor9visit_strpEBc_
FN:28,_RINvXNvXNvNtNtCsmdD2PK2ogL_9detective8indexers14snapshot_votess1_1__NtB8_11GraphQLVoteNtNtCsi2zptu4QhLv_5serde2de11Deserialize11deserializeNtB3_14___FieldVisitorNtB1o_7Visitor11visit_bytespEBc_
FN:28,_RINvXs_NvXNvNtNtCsmdD2PK2ogL_9detective8indexers14snapshot_votess1_1__NtBa_11GraphQLVoteNtNtCsi2zptu4QhLv_5serde2de11Deserialize11deserializeNtB5_7___FieldB1o_11deserializepEBe_
FN:28,_RNvXs0_NvXNvNtNtCsmdD2PK2ogL_9detective8indexers14snapshot_votess1_1__NtBa_11GraphQLVoteNtNtCsi2zptu4QhLv_5serde2de11Deserialize11deserializeNtB5_9___VisitorNtB1q_7Visitor9expecting
FN:28,_RINvXs0_NvXNvNtNtCsmdD2PK2ogL_9detective8indexers14snapshot_votess1_1__NtBb_11GraphQLVoteNtNtCsi2zptu4QhLv_5serde2de11Deserialize11deserializeNtB6_9___VisitorNtB1r_7Visitor9visit_seqpEBf_
FN:28,_RINvXs0_NvXNvNtNtCsmdD2PK2ogL_9detective8indexers14snapshot_votess1_1__NtBb_11GraphQLVoteNtNtCsi2zptu4QhLv_5serde2de11Deserialize11deserializeNtB6_9___VisitorNtB1r_7Visitor9visit_mappEBf_
FN:44,_RNvMNtNtCsmdD2PK2ogL_9detective8indexers14snapshot_votesNtB2_20SnapshotVotesIndexer3new
FN:48,_RNvMNtNtCsmdD2PK2ogL_9detective8indexers14snapshot_votesNtB2_20SnapshotVotesIndexer24proposal_indexer_variant
FN:156,_RNvXs5_NtNtCsmdD2PK2ogL_9detective8indexers14snapshot_votesNtB5_20SnapshotVotesIndexerNtNtB9_7indexer7Indexer7process
FN:59,_RNCNvXs5_NtNtCsmdD2PK2ogL_9detective8indexers14snapshot_votesNtB7_20SnapshotVotesIndexerNtNtBb_7indexer7Indexer7process0Bb_
FN:79,_RNCNCNvXs5_NtNtCsmdD2PK2ogL_9detective8indexers14snapshot_votesNtB9_20SnapshotVotesIndexerNtNtBd_7indexer7Indexer7process00Bd_
FN:131,_RNCNCNvXs5_NtNtCsmdD2PK2ogL_9detective8indexers14snapshot_votesNtB9_20SnapshotVotesIndexerNtNtBd_7indexer7Indexer7process0s2_0Bd_
FN:144,_RNCNCNvXs5_NtNtCsmdD2PK2ogL_9detective8indexers14snapshot_votesNtB9_20SnapshotVotesIndexerNtNtBd_7indexer7Indexer7process0s_0Bd_
FN:151,_RNCNCNvXs5_NtNtCsmdD2PK2ogL_9detective8indexers14snapshot_votesNtB9_20SnapshotVotesIndexerNtNtBd_7indexer7Indexer7process0s0_0Bd_
FN:158,_RNvXs5_NtNtCsmdD2PK2ogL_9detective8indexers14snapshot_votesNtB5_20SnapshotVotesIndexerNtNtB9_7indexer7Indexer17min_refresh_speed
FN:162,_RNvXs5_NtNtCsmdD2PK2ogL_9detective8indexers14snapshot_votesNtB5_20SnapshotVotesIndexerNtNtB9_7indexer7Indexer17max_refresh_speed
FN:167,_RNvNtNtCsmdD2PK2ogL_9detective8indexers14snapshot_votes11parse_votes
FN:170,_RNCNvNtNtCsmdD2PK2ogL_9detective8indexers14snapshot_votes11parse_votes0B7_
FN:173,_RNCNCNvNtNtCsmdD2PK2ogL_9detective8indexers14snapshot_votes11parse_votes00B9_
FN:182,_RNCNCNCNvNtNtCsmdD2PK2ogL_9detective8indexers14snapshot_votes11parse_votes000Bb_
FN:192,_RNCNCNCNvNtNtCsmdD2PK2ogL_9detective8indexers14snapshot_votes11parse_votes00s_0Bb_
FNDA:0,_RNvXNvXNvNtNtCsmdD2PK2ogL_9detective8indexers14snapshot_votes1__NtB7_15GraphQLResponseNtNtCsi2zptu4QhLv_5serde2de11Deserialize11deserializeNtB2_14___FieldVisitorNtB1o_7Visitor9expecting
FNDA:0,_RINvXNvXNvNtNtCsmdD2PK2ogL_9detective8indexers14snapshot_votes1__NtB8_15GraphQLResponseNtNtCsi2zptu4QhLv_5serde2de11Deserialize11deserializeNtB3_14___FieldVisitorNtB1p_7Visitor9visit_u64pEBc_
FNDA:0,_RINvXNvXNvNtNtCsmdD2PK2ogL_9detective8indexers14snapshot_votes1__NtB8_15GraphQLResponseNtNtCsi2zptu4QhLv_5serde2de11Deserialize11deserializeNtB3_14___FieldVisitorNtB1p_7Visitor9visit_strpEBc_
FNDA:0,_RINvXNvXNvNtNtCsmdD2PK2ogL_9detective8indexers14snapshot_votes1__NtB8_15GraphQLResponseNtNtCsi2zptu4QhLv_5serde2de11Deserialize11deserializeNtB3_14___FieldVisitorNtB1p_7Visitor11visit_bytespEBc_
FNDA:0,_RINvXs_NvXNvNtNtCsmdD2PK2ogL_9detective8indexers14snapshot_votes1__NtBa_15GraphQLResponseNtNtCsi2zptu4QhLv_5serde2de11Deserialize11deserializeNtB5_7___FieldB1p_11deserializepEBe_
FNDA:0,_RNvXs0_NvXNvNtNtCsmdD2PK2ogL_9detective8indexers14snapshot_votes1__NtBa_15GraphQLResponseNtNtCsi2zptu4QhLv_5serde2de11Deserialize11deserializeNtB5_9___VisitorNtB1r_7Visitor9expecting
FNDA:0,_RINvXs0_NvXNvNtNtCsmdD2PK2ogL_9detective8indexers14snapshot_votes1__NtBb_15GraphQLResponseNtNtCsi2zptu4QhLv_5serde2de11Deserialize11deserializeNtB6_9___VisitorNtB1s_7Visitor9visit_seqpEBf_
FNDA:0,_RINvXs0_NvXNvNtNtCsmdD2PK2ogL_9detective8indexers14snapshot_votes1__NtBb_15GraphQLResponseNtNtCsi2zptu4QhLv_5serde2de11Deserialize11deserializeNtB6_9___VisitorNtB1s_7Visitor9visit_mappEBf_
FNDA:0,_RNvXNvXNvNtNtCsmdD2PK2ogL_9detective8indexers14snapshot_votess_1__NtB7_20GraphQLResponseInnerNtNtCsi2zptu4QhLv_5serde2de11Deserialize11deserializeNtB2_14___FieldVisitorNtB1v_7Visitor9expecting
FNDA:0,_RINvXNvXNvNtNtCsmdD2PK2ogL_9detective8indexers14snapshot_votess_1__NtB8_20GraphQLResponseInnerNtNtCsi2zptu4QhLv_5serde2de11Deserialize11deserializeNtB3_14___FieldVisitorNtB1w_7Visitor9visit_u64pEBc_
FNDA:0,_RINvXNvXNvNtNtCsmdD2PK2ogL_9detective8indexers14snapshot_votess_1__NtB8_20GraphQLResponseInnerNtNtCsi2zptu4QhLv_5serde2de11Deserialize11deserializeNtB3_14___FieldVisitorNtB1w_7Visitor9visit_strpEBc_
FNDA:0,_RINvXNvXNvNtNtCsmdD2PK2ogL_9detective8indexers14snapshot_votess_1__NtB8_20GraphQLResponseInnerNtNtCsi2zptu4QhLv_5serde2de11Deserialize11deserializeNtB3_14___FieldVisitorNtB1w_7Visitor11visit_bytespEBc_
FNDA:0,_RINvXs_NvXNvNtNtCsmdD2PK2ogL_9detective8indexers14snapshot_votess_1__NtBa_20GraphQLResponseInnerNtNtCsi2zptu4QhLv_5serde2de11Deserialize11deserializeNtB5_7___FieldB1w_11deserializepEBe_
FNDA:0,_RNvXs0_NvXNvNtNtCsmdD2PK2ogL_9detective8indexers14snapshot_votess_1__NtBa_20GraphQLResponseInnerNtNtCsi2zptu4QhLv_5serde2de11Deserialize11deserializeNtB5_9___VisitorNtB1y_7Visitor9expecting
FNDA:0,_RINvXs0_NvXNvNtNtCsmdD2PK2ogL_9detective8indexers14snapshot_votess_1__NtBb_20GraphQLResponseInnerNtNtCsi2zptu4QhLv_5serde2de11Deserialize11deserializeNtB6_9___VisitorNtB1z_7Visitor9visit_seqpEBf_
FNDA:0,_RINvXs0_NvXNvNtNtCsmdD2PK2ogL_9detective8indexers14snapshot_votess_1__NtBb_20GraphQLResponseInnerNtNtCsi2zptu4QhLv_5serde2de11Deserialize11deserializeNtB6_9___VisitorNtB1z_7Visitor9visit_mappEBf_
FNDA:0,_RNvXNvXNvNtNtCsmdD2PK2ogL_9detective8indexers14snapshot_votess0_1__NtB7_15GraphQLProposalNtNtCsi2zptu4QhLv_5serde2de11Deserialize11deserializeNtB2_14___FieldVisitorNtB1r_7Visitor9expecting
FNDA:0,_RINvXNvXNvNtNtCsmdD2PK2ogL_9detective8indexers14snapshot_votess0_1__NtB8_15GraphQLProposalNtNtCsi2zptu4QhLv_5serde2de11Deserialize11deserializeNtB3_14___FieldVisitorNtB1s_7Visitor9visit_u64pEBc_
FNDA:0,_RINvXNvXNvNtNtCsmdD2PK2ogL_9detective8indexers14snapshot_votess0_1__NtB8_15GraphQLProposalNtNtCsi2zptu4QhLv_5serde2de11Deserialize11deserializeNtB3_14___FieldVisitorNtB1s_7Visitor9visit_strpEBc_
FNDA:0,_RINvXNvXNvNtNtCsmdD2PK2ogL_9detective8indexers14snapshot_votess0_1__NtB8_15GraphQLProposalNtNtCsi2zptu4QhLv_5serde2de11Deserialize11deserializeNtB3_14___FieldVisitorNtB1s_7Visitor11visit_bytespEBc_
FNDA:0,_RINvXs_NvXNvNtNtCsmdD2PK2ogL_9detective8indexers14snapshot_votess0_1__NtBa_15GraphQLProposalNtNtCsi2zptu4QhLv_5serde2de11Deserialize11deserializeNtB5_7___FieldB1s_11deserializepEBe_
FNDA:0,_RNvXs0_NvXNvNtNtCsmdD2PK2ogL_9detective8indexers14snapshot_votess0_1__NtBa_15GraphQLProposalNtNtCsi2zptu4QhLv_5serde2de11Deserialize11deserializeNtB5_9___VisitorNtB1u_7Visitor9expecting
FNDA:0,_RINvXs0_NvXNvNtNtCsmdD2PK2ogL_9detective8indexers14snapshot_votess0_1__NtBb_15GraphQLProposalNtNtCsi2zptu4QhLv_5serde2de11Deserialize11deserializeNtB6_9___VisitorNtB1v_7Visitor9visit_seqpEBf_
FNDA:0,_RINvXs0_NvXNvNtNtCsmdD2PK2ogL_9detective8indexers14snapshot_votess0_1__NtBb_15GraphQLProposalNtNtCsi2zptu4QhLv_5serde2de11Deserialize11deserializeNtB6_9___VisitorNtB1v_7Visitor9visit_mappEBf_
FNDA:0,_RNvXNvXNvNtNtCsmdD2PK2ogL_9detective8indexers14snapshot_votess1_1__NtB7_11GraphQLVoteNtNtCsi2zptu4QhLv_5serde2de11Deserialize11deserializeNtB2_14___FieldVisitorNtB1n_7Visitor9expecting
FNDA:0,_RINvXNvXNvNtNtCsmdD2PK2ogL_9detective8indexers14snapshot_votess1_1__NtB8_11GraphQLVoteNtNtCsi2zptu4QhLv_5serde2de11Deserialize11deserializeNtB3_14___FieldVisitorNtB1o_7Visitor9visit_u64pEBc_
FNDA:0,_RINvXNvXNvNtNtCsmdD2PK2ogL_9detective8indexers14snapshot_votess1_1__NtB8_11GraphQLVoteNtNtCsi2zptu4QhLv_5serde2de11Deserialize11deserializeNtB3_14___FieldVisitorNtB1o_7Visitor9visit_strpEBc_
FNDA:0,_RINvXNvXNvNtNtCsmdD2PK2ogL_9detective8indexers14snapshot_votess1_1__NtB8_11GraphQLVoteNtNtCsi2zptu4QhLv_5serde2de11Deserialize11deserializeNtB3_14___FieldVisitorNtB1o_7Visitor11visit_bytespEBc_
FNDA:0,_RINvXs_NvXNvNtNtCsmdD2PK2ogL_9detective8indexers14snapshot_votess1_1__NtBa_11GraphQLVoteNtNtCsi2zptu4QhLv_5serde2de11Deserialize11deserializeNtB5_7___FieldB1o_11deserializepEBe_
FNDA:0,_RNvXs0_NvXNvNtNtCsmdD2PK2ogL_9detective8indexers14snapshot_votess1_1__NtBa_11GraphQLVoteNtNtCsi2zptu4QhLv_5serde2de11Deserialize11deserializeNtB5_9___VisitorNtB1q_7Visitor9expecting
FNDA:0,_RINvXs0_NvXNvNtNtCsmdD2PK2ogL_9detective8indexers14snapshot_votess1_1__NtBb_11GraphQLVoteNtNtCsi2zptu4QhLv_5serde2de11Deserialize11deserializeNtB6_9___VisitorNtB1r_7Visitor9visit_seqpEBf_
FNDA:0,_RINvXs0_NvXNvNtNtCsmdD2PK2ogL_9detective8indexers14snapshot_votess1_1__NtBb_11GraphQLVoteNtNtCsi2zptu4QhLv_5serde2de11Deserialize11deserializeNtB6_9___VisitorNtB1r_7Visitor9visit_mappEBf_
FNDA:0,_RNvMNtNtCsmdD2PK2ogL_9detective8indexers14snapshot_votesNtB2_20SnapshotVotesIndexer3new
FNDA:0,_RNvMNtNtCsmdD2PK2ogL_9detective8indexers14snapshot_votesNtB2_20SnapshotVotesIndexer24proposal_indexer_variant
FNDA:0,_RNvXs5_NtNtCsmdD2PK2ogL_9detective8indexers14snapshot_votesNtB5_20SnapshotVotesIndexerNtNtB9_7indexer7Indexer7process
FNDA:0,_RNCNvXs5_NtNtCsmdD2PK2ogL_9detective8indexers14snapshot_votesNtB7_20SnapshotVotesIndexerNtNtBb_7indexer7Indexer7process0Bb_
FNDA:0,_RNCNCNvXs5_NtNtCsmdD2PK2ogL_9detective8indexers14snapshot_votesNtB9_20SnapshotVotesIndexerNtNtBd_7indexer7Indexer7process00Bd_
FNDA:0,_RNCNCNvXs5_NtNtCsmdD2PK2ogL_9detective8indexers14snapshot_votesNtB9_20SnapshotVotesIndexerNtNtBd_7indexer7Indexer7process0s2_0Bd_
FNDA:0,_RNCNCNvXs5_NtNtCsmdD2PK2ogL_9detective8indexers14snapshot_votesNtB9_20SnapshotVotesIndexerNtNtBd_7indexer7Indexer7process0s_0Bd_
FNDA:0,_RNCNCNvXs5_NtNtCsmdD2PK2ogL_9detective8indexers14snapshot_votesNtB9_20SnapshotVotesIndexerNtNtBd_7indexer7Indexer7process0s0_0Bd_
FNDA:0,_RNvXs5_NtNtCsmdD2PK2ogL_9detective8indexers14snapshot_votesNtB5_20SnapshotVotesIndexerNtNtB9_7indexer7Indexer17min_refresh_speed
FNDA:0,_RNvXs5_NtNtCsmdD2PK2ogL_9detective8indexers14snapshot_votesNtB5_20SnapshotVotesIndexerNtNtB9_7indexer7Indexer17max_refresh_speed
FNDA:0,_RNvNtNtCsmdD2PK2ogL_9detective8indexers14snapshot_votes11parse_votes
FNDA:0,_RNCNvNtNtCsmdD2PK2ogL_9detective8indexers14snapshot_votes11parse_votes0B7_
FNDA:0,_RNCNCNvNtNtCsmdD2PK2ogL_9detective8indexers14snapshot_votes11parse_votes00B9_
FNDA:0,_RNCNCNCNvNtNtCsmdD2PK2ogL_9detective8indexers14snapshot_votes11parse_votes000Bb_
FNDA:0,_RNCNCNCNvNtNtCsmdD2PK2ogL_9detective8indexers14snapshot_votes11parse_votes00s_0Bb_
FNF:19
FNH:0
DA:13,0
DA:18,0
DA:23,0
DA:28,0
DA:44,0
DA:45,0
DA:46,0
DA:48,0
DA:49,0
DA:50,0
DA:59,0
DA:60,0
DA:62,0
DA:64,0
DA:65,0
DA:66,0
DA:67,0
DA:68,0
DA:69,0
DA:70,0
DA:71,0
DA:72,0
DA:73,0
DA:74,0
DA:75,0
DA:76,0
DA:78,0
DA:79,0
DA:81,0
DA:82,0
DA:83,0
DA:84,0
DA:85,0
DA:86,0
DA:87,0
DA:88,0
DA:89,0
DA:90,0
DA:91,0
DA:93,0
DA:94,0
DA:95,0
DA:96,0
DA:100,0
DA:101,0
DA:102,0
DA:103,0
DA:104,0
DA:105,0
DA:106,0
DA:107,0
DA:108,0
DA:109,0
DA:110,0
DA:111,0
DA:112,0
DA:113,0
DA:114,0
DA:115,0
DA:116,0
DA:117,0
DA:118,0
DA:119,0
DA:120,0
DA:121,0
DA:122,0
DA:123,0
DA:124,0
DA:125,0
DA:126,0
DA:127,0
DA:128,0
DA:129,0
DA:130,0
DA:131,0
DA:132,0
DA:133,0
DA:134,0
DA:135,0
DA:137,0
DA:138,0
DA:139,0
DA:140,0
DA:142,0
DA:143,0
DA:144,0
DA:145,0
DA:146,0
DA:147,0
DA:149,0
DA:150,0
DA:151,0
DA:152,0
DA:153,0
DA:154,0
DA:155,0
DA:156,0
DA:158,0
DA:159,0
DA:160,0
DA:162,0
DA:163,0
DA:164,0
DA:167,0
DA:168,0
DA:169,0
DA:170,0
DA:171,0
DA:172,0
DA:173,0
DA:174,0
DA:175,0
DA:176,0
DA:177,0
DA:178,0
DA:179,0
DA:180,0
DA:181,0
DA:182,0
DA:184,0
DA:186,0
DA:188,0
DA:189,0
DA:190,0
DA:191,0
DA:192,0
DA:193,0
DA:194,0
DA:195,0
DA:196,0
DA:197,0
DA:198,0
DA:199,0
DA:201,0
DA:202,0
DA:203,0
BRF:0
BRH:0
LF:147
LH:0
end_of_record
SF:/Users/andrei/git/proposalsapp/apps/detective/indexers/uniswap_mainnet_proposals.rs
FN:94,_RNvXNtNtCsmdD2PK2ogL_9detective8indexers25uniswap_mainnet_proposalsNtB2_30UniswapMainnetProposalsIndexerNtNtB6_7indexer7Indexer17min_refresh_speed
FN:98,_RNvXNtNtCsmdD2PK2ogL_9detective8indexers25uniswap_mainnet_proposalsNtB2_30UniswapMainnetProposalsIndexerNtNtB6_7indexer7Indexer17max_refresh_speed
FN:108,_RNCNvNtNtCsmdD2PK2ogL_9detective8indexers25uniswap_mainnet_proposals17data_for_proposal0B7_
FN:37,_RNCNvXNtNtCsmdD2PK2ogL_9detective8indexers25uniswap_mainnet_proposalsNtB4_30UniswapMainnetProposalsIndexerNtNtB8_7indexer7Indexer7process0B8_
FN:78,_RNCNCNvXNtNtCsmdD2PK2ogL_9detective8indexers25uniswap_mainnet_proposalsNtB6_30UniswapMainnetProposalsIndexerNtNtBa_7indexer7Indexer7process00Ba_
FN:84,_RNCNCNvXNtNtCsmdD2PK2ogL_9detective8indexers25uniswap_mainnet_proposalsNtB6_30UniswapMainnetProposalsIndexerNtNtBa_7indexer7Indexer7process0s_0Ba_
FN:103,_RNvNtNtCsmdD2PK2ogL_9detective8indexers25uniswap_mainnet_proposals17data_for_proposal
FN:92,_RNvXNtNtCsmdD2PK2ogL_9detective8indexers25uniswap_mainnet_proposalsNtB2_30UniswapMainnetProposalsIndexerNtNtB6_7indexer7Indexer7process
FN:275,_RNCNvNtNtNtCsmdD2PK2ogL_9detective8indexers25uniswap_mainnet_proposals25uniswap_mainnet_proposalss_17uniswap_mainnet_10B9_
FN:275,_RNvNtNtNtCsmdD2PK2ogL_9detective8indexers25uniswap_mainnet_proposals25uniswap_mainnet_proposalss_17uniswap_mainnet_1
FNDA:0,_RNvXNtNtCsmdD2PK2ogL_9detective8indexers25uniswap_mainnet_proposalsNtB2_30UniswapMainnetProposalsIndexerNtNtB6_7indexer7Indexer17min_refresh_speed
FNDA:0,_RNvXNtNtCsmdD2PK2ogL_9detective8indexers25uniswap_mainnet_proposalsNtB2_30UniswapMainnetProposalsIndexerNtNtB6_7indexer7Indexer17max_refresh_speed
FNDA:1,_RNCNvNtNtCsmdD2PK2ogL_9detective8indexers25uniswap_mainnet_proposals17data_for_proposal0B7_
FNDA:1,_RNCNvXNtNtCsmdD2PK2ogL_9detective8indexers25uniswap_mainnet_proposalsNtB4_30UniswapMainnetProposalsIndexerNtNtB8_7indexer7Indexer7process0B8_
FNDA:1,_RNCNCNvXNtNtCsmdD2PK2ogL_9detective8indexers25uniswap_mainnet_proposalsNtB6_30UniswapMainnetProposalsIndexerNtNtBa_7indexer7Indexer7process00Ba_
FNDA:0,_RNCNCNvXNtNtCsmdD2PK2ogL_9detective8indexers25uniswap_mainnet_proposalsNtB6_30UniswapMainnetProposalsIndexerNtNtBa_7indexer7Indexer7process0s_0Ba_
FNDA:1,_RNvNtNtCsmdD2PK2ogL_9detective8indexers25uniswap_mainnet_proposals17data_for_proposal
FNDA:1,_RNvXNtNtCsmdD2PK2ogL_9detective8indexers25uniswap_mainnet_proposalsNtB2_30UniswapMainnetProposalsIndexerNtNtB6_7indexer7Indexer7process
FNDA:1,_RNCNvNtNtNtCsmdD2PK2ogL_9detective8indexers25uniswap_mainnet_proposals25uniswap_mainnet_proposalss_17uniswap_mainnet_10B9_
FNDA:1,_RNvNtNtNtCsmdD2PK2ogL_9detective8indexers25uniswap_mainnet_proposals25uniswap_mainnet_proposalss_17uniswap_mainnet_1
FNF:10
FNH:7
DA:37,1
DA:38,1
DA:40,1
DA:42,1
DA:43,1
DA:44,6
DA:45,1
DA:47,1
DA:48,1
DA:49,0
DA:51,1
DA:54,1
DA:55,1
DA:56,1
DA:58,1
DA:59,1
DA:60,1
DA:61,1
DA:62,1
DA:63,1
DA:64,11
DA:65,1
DA:67,1
DA:69,1
DA:70,1
DA:71,185
DA:72,1
DA:73,1
DA:76,1
DA:77,1
DA:78,1
DA:79,1
DA:80,1
DA:83,1
DA:84,1
DA:85,0
DA:86,0
DA:87,1
DA:88,1
DA:89,1
DA:90,1
DA:91,1
DA:92,2
DA:94,0
DA:95,0
DA:96,0
DA:98,0
DA:99,0
DA:100,0
DA:103,1
DA:104,1
DA:105,1
DA:106,1
DA:107,1
DA:108,1
DA:109,1
DA:110,1
DA:111,1
DA:112,1
DA:113,1
DA:114,19
DA:115,1
DA:116,1
DA:117,1
DA:118,1
DA:119,1
DA:120,1
DA:121,1
DA:122,1
DA:124,73
DA:125,1
DA:127,0
DA:128,0
DA:129,0
DA:130,0
DA:131,0
DA:132,0
DA:133,0
DA:134,0
DA:135,0
DA:138,0
DA:139,0
DA:143,90
DA:144,1
DA:146,0
DA:147,0
DA:148,0
DA:149,0
DA:150,0
DA:151,0
DA:152,0
DA:153,0
DA:154,0
DA:157,0
DA:158,0
DA:162,1
DA:163,1
DA:164,1
DA:165,1
DA:166,1
DA:167,1
DA:168,1
DA:169,1
DA:170,1
DA:171,1
DA:172,1
DA:173,1
DA:174,1
DA:175,1
DA:176,1
DA:177,1
DA:178,1
DA:180,1
DA:181,0
DA:182,1
DA:184,1
DA:185,1
DA:186,1
DA:188,1
DA:189,1
DA:190,1
DA:191,1
DA:192,1
DA:194,1
DA:195,1
DA:196,1
DA:197,1
DA:198,1
DA:199,1
DA:200,1
DA:201,1
DA:202,1
DA:204,1
DA:205,1
DA:206,1
DA:207,1
DA:208,1
DA:210,1
DA:211,1
DA:213,1
DA:214,1
DA:215,1
DA:216,1
DA:217,1
DA:220,1
DA:221,0
DA:222,0
DA:223,0
DA:224,0
DA:225,0
DA:226,0
DA:227,0
DA:228,1
DA:229,0
DA:232,1
DA:233,1
DA:234,1
DA:235,1
DA:236,1
DA:237,1
DA:238,1
DA:239,1
DA:240,1
DA:241,1
DA:242,1
DA:243,1
DA:244,1
DA:245,1
DA:246,1
DA:247,1
DA:248,1
DA:249,1
DA:250,1
DA:251,1
DA:252,1
DA:253,1
DA:254,1
DA:255,1
DA:256,1
DA:257,1
DA:258,1
DA:259,1
DA:260,1
DA:261,1
DA:262,1
DA:263,1
DA:275,1
DA:276,1
DA:277,1
DA:278,1
DA:279,1
DA:280,1
DA:281,1
DA:282,1
DA:283,1
DA:284,1
DA:285,1
DA:286,1
DA:287,1
DA:288,1
DA:289,1
DA:290,1
DA:291,1
DA:292,1
DA:293,1
DA:294,1
DA:295,1
DA:296,1
DA:297,1
DA:298,1
DA:299,202
DA:300,1
DA:301,1
DA:302,1
DA:303,1
DA:304,1
DA:305,1
DA:306,1
DA:307,1
DA:308,1
DA:309,1
DA:310,1
DA:311,1
DA:312,1
DA:313,1
DA:314,1
DA:315,1
DA:316,1
DA:317,1
DA:318,1
DA:319,1
DA:320,1
DA:321,1
DA:322,1
DA:323,1
DA:324,1
DA:325,1
DA:326,1
DA:327,1
DA:328,1
DA:329,1
BRF:0
BRH:0
LF:299
LH:256
end_of_record
SF:/Users/andrei/git/proposalsapp/apps/detective/indexers/uniswap_mainnet_votes.rs
FN:27,_RNvMNtNtCsmdD2PK2ogL_9detective8indexers21uniswap_mainnet_votesNtB2_26UniswapMainnetVotesIndexer24proposal_indexer_variant
FN:75,_RNvXs_NtNtCsmdD2PK2ogL_9detective8indexers21uniswap_mainnet_votesNtB4_26UniswapMainnetVotesIndexerNtNtB8_7indexer7Indexer17min_refresh_speed
FN:79,_RNvXs_NtNtCsmdD2PK2ogL_9detective8indexers21uniswap_mainnet_votesNtB4_26UniswapMainnetVotesIndexerNtNtB8_7indexer7Indexer17max_refresh_speed
FN:146,_RNCNvNtNtNtCsmdD2PK2ogL_9detective8indexers21uniswap_mainnet_votes21uniswap_mainnet_votess_17uniswap_mainnet_10B9_
FN:84,_RNvNtNtCsmdD2PK2ogL_9detective8indexers21uniswap_mainnet_votes9get_votes
FN:73,_RNvXs_NtNtCsmdD2PK2ogL_9detective8indexers21uniswap_mainnet_votesNtB4_26UniswapMainnetVotesIndexerNtNtB8_7indexer7Indexer7process
FN:88,_RNCNvNtNtCsmdD2PK2ogL_9detective8indexers21uniswap_mainnet_votes9get_votes0B7_
FN:38,_RNCNvXs_NtNtCsmdD2PK2ogL_9detective8indexers21uniswap_mainnet_votesNtB6_26UniswapMainnetVotesIndexerNtNtBa_7indexer7Indexer7process0Ba_
FN:146,_RNvNtNtNtCsmdD2PK2ogL_9detective8indexers21uniswap_mainnet_votes21uniswap_mainnet_votess_17uniswap_mainnet_1
FNDA:0,_RNvMNtNtCsmdD2PK2ogL_9detective8indexers21uniswap_mainnet_votesNtB2_26UniswapMainnetVotesIndexer24proposal_indexer_variant
FNDA:0,_RNvXs_NtNtCsmdD2PK2ogL_9detective8indexers21uniswap_mainnet_votesNtB4_26UniswapMainnetVotesIndexerNtNtB8_7indexer7Indexer17min_refresh_speed
FNDA:0,_RNvXs_NtNtCsmdD2PK2ogL_9detective8indexers21uniswap_mainnet_votesNtB4_26UniswapMainnetVotesIndexerNtNtB8_7indexer7Indexer17max_refresh_speed
FNDA:1,_RNCNvNtNtNtCsmdD2PK2ogL_9detective8indexers21uniswap_mainnet_votes21uniswap_mainnet_votess_17uniswap_mainnet_10B9_
FNDA:1,_RNvNtNtCsmdD2PK2ogL_9detective8indexers21uniswap_mainnet_votes9get_votes
FNDA:1,_RNvXs_NtNtCsmdD2PK2ogL_9detective8indexers21uniswap_mainnet_votesNtB4_26UniswapMainnetVotesIndexerNtNtB8_7indexer7Indexer7process
FNDA:1,_RNCNvNtNtCsmdD2PK2ogL_9detective8indexers21uniswap_mainnet_votes9get_votes0B7_
FNDA:1,_RNCNvXs_NtNtCsmdD2PK2ogL_9detective8indexers21uniswap_mainnet_votesNtB6_26UniswapMainnetVotesIndexerNtNtBa_7indexer7Indexer7process0Ba_
FNDA:1,_RNvNtNtNtCsmdD2PK2ogL_9detective8indexers21uniswap_mainnet_votes21uniswap_mainnet_votess_17uniswap_mainnet_1
FNF:9
FNH:6
DA:27,0
DA:28,0
DA:29,0
DA:38,1
DA:39,1
DA:41,1
DA:43,1
DA:44,1
DA:45,6
DA:46,1
DA:48,1
DA:49,1
DA:50,0
DA:52,1
DA:55,1
DA:56,1
DA:57,1
DA:59,1
DA:60,1
DA:61,1
DA:62,1
DA:63,1
DA:64,1
DA:65,2
DA:66,1
DA:68,1
DA:69,13
DA:70,1
DA:72,1
DA:73,2
DA:75,0
DA:76,0
DA:77,0
DA:79,0
DA:80,0
DA:81,0
DA:84,1
DA:85,1
DA:86,1
DA:87,1
DA:88,1
DA:89,1
DA:90,1
DA:91,1
DA:93,2
DA:94,1
DA:95,1
DA:96,1
DA:97,13
DA:98,1
DA:99,1
DA:100,1
DA:101,1
DA:102,1
DA:103,1
DA:104,1
DA:105,1
DA:106,1
DA:107,1
DA:108,1
DA:109,1
DA:110,1
DA:111,1
DA:112,1
DA:113,1
DA:114,0
DA:115,0
DA:116,0
DA:118,1
DA:119,1
DA:120,1
DA:121,1
DA:122,1
DA:123,1
DA:124,1
DA:125,1
DA:126,1
DA:127,1
DA:128,1
DA:129,1
DA:133,1
DA:134,1
DA:146,1
DA:147,1
DA:148,1
DA:149,1
DA:150,1
DA:151,1
DA:152,1
DA:153,1
DA:154,1
DA:155,1
DA:156,1
DA:157,1
DA:158,1
DA:159,1
DA:160,1
DA:161,1
DA:162,1
DA:163,1
DA:164,1
DA:165,1
DA:166,1
DA:167,1
DA:168,1
DA:169,1
DA:170,21
DA:171,1
DA:172,1
DA:173,1
DA:174,1
DA:175,1
DA:176,1
DA:177,1
DA:178,1
DA:179,1
DA:180,1
DA:181,1
DA:182,1
DA:183,1
DA:184,1
DA:185,1
DA:186,1
DA:187,1
DA:188,1
DA:189,1
DA:190,1
DA:191,1
DA:192,1
BRF:0
BRH:0
LF:175
LH:161
end_of_record
SF:/Users/andrei/git/proposalsapp/apps/detective/main.rs
FN:87,_RNvCsmdD2PK2ogL_9detective4main
FN:88,_RNCNvCsmdD2PK2ogL_9detective4main0B3_
FN:109,_RNCNCNvCsmdD2PK2ogL_9detective4main00B5_
FN:169,_RNCNCNvCsmdD2PK2ogL_9detective4main0s_0B5_
FN:187,_RNvCsmdD2PK2ogL_9detective19create_job_consumer
FN:192,_RNCNvCsmdD2PK2ogL_9detective19create_job_consumer0B3_
FN:199,_RNCNCNvCsmdD2PK2ogL_9detective19create_job_consumer00B5_
FN:209,_RNCNCNCNvCsmdD2PK2ogL_9detective19create_job_consumer000B7_
FN:284,_RNvCsmdD2PK2ogL_9detective11get_indexer
FNDA:0,_RNvCsmdD2PK2ogL_9detective4main
FNDA:0,_RNCNvCsmdD2PK2ogL_9detective4main0B3_
FNDA:0,_RNCNCNvCsmdD2PK2ogL_9detective4main00B5_
FNDA:0,_RNCNCNvCsmdD2PK2ogL_9detective4main0s_0B5_
FNDA:0,_RNvCsmdD2PK2ogL_9detective19create_job_consumer
FNDA:0,_RNCNvCsmdD2PK2ogL_9detective19create_job_consumer0B3_
FNDA:0,_RNCNCNvCsmdD2PK2ogL_9detective19create_job_consumer00B5_
FNDA:0,_RNCNCNCNvCsmdD2PK2ogL_9detective19create_job_consumer000B7_
FNDA:0,_RNvCsmdD2PK2ogL_9detective11get_indexer
FNF:9
FNH:0
DA:87,0
DA:88,0
DA:89,0
DA:90,0
DA:91,0
DA:94,0
DA:95,0
DA:96,0
DA:97,0
DA:98,0
DA:99,0
DA:100,0
DA:101,0
DA:102,0
DA:103,0
DA:104,0
DA:105,0
DA:106,0
DA:107,0
DA:108,0
DA:109,0
DA:111,0
DA:112,0
DA:113,0
DA:115,0
DA:116,0
DA:117,0
DA:119,0
DA:120,0
DA:121,0
DA:123,0
DA:125,0
DA:129,0
DA:130,0
DA:131,0
DA:132,0
DA:133,0
DA:134,0
DA:135,0
DA:136,0
DA:140,0
DA:143,0
DA:147,0
DA:153,0
DA:155,0
DA:156,0
DA:157,0
DA:158,0
DA:159,0
DA:160,0
DA:161,0
DA:162,0
DA:163,0
DA:164,0
DA:165,0
DA:166,0
DA:167,0
DA:168,0
DA:169,0
DA:170,0
DA:171,0
DA:172,0
DA:175,0
DA:176,0
DA:177,0
DA:178,0
DA:179,0
DA:180,0
DA:181,0
DA:182,0
DA:183,0
DA:184,0
DA:187,0
DA:188,0
DA:189,0
DA:190,0
DA:191,0
DA:192,0
DA:193,0
DA:195,0
DA:196,0
DA:197,0
DA:198,0
DA:199,0
DA:200,0
DA:204,0
DA:207,0
DA:209,0
DA:210,0
DA:211,0
DA:212,0
DA:214,0
DA:215,0
DA:216,0
DA:217,0
DA:218,0
DA:219,0
DA:220,0
DA:221,0
DA:222,0
DA:223,0
DA:225,0
DA:226,0
DA:227,0
DA:228,0
DA:229,0
DA:230,0
DA:232,0
DA:233,0
DA:234,0
DA:236,0
DA:238,0
DA:239,0
DA:240,0
DA:242,0
DA:243,0
DA:244,0
DA:246,0
DA:247,0
DA:250,0
DA:252,0
DA:253,0
DA:254,0
DA:255,0
DA:256,0
DA:257,0
DA:261,0
DA:262,0
DA:263,0
DA:264,0
DA:265,0
DA:269,0
DA:272,0
DA:276,0
DA:277,0
DA:278,0
DA:279,0
DA:281,0
DA:282,0
DA:284,0
DA:285,0
DA:287,0
DA:290,0
DA:293,0
DA:294,0
DA:295,0
DA:296,0
DA:297,0
DA:298,0
DA:299,0
DA:300,0
DA:301,0
DA:302,0
DA:303,0
DA:304,0
DA:305,0
DA:306,0
DA:307,0
DA:308,0
DA:309,0
DA:310,0
DA:311,0
DA:312,0
DA:313,0
DA:314,0
DA:316,0
DA:318,0
DA:319,0
DA:320,0
DA:321,0
DA:322,0
DA:323,0
DA:324,0
DA:325,0
DA:326,0
DA:327,0
DA:328,0
DA:329,0
DA:330,0
DA:331,0
DA:333,0
BRF:0
BRH:0
LF:190
LH:0
end_of_record
SF:/Users/andrei/git/proposalsapp/apps/detective/rpc_providers.rs
FN:14,_RNvNtCsmdD2PK2ogL_9detective13rpc_providers15create_provider
FN:15,_RNCNvNtCsmdD2PK2ogL_9detective13rpc_providers15create_provider0B5_
FN:19,_RNvNtCsmdD2PK2ogL_9detective13rpc_providers12get_provider
FNDA:43,_RNvNtCsmdD2PK2ogL_9detective13rpc_providers15create_provider
FNDA:0,_RNCNvNtCsmdD2PK2ogL_9detective13rpc_providers15create_provider0B5_
FNDA:43,_RNvNtCsmdD2PK2ogL_9detective13rpc_providers12get_provider
FNF:3
FNH:2
DA:14,43
DA:15,43
DA:16,43
DA:17,43
DA:19,43
DA:20,43
DA:21,43
DA:22,13
DA:23,13
DA:24,4
DA:25,0
DA:26,0
DA:28,43
BRF:0
BRH:0
LF:14
LH:11
end_of_record
SF:/Users/andrei/git/proposalsapp/apps/detective/snapshot_api.rs
FN:16,_RNvMNtCsmdD2PK2ogL_9detective12snapshot_apiNtB2_11RateLimiter3new
FN:32,_RNvXs_NtCsmdD2PK2ogL_9detective12snapshot_apiNtB4_17SnapshotApiConfigNtNtCsliVzVx4luf9_4core7default7Default7default
FN:56,_RNvXs0_NtCsmdD2PK2ogL_9detective12snapshot_apiNtB5_18SnapshotApiHandlerNtNtCsliVzVx4luf9_4core5clone5Clone5clone
FN:68,_RNvMs1_NtCsmdD2PK2ogL_9detective12snapshot_apiNtB5_18SnapshotApiHandler3new
FN:106,_RNvMs1_NtCsmdD2PK2ogL_9detective12snapshot_apiNtB5_18SnapshotApiHandler9run_queue
FN:125,_RNvMs1_NtCsmdD2PK2ogL_9detective12snapshot_apiNtB5_18SnapshotApiHandler15execute_request
FN:183,_RNvMs1_NtCsmdD2PK2ogL_9detective12snapshot_apiNtB5_18SnapshotApiHandler22update_rate_limit_info
FN:203,_RNvMs1_NtCsmdD2PK2ogL_9detective12snapshot_apiNtB5_18SnapshotApiHandler19wait_for_rate_limit
FN:87,_RINvMs1_NtCsmdD2PK2ogL_9detective12snapshot_apiNtB6_18SnapshotApiHandler5fetchNtNtNtB8_8indexers18snapshot_proposals15GraphQLResponseEB8_
FN:90,_RNCINvMs1_NtCsmdD2PK2ogL_9detective12snapshot_apiNtB8_18SnapshotApiHandler5fetchNtNtNtBa_8indexers18snapshot_proposals15GraphQLResponseE0Ba_
FN:106,_RNCNvMs1_NtCsmdD2PK2ogL_9detective12snapshot_apiNtB7_18SnapshotApiHandler9run_queue0B9_
FN:113,_RNCNCNvMs1_NtCsmdD2PK2ogL_9detective12snapshot_apiNtB9_18SnapshotApiHandler9run_queue00Bb_
FN:131,_RNCNvMs1_NtCsmdD2PK2ogL_9detective12snapshot_apiNtB7_18SnapshotApiHandler15execute_request0B9_
FN:158,_RNCNCNvMs1_NtCsmdD2PK2ogL_9detective12snapshot_apiNtB9_18SnapshotApiHandler15execute_request00Bb_
FN:159,_RNCNCNvMs1_NtCsmdD2PK2ogL_9detective12snapshot_apiNtB9_18SnapshotApiHandler15execute_request0s_0Bb_
FN:203,_RNCNvMs1_NtCsmdD2PK2ogL_9detective12snapshot_apiNtB7_18SnapshotApiHandler19wait_for_rate_limit0B9_
FNDA:1,_RNvMNtCsmdD2PK2ogL_9detective12snapshot_apiNtB2_11RateLimiter3new
FNDA:1,_RNvXs_NtCsmdD2PK2ogL_9detective12snapshot_apiNtB4_17SnapshotApiConfigNtNtCsliVzVx4luf9_4core7default7Default7default
FNDA:1,_RNvXs0_NtCsmdD2PK2ogL_9detective12snapshot_apiNtB5_18SnapshotApiHandlerNtNtCsliVzVx4luf9_4core5clone5Clone5clone
FNDA:1,_RNvMs1_NtCsmdD2PK2ogL_9detective12snapshot_apiNtB5_18SnapshotApiHandler3new
FNDA:1,_RNvMs1_NtCsmdD2PK2ogL_9detective12snapshot_apiNtB5_18SnapshotApiHandler9run_queue
FNDA:1,_RNvMs1_NtCsmdD2PK2ogL_9detective12snapshot_apiNtB5_18SnapshotApiHandler15execute_request
FNDA:1,_RNvMs1_NtCsmdD2PK2ogL_9detective12snapshot_apiNtB5_18SnapshotApiHandler22update_rate_limit_info
FNDA:1,_RNvMs1_NtCsmdD2PK2ogL_9detective12snapshot_apiNtB5_18SnapshotApiHandler19wait_for_rate_limit
FNDA:1,_RINvMs1_NtCsmdD2PK2ogL_9detective12snapshot_apiNtB6_18SnapshotApiHandler5fetchNtNtNtB8_8indexers18snapshot_proposals15GraphQLResponseEB8_
FNDA:1,_RNCINvMs1_NtCsmdD2PK2ogL_9detective12snapshot_apiNtB8_18SnapshotApiHandler5fetchNtNtNtBa_8indexers18snapshot_proposals15GraphQLResponseE0Ba_
FNDA:1,_RNCNvMs1_NtCsmdD2PK2ogL_9detective12snapshot_apiNtB7_18SnapshotApiHandler9run_queue0B9_
FNDA:1,_RNCNCNvMs1_NtCsmdD2PK2ogL_9detective12snapshot_apiNtB9_18SnapshotApiHandler9run_queue00Bb_
FNDA:1,_RNCNvMs1_NtCsmdD2PK2ogL_9detective12snapshot_apiNtB7_18SnapshotApiHandler15execute_request0B9_
FNDA:0,_RNCNCNvMs1_NtCsmdD2PK2ogL_9detective12snapshot_apiNtB9_18SnapshotApiHandler15execute_request00Bb_
FNDA:0,_RNCNCNvMs1_NtCsmdD2PK2ogL_9detective12snapshot_apiNtB9_18SnapshotApiHandler15execute_request0s_0Bb_
FNDA:1,_RNCNvMs1_NtCsmdD2PK2ogL_9detective12snapshot_apiNtB7_18SnapshotApiHandler19wait_for_rate_limit0B9_
FNF:16
FNH:14
DA:16,1
DA:17,1
DA:18,1
DA:19,1
DA:20,1
DA:21,1
DA:32,1
DA:33,1
DA:34,1
DA:35,1
DA:36,1
DA:37,1
DA:38,1
DA:56,1
DA:57,1
DA:58,1
DA:59,1
DA:60,1
DA:61,1
DA:62,1
DA:63,1
DA:64,1
DA:68,1
DA:69,1
DA:70,1
DA:71,1
DA:72,1
DA:73,1
DA:74,1
DA:75,1
DA:76,1
DA:77,1
DA:78,1
DA:79,1
DA:80,1
DA:81,1
DA:82,1
DA:83,1
DA:84,1
DA:85,1
DA:87,1
DA:88,1
DA:89,1
DA:90,1
DA:91,1
DA:92,1
DA:93,1
DA:94,1
DA:95,1
DA:96,1
DA:97,1
DA:98,1
DA:100,1
DA:102,1
DA:103,1
DA:104,1
DA:106,1
DA:107,2
DA:108,1
DA:109,1
DA:110,1
DA:111,1
DA:112,1
DA:113,1
DA:114,1
DA:115,1
DA:116,9
DA:117,1
DA:118,0
DA:119,1
DA:120,1
DA:121,1
DA:123,0
DA:125,1
DA:126,1
DA:127,1
DA:128,1
DA:129,1
DA:130,1
DA:131,1
DA:132,1
DA:133,1
DA:136,1
DA:138,1
DA:139,1
DA:140,1
DA:141,1
DA:142,1
DA:143,6
DA:145,1
DA:146,1
DA:147,1
DA:148,1
DA:149,3
DA:150,0
DA:151,0
DA:152,0
DA:153,0
DA:154,0
DA:155,0
DA:156,0
DA:157,0
DA:158,0
DA:159,0
DA:160,0
DA:161,0
DA:162,0
DA:163,0
DA:164,0
DA:165,0
DA:167,0
DA:170,0
DA:171,0
DA:172,0
DA:173,0
DA:174,0
DA:175,0
DA:176,0
DA:177,0
DA:181,1
DA:183,1
DA:184,1
DA:185,1
DA:186,1
DA:187,1
DA:188,1
DA:189,1
DA:190,0
DA:192,1
DA:193,1
DA:194,1
DA:195,1
DA:196,1
DA:197,0
DA:198,0
DA:200,1
DA:201,1
DA:203,1
DA:208,1
DA:209,1
DA:210,1
DA:211,1
DA:212,1
DA:213,0
DA:215,0
DA:216,0
DA:217,0
DA:218,0
DA:219,0
DA:220,0
DA:221,0
DA:222,0
DA:223,0
DA:228,0
DA:229,0
DA:230,0
DA:232,1
BRF:0
BRH:0
LF:165
LH:120
end_of_record
SF:/Users/andrei/git/proposalsapp/apps/discourse/api_handler.rs
FN:27,_RNvMNtCsfc6mssXcq6n_9discourse11api_handlerNtB2_10ApiHandler3new
FN:46,_RINvMNtCsfc6mssXcq6n_9discourse11api_handlerNtB3_10ApiHandler5fetchpEB5_
FN:49,_RNCINvMNtCsfc6mssXcq6n_9discourse11api_handlerNtB5_10ApiHandler5fetchpE0B7_
FN:59,_RNCNCINvMNtCsfc6mssXcq6n_9discourse11api_handlerNtB7_10ApiHandler5fetchpE00B9_
FN:73,_RNCNCINvMNtCsfc6mssXcq6n_9discourse11api_handlerNtB7_10ApiHandler5fetchpE0s_0B9_
FN:74,_RNCNCINvMNtCsfc6mssXcq6n_9discourse11api_handlerNtB7_10ApiHandler5fetchpE0s0_0B9_
FN:77,_RNvMNtCsfc6mssXcq6n_9discourse11api_handlerNtB2_10ApiHandler9run_queue
FN:77,_RNCNvMNtCsfc6mssXcq6n_9discourse11api_handlerNtB4_10ApiHandler9run_queue0B6_
FN:84,_RNCNCNvMNtCsfc6mssXcq6n_9discourse11api_handlerNtB6_10ApiHandler9run_queue00B8_
FN:93,_RNvMNtCsfc6mssXcq6n_9discourse11api_handlerNtB2_10ApiHandler15execute_request
FN:93,_RNCNvMNtCsfc6mssXcq6n_9discourse11api_handlerNtB4_10ApiHandler15execute_request0B6_
FN:110,_RNCNCNvMNtCsfc6mssXcq6n_9discourse11api_handlerNtB6_10ApiHandler15execute_request00B8_
FN:125,_RNCNCNvMNtCsfc6mssXcq6n_9discourse11api_handlerNtB6_10ApiHandler15execute_request0s_0B8_
FN:126,_RNCNCNvMNtCsfc6mssXcq6n_9discourse11api_handlerNtB6_10ApiHandler15execute_request0s0_0B8_
FNDA:0,_RNvMNtCsfc6mssXcq6n_9discourse11api_handlerNtB2_10ApiHandler3new
FNDA:0,_RINvMNtCsfc6mssXcq6n_9discourse11api_handlerNtB3_10ApiHandler5fetchpEB5_
FNDA:0,_RNCINvMNtCsfc6mssXcq6n_9discourse11api_handlerNtB5_10ApiHandler5fetchpE0B7_
FNDA:0,_RNCNCINvMNtCsfc6mssXcq6n_9discourse11api_handlerNtB7_10ApiHandler5fetchpE00B9_
FNDA:0,_RNCNCINvMNtCsfc6mssXcq6n_9discourse11api_handlerNtB7_10ApiHandler5fetchpE0s_0B9_
FNDA:0,_RNCNCINvMNtCsfc6mssXcq6n_9discourse11api_handlerNtB7_10ApiHandler5fetchpE0s0_0B9_
FNDA:0,_RNvMNtCsfc6mssXcq6n_9discourse11api_handlerNtB2_10ApiHandler9run_queue
FNDA:0,_RNCNvMNtCsfc6mssXcq6n_9discourse11api_handlerNtB4_10ApiHandler9run_queue0B6_
FNDA:0,_RNCNCNvMNtCsfc6mssXcq6n_9discourse11api_handlerNtB6_10ApiHandler9run_queue00B8_
FNDA:0,_RNvMNtCsfc6mssXcq6n_9discourse11api_handlerNtB2_10ApiHandler15execute_request
FNDA:0,_RNCNvMNtCsfc6mssXcq6n_9discourse11api_handlerNtB4_10ApiHandler15execute_request0B6_
FNDA:0,_RNCNCNvMNtCsfc6mssXcq6n_9discourse11api_handlerNtB6_10ApiHandler15execute_request00B8_
FNDA:0,_RNCNCNvMNtCsfc6mssXcq6n_9discourse11api_handlerNtB6_10ApiHandler15execute_request0s_0B8_
FNDA:0,_RNCNCNvMNtCsfc6mssXcq6n_9discourse11api_handlerNtB6_10ApiHandler15execute_request0s0_0B8_
FNF:14
FNH:0
DA:27,0
DA:28,0
DA:29,0
DA:30,0
DA:31,0
DA:32,0
DA:33,0
DA:34,0
DA:35,0
DA:36,0
DA:37,0
DA:38,0
DA:39,0
DA:40,0
DA:41,0
DA:42,0
DA:43,0
DA:44,0
DA:46,0
DA:47,0
DA:48,0
DA:49,0
DA:50,0
DA:51,0
DA:52,0
DA:53,0
DA:54,0
DA:55,0
DA:56,0
DA:57,0
DA:58,0
DA:59,0
DA:61,0
DA:62,0
DA:63,0
DA:64,0
DA:65,0
DA:66,0
DA:67,0
DA:71,0
DA:72,0
DA:73,0
DA:74,0
DA:75,0
DA:77,0
DA:78,0
DA:79,0
DA:80,0
DA:81,0
DA:82,0
DA:83,0
DA:84,0
DA:85,0
DA:86,0
DA:87,0
DA:88,0
DA:89,0
DA:91,0
DA:93,0
DA:94,0
DA:95,0
DA:98,0
DA:99,0
DA:100,0
DA:101,0
DA:102,0
DA:103,0
DA:105,0
DA:106,0
DA:107,0
DA:108,0
DA:109,0
DA:110,0
DA:111,0
DA:112,0
DA:114,0
DA:115,0
DA:116,0
DA:117,0
DA:118,0
DA:119,0
DA:120,0
DA:121,0
DA:122,0
DA:123,0
DA:124,0
DA:125,0
DA:126,0
DA:127,0
DA:128,0
DA:129,0
DA:130,0
DA:131,0
DA:132,0
DA:135,0
DA:136,0
DA:138,0
DA:139,0
DA:140,0
DA:143,0
DA:144,0
DA:145,0
DA:146,0
DA:147,0
DA:148,0
DA:149,0
DA:150,0
DA:154,0
BRF:0
BRH:0
LF:119
LH:0
end_of_record
SF:/Users/andrei/git/proposalsapp/apps/discourse/db_handler.rs
FN:17,_RNvMNtCsfc6mssXcq6n_9discourse10db_handlerNtB2_9DbHandler3new
FN:17,_RNCNvMNtCsfc6mssXcq6n_9discourse10db_handlerNtB4_9DbHandler3new0B6_
FN:24,_RNvMNtCsfc6mssXcq6n_9discourse10db_handlerNtB2_9DbHandler19create_unknown_user
FN:24,_RNCNvMNtCsfc6mssXcq6n_9discourse10db_handlerNtB4_9DbHandler19create_unknown_user0B6_
FN:43,_RNvMNtCsfc6mssXcq6n_9discourse10db_handlerNtB2_9DbHandler11upsert_user
FN:43,_RNCNvMNtCsfc6mssXcq6n_9discourse10db_handlerNtB4_9DbHandler11upsert_user0B6_
FN:52,_RNCNCNvMNtCsfc6mssXcq6n_9discourse10db_handlerNtB6_9DbHandler11upsert_user00B8_
FN:77,_RNCNCNvMNtCsfc6mssXcq6n_9discourse10db_handlerNtB6_9DbHandler11upsert_user0s_0B8_
FN:105,_RNCNCNvMNtCsfc6mssXcq6n_9discourse10db_handlerNtB6_9DbHandler11upsert_user0s0_0B8_
FN:118,_RNvMNtCsfc6mssXcq6n_9discourse10db_handlerNtB2_9DbHandler15upsert_category
FN:118,_RNCNvMNtCsfc6mssXcq6n_9discourse10db_handlerNtB4_9DbHandler15upsert_category0B6_
FN:127,_RNCNCNvMNtCsfc6mssXcq6n_9discourse10db_handlerNtB6_9DbHandler15upsert_category00B8_
FN:155,_RNCNCNvMNtCsfc6mssXcq6n_9discourse10db_handlerNtB6_9DbHandler15upsert_category0s_0B8_
FN:185,_RNCNCNvMNtCsfc6mssXcq6n_9discourse10db_handlerNtB6_9DbHandler15upsert_category0s0_0B8_
FN:198,_RNvMNtCsfc6mssXcq6n_9discourse10db_handlerNtB2_9DbHandler12upsert_topic
FN:198,_RNCNvMNtCsfc6mssXcq6n_9discourse10db_handlerNtB4_9DbHandler12upsert_topic0B6_
FN:207,_RNCNCNvMNtCsfc6mssXcq6n_9discourse10db_handlerNtB6_9DbHandler12upsert_topic00B8_
FN:237,_RNCNCNvMNtCsfc6mssXcq6n_9discourse10db_handlerNtB6_9DbHandler12upsert_topic0s_0B8_
FN:270,_RNCNCNvMNtCsfc6mssXcq6n_9discourse10db_handlerNtB6_9DbHandler12upsert_topic0s0_0B8_
FN:283,_RNvMNtCsfc6mssXcq6n_9discourse10db_handlerNtB2_9DbHandler11upsert_post
FN:283,_RNCNvMNtCsfc6mssXcq6n_9discourse10db_handlerNtB4_9DbHandler11upsert_post0B6_
FN:292,_RNCNCNvMNtCsfc6mssXcq6n_9discourse10db_handlerNtB6_9DbHandler11upsert_post00B8_
FN:330,_RNCNCNvMNtCsfc6mssXcq6n_9discourse10db_handlerNtB6_9DbHandler11upsert_post0s_0B8_
FN:371,_RNCNCNvMNtCsfc6mssXcq6n_9discourse10db_handlerNtB6_9DbHandler11upsert_post0s0_0B8_
FNDA:0,_RNvMNtCsfc6mssXcq6n_9discourse10db_handlerNtB2_9DbHandler3new
FNDA:0,_RNCNvMNtCsfc6mssXcq6n_9discourse10db_handlerNtB4_9DbHandler3new0B6_
FNDA:0,_RNvMNtCsfc6mssXcq6n_9discourse10db_handlerNtB2_9DbHandler19create_unknown_user
FNDA:0,_RNCNvMNtCsfc6mssXcq6n_9discourse10db_handlerNtB4_9DbHandler19create_unknown_user0B6_
FNDA:0,_RNvMNtCsfc6mssXcq6n_9discourse10db_handlerNtB2_9DbHandler11upsert_user
FNDA:0,_RNCNvMNtCsfc6mssXcq6n_9discourse10db_handlerNtB4_9DbHandler11upsert_user0B6_
FNDA:0,_RNCNCNvMNtCsfc6mssXcq6n_9discourse10db_handlerNtB6_9DbHandler11upsert_user00B8_
FNDA:0,_RNCNCNvMNtCsfc6mssXcq6n_9discourse10db_handlerNtB6_9DbHandler11upsert_user0s_0B8_
FNDA:0,_RNCNCNvMNtCsfc6mssXcq6n_9discourse10db_handlerNtB6_9DbHandler11upsert_user0s0_0B8_
FNDA:0,_RNvMNtCsfc6mssXcq6n_9discourse10db_handlerNtB2_9DbHandler15upsert_category
FNDA:0,_RNCNvMNtCsfc6mssXcq6n_9discourse10db_handlerNtB4_9DbHandler15upsert_category0B6_
FNDA:0,_RNCNCNvMNtCsfc6mssXcq6n_9discourse10db_handlerNtB6_9DbHandler15upsert_category00B8_
FNDA:0,_RNCNCNvMNtCsfc6mssXcq6n_9discourse10db_handlerNtB6_9DbHandler15upsert_category0s_0B8_
FNDA:0,_RNCNCNvMNtCsfc6mssXcq6n_9discourse10db_handlerNtB6_9DbHandler15upsert_category0s0_0B8_
FNDA:0,_RNvMNtCsfc6mssXcq6n_9discourse10db_handlerNtB2_9DbHandler12upsert_topic
FNDA:0,_RNCNvMNtCsfc6mssXcq6n_9discourse10db_handlerNtB4_9DbHandler12upsert_topic0B6_
FNDA:0,_RNCNCNvMNtCsfc6mssXcq6n_9discourse10db_handlerNtB6_9DbHandler12upsert_topic00B8_
FNDA:0,_RNCNCNvMNtCsfc6mssXcq6n_9discourse10db_handlerNtB6_9DbHandler12upsert_topic0s_0B8_
FNDA:0,_RNCNCNvMNtCsfc6mssXcq6n_9discourse10db_handlerNtB6_9DbHandler12upsert_topic0s0_0B8_
FNDA:0,_RNvMNtCsfc6mssXcq6n_9discourse10db_handlerNtB2_9DbHandler11upsert_post
FNDA:0,_RNCNvMNtCsfc6mssXcq6n_9discourse10db_handlerNtB4_9DbHandler11upsert_post0B6_
FNDA:0,_RNCNCNvMNtCsfc6mssXcq6n_9discourse10db_handlerNtB6_9DbHandler11upsert_post00B8_
FNDA:0,_RNCNCNvMNtCsfc6mssXcq6n_9discourse10db_handlerNtB6_9DbHandler11upsert_post0s_0B8_
FNDA:0,_RNCNCNvMNtCsfc6mssXcq6n_9discourse10db_handlerNtB6_9DbHandler11upsert_post0s0_0B8_
FNF:24
FNH:0
DA:17,0
DA:18,0
DA:19,0
DA:20,0
DA:21,0
DA:22,0
DA:24,0
DA:25,0
DA:26,0
DA:27,0
DA:28,0
DA:29,0
DA:30,0
DA:31,0
DA:32,0
DA:33,0
DA:34,0
DA:35,0
DA:36,0
DA:37,0
DA:38,0
DA:39,0
DA:40,0
DA:41,0
DA:43,0
DA:44,0
DA:45,0
DA:46,0
DA:47,0
DA:48,0
DA:49,0
DA:50,0
DA:51,0
DA:52,0
DA:53,0
DA:54,0
DA:55,0
DA:56,0
DA:57,0
DA:58,0
DA:59,0
DA:61,0
DA:62,0
DA:63,0
DA:64,0
DA:65,0
DA:66,0
DA:67,0
DA:68,0
DA:69,0
DA:70,0
DA:71,0
DA:72,0
DA:73,0
DA:74,0
DA:75,0
DA:76,0
DA:77,0
DA:78,0
DA:79,0
DA:80,0
DA:81,0
DA:82,0
DA:83,0
DA:84,0
DA:86,0
DA:87,0
DA:88,0
DA:89,0
DA:90,0
DA:91,0
DA:92,0
DA:93,0
DA:94,0
DA:95,0
DA:96,0
DA:97,0
DA:98,0
DA:99,0
DA:100,0
DA:101,0
DA:102,0
DA:103,0
DA:104,0
DA:105,0
DA:106,0
DA:107,0
DA:108,0
DA:109,0
DA:110,0
DA:111,0
DA:112,0
DA:115,0
DA:116,0
DA:118,0
DA:119,0
DA:120,0
DA:121,0
DA:122,0
DA:123,0
DA:124,0
DA:125,0
DA:126,0
DA:127,0
DA:128,0
DA:129,0
DA:130,0
DA:131,0
DA:132,0
DA:133,0
DA:134,0
DA:136,0
DA:137,0
DA:138,0
DA:139,0
DA:140,0
DA:141,0
DA:142,0
DA:143,0
DA:144,0
DA:145,0
DA:146,0
DA:147,0
DA:148,0
DA:149,0
DA:150,0
DA:151,0
DA:152,0
DA:153,0
DA:154,0
DA:155,0
DA:156,0
DA:157,0
DA:158,0
DA:159,0
DA:160,0
DA:161,0
DA:162,0
DA:164,0
DA:165,0
DA:166,0
DA:167,0
DA:168,0
DA:169,0
DA:170,0
DA:171,0
DA:172,0
DA:173,0
DA:174,0
DA:175,0
DA:176,0
DA:177,0
DA:178,0
DA:179,0
DA:180,0
DA:181,0
DA:182,0
DA:183,0
DA:184,0
DA:185,0
DA:186,0
DA:187,0
DA:188,0
DA:189,0
DA:190,0
DA:191,0
DA:192,0
DA:195,0
DA:196,0
DA:198,0
DA:199,0
DA:200,0
DA:201,0
DA:202,0
DA:203,0
DA:204,0
DA:205,0
DA:206,0
DA:207,0
DA:208,0
DA:209,0
DA:210,0
DA:211,0
DA:212,0
DA:213,0
DA:214,0
DA:216,0
DA:217,0
DA:218,0
DA:219,0
DA:220,0
DA:221,0
DA:222,0
DA:223,0
DA:224,0
DA:225,0
DA:226,0
DA:227,0
DA:228,0
DA:229,0
DA:230,0
DA:231,0
DA:232,0
DA:233,0
DA:234,0
DA:235,0
DA:236,0
DA:237,0
DA:238,0
DA:239,0
DA:240,0
DA:241,0
DA:242,0
DA:243,0
DA:244,0
DA:246,0
DA:247,0
DA:248,0
DA:249,0
DA:250,0
DA:251,0
DA:252,0
DA:253,0
DA:254,0
DA:255,0
DA:256,0
DA:257,0
DA:258,0
DA:259,0
DA:260,0
DA:261,0
DA:262,0
DA:263,0
DA:264,0
DA:265,0
DA:266,0
DA:267,0
DA:268,0
DA:269,0
DA:270,0
DA:271,0
DA:272,0
DA:273,0
DA:274,0
DA:275,0
DA:276,0
DA:277,0
DA:280,0
DA:281,0
DA:283,0
DA:284,0
DA:285,0
DA:286,0
DA:287,0
DA:288,0
DA:289,0
DA:290,0
DA:291,0
DA:292,0
DA:293,0
DA:294,0
DA:295,0
DA:296,0
DA:297,0
DA:298,0
DA:299,0
DA:301,0
DA:302,0
DA:303,0
DA:304,0
DA:305,0
DA:306,0
DA:307,0
DA:308,0
DA:309,0
DA:310,0
DA:311,0
DA:312,0
DA:313,0
DA:314,0
DA:315,0
DA:316,0
DA:317,0
DA:318,0
DA:319,0
DA:320,0
DA:321,0
DA:322,0
DA:323,0
DA:324,0
DA:325,0
DA:326,0
DA:327,0
DA:328,0
DA:329,0
DA:330,0
DA:331,0
DA:332,0
DA:333,0
DA:334,0
DA:335,0
DA:336,0
DA:337,0
DA:339,0
DA:340,0
DA:341,0
DA:342,0
DA:343,0
DA:344,0
DA:345,0
DA:346,0
DA:347,0
DA:348,0
DA:349,0
DA:350,0
DA:351,0
DA:352,0
DA:353,0
DA:354,0
DA:355,0
DA:356,0
DA:357,0
DA:358,0
DA:359,0
DA:360,0
DA:361,0
DA:362,0
DA:363,0
DA:364,0
DA:365,0
DA:366,0
DA:367,0
DA:368,0
DA:369,0
DA:370,0
DA:371,0
DA:372,0
DA:373,0
DA:374,0
DA:375,0
DA:376,0
DA:377,0
DA:378,0
DA:381,0
DA:382,0
BRF:0
BRH:0
LF:375
LH:0
end_of_record
SF:/Users/andrei/git/proposalsapp/apps/discourse/indexers/categories.rs
FN:18,_RNvMNtNtCsfc6mssXcq6n_9discourse8indexers10categoriesNtB2_15CategoryIndexer3new
FN:24,_RNCNCNvMNtNtCsfc6mssXcq6n_9discourse8indexers10categoriesNtB6_15CategoryIndexer21update_all_categories00Ba_
FN:51,_RNCNCNCNvMNtNtCsfc6mssXcq6n_9discourse8indexers10categoriesNtB8_15CategoryIndexer21update_all_categories000Bc_
FN:94,_RNvNtNtCsfc6mssXcq6n_9discourse8indexers10categories18flatten_categories
FNDA:0,_RNvMNtNtCsfc6mssXcq6n_9discourse8indexers10categoriesNtB2_15CategoryIndexer3new
FNDA:0,_RNCNCNvMNtNtCsfc6mssXcq6n_9discourse8indexers10categoriesNtB6_15CategoryIndexer21update_all_categories00Ba_
FNDA:0,_RNCNCNCNvMNtNtCsfc6mssXcq6n_9discourse8indexers10categoriesNtB8_15CategoryIndexer21update_all_categories000Bc_
FNDA:0,_RNvNtNtCsfc6mssXcq6n_9discourse8indexers10categories18flatten_categories
FNF:4
FNH:0
DA:18,0
DA:19,0
DA:20,0
DA:21,0
DA:22,0
DA:23,0
DA:24,0
DA:51,0
DA:52,0
DA:55,0
DA:57,0
DA:58,0
DA:94,0
DA:95,0
DA:96,0
DA:97,0
DA:98,0
DA:100,0
DA:101,0
DA:102,0
DA:104,0
BRF:0
BRH:0
LF:21
LH:0
end_of_record
SF:/Users/andrei/git/proposalsapp/apps/discourse/indexers/posts.rs
FN:18,_RNvMNtNtCsfc6mssXcq6n_9discourse8indexers5postsNtB2_11PostIndexer3new
FN:24,_RNCNCNvMNtNtCsfc6mssXcq6n_9discourse8indexers5postsNtB6_11PostIndexer22update_posts_for_topic00Ba_
FNDA:0,_RNvMNtNtCsfc6mssXcq6n_9discourse8indexers5postsNtB2_11PostIndexer3new
FNDA:0,_RNCNCNvMNtNtCsfc6mssXcq6n_9discourse8indexers5postsNtB6_11PostIndexer22update_posts_for_topic00Ba_
FNF:2
FNH:0
DA:18,0
DA:19,0
DA:20,0
DA:21,0
DA:22,0
DA:23,0
DA:24,0
BRF:0
BRH:0
LF:7
LH:0
end_of_record
SF:/Users/andrei/git/proposalsapp/apps/discourse/indexers/topics.rs
FN:15,_RNvMNtNtCsfc6mssXcq6n_9discourse8indexers6topicsNtB2_12TopicIndexer3new
FN:21,_RNCNCNvMNtNtCsfc6mssXcq6n_9discourse8indexers6topicsNtB6_12TopicIndexer17update_all_topics00Ba_
FN:74,_RNCNCNvMNtNtCsfc6mssXcq6n_9discourse8indexers6topicsNtB6_12TopicIndexer17update_new_topics00Ba_
FNDA:0,_RNvMNtNtCsfc6mssXcq6n_9discourse8indexers6topicsNtB2_12TopicIndexer3new
FNDA:0,_RNCNCNvMNtNtCsfc6mssXcq6n_9discourse8indexers6topicsNtB6_12TopicIndexer17update_all_topics00Ba_
FNDA:0,_RNCNCNvMNtNtCsfc6mssXcq6n_9discourse8indexers6topicsNtB6_12TopicIndexer17update_new_topics00Ba_
FNF:3
FNH:0
DA:15,0
DA:16,0
DA:17,0
DA:18,0
DA:19,0
DA:20,0
DA:21,0
DA:74,0
BRF:0
BRH:0
LF:8
LH:0
end_of_record
SF:/Users/andrei/git/proposalsapp/apps/discourse/indexers/users.rs
FN:15,_RNvMNtNtCsfc6mssXcq6n_9discourse8indexers5usersNtB2_11UserIndexer3new
FN:21,_RNCNCNvMNtNtCsfc6mssXcq6n_9discourse8indexers5usersNtB6_11UserIndexer16update_all_users00Ba_
FN:41,_RNCNCNCNvMNtNtCsfc6mssXcq6n_9discourse8indexers5usersNtB8_11UserIndexer16update_all_users000Bc_
FN:90,_RNCNCNvMNtNtCsfc6mssXcq6n_9discourse8indexers5usersNtB6_11UserIndexer16update_new_users00Ba_
FN:112,_RNCNCNCNvMNtNtCsfc6mssXcq6n_9discourse8indexers5usersNtB8_11UserIndexer16update_new_users000Bc_
FN:160,_RNCNCNvMNtNtCsfc6mssXcq6n_9discourse8indexers5usersNtB6_11UserIndexer22fetch_user_by_username00Ba_
FN:192,_RNvMNtNtCsfc6mssXcq6n_9discourse8indexers5usersNtB2_11UserIndexer18process_avatar_url
FNDA:0,_RNvMNtNtCsfc6mssXcq6n_9discourse8indexers5usersNtB2_11UserIndexer3new
FNDA:0,_RNCNCNvMNtNtCsfc6mssXcq6n_9discourse8indexers5usersNtB6_11UserIndexer16update_all_users00Ba_
FNDA:0,_RNCNCNCNvMNtNtCsfc6mssXcq6n_9discourse8indexers5usersNtB8_11UserIndexer16update_all_users000Bc_
FNDA:0,_RNCNCNvMNtNtCsfc6mssXcq6n_9discourse8indexers5usersNtB6_11UserIndexer16update_new_users00Ba_
FNDA:0,_RNCNCNCNvMNtNtCsfc6mssXcq6n_9discourse8indexers5usersNtB8_11UserIndexer16update_new_users000Bc_
FNDA:0,_RNCNCNvMNtNtCsfc6mssXcq6n_9discourse8indexers5usersNtB6_11UserIndexer22fetch_user_by_username00Ba_
FNDA:0,_RNvMNtNtCsfc6mssXcq6n_9discourse8indexers5usersNtB2_11UserIndexer18process_avatar_url
FNF:7
FNH:0
DA:15,0
DA:16,0
DA:17,0
DA:18,0
DA:19,0
DA:20,0
DA:21,0
DA:41,0
DA:42,0
DA:43,0
DA:44,0
DA:45,0
DA:46,0
DA:47,0
DA:48,0
DA:49,0
DA:50,0
DA:51,0
DA:90,0
DA:112,0
DA:113,0
DA:114,0
DA:115,0
DA:116,0
DA:117,0
DA:118,0
DA:119,0
DA:120,0
DA:121,0
DA:122,0
DA:160,0
DA:192,0
DA:193,0
DA:195,0
DA:198,0
DA:199,0
DA:200,0
DA:201,0
DA:202,0
DA:204,0
BRF:0
BRH:0
LF:40
LH:0
end_of_record
SF:/Users/andrei/git/proposalsapp/apps/discourse/main.rs
FN:26,_RNvCsfc6mssXcq6n_9discourse4main
FN:26,_RNCNvCsfc6mssXcq6n_9discourse4main0B3_
FN:39,_RNCNCNvCsfc6mssXcq6n_9discourse4main00B5_
FN:62,_RNCNCNvCsfc6mssXcq6n_9discourse4main0s_0B5_
FN:99,_RNCNCNvCsfc6mssXcq6n_9discourse4main0s0_0B5_
FN:133,_RNCNCNvCsfc6mssXcq6n_9discourse4main0s1_0B5_
FN:167,_RNCNCNvCsfc6mssXcq6n_9discourse4main0s2_0B5_
FN:218,_RNCNCNvCsfc6mssXcq6n_9discourse4main0s3_0B5_
FN:288,_RNCNCNvCsfc6mssXcq6n_9discourse4main0s4_0B5_
FNDA:0,_RNvCsfc6mssXcq6n_9discourse4main
FNDA:0,_RNCNvCsfc6mssXcq6n_9discourse4main0B3_
FNDA:0,_RNCNCNvCsfc6mssXcq6n_9discourse4main00B5_
FNDA:0,_RNCNCNvCsfc6mssXcq6n_9discourse4main0s_0B5_
FNDA:0,_RNCNCNvCsfc6mssXcq6n_9discourse4main0s0_0B5_
FNDA:0,_RNCNCNvCsfc6mssXcq6n_9discourse4main0s1_0B5_
FNDA:0,_RNCNCNvCsfc6mssXcq6n_9discourse4main0s2_0B5_
FNDA:0,_RNCNCNvCsfc6mssXcq6n_9discourse4main0s3_0B5_
FNDA:0,_RNCNCNvCsfc6mssXcq6n_9discourse4main0s4_0B5_
FNF:9
FNH:0
DA:26,0
DA:27,0
DA:28,0
DA:29,0
DA:30,0
DA:31,0
DA:32,0
DA:33,0
DA:34,0
DA:35,0
DA:36,0
DA:37,0
DA:38,0
DA:39,0
DA:40,0
DA:41,0
DA:42,0
DA:43,0
DA:44,0
DA:45,0
DA:46,0
DA:47,0
DA:48,0
DA:49,0
DA:50,0
DA:51,0
DA:52,0
DA:53,0
DA:54,0
DA:55,0
DA:56,0
DA:57,0
DA:58,0
DA:59,0
DA:60,0
DA:61,0
DA:62,0
DA:63,0
DA:64,0
DA:65,0
DA:66,0
DA:67,0
DA:68,0
DA:69,0
DA:70,0
DA:71,0
DA:72,0
DA:73,0
DA:74,0
DA:75,0
DA:76,0
DA:77,0
DA:78,0
DA:79,0
DA:80,0
DA:81,0
DA:82,0
DA:83,0
DA:84,0
DA:85,0
DA:86,0
DA:87,0
DA:88,0
DA:89,0
DA:90,0
DA:91,0
DA:92,0
DA:93,0
DA:94,0
DA:95,0
DA:96,0
DA:97,0
DA:98,0
DA:99,0
DA:100,0
DA:101,0
DA:102,0
DA:103,0
DA:104,0
DA:105,0
DA:106,0
DA:107,0
DA:108,0
DA:109,0
DA:110,0
DA:111,0
DA:112,0
DA:113,0
DA:114,0
DA:115,0
DA:116,0
DA:117,0
DA:118,0
DA:119,0
DA:120,0
DA:121,0
DA:122,0
DA:123,0
DA:124,0
DA:125,0
DA:126,0
DA:127,0
DA:128,0
DA:129,0
DA:130,0
DA:131,0
DA:132,0
DA:133,0
DA:134,0
DA:135,0
DA:136,0
DA:137,0
DA:138,0
DA:139,0
DA:140,0
DA:141,0
DA:142,0
DA:143,0
DA:144,0
DA:145,0
DA:146,0
DA:147,0
DA:148,0
DA:149,0
DA:150,0
DA:151,0
DA:152,0
DA:153,0
DA:154,0
DA:155,0
DA:156,0
DA:157,0
DA:158,0
DA:159,0
DA:160,0
DA:161,0
DA:162,0
DA:163,0
DA:164,0
DA:165,0
DA:166,0
DA:167,0
DA:168,0
DA:169,0
DA:170,0
DA:171,0
DA:172,0
DA:173,0
DA:174,0
DA:175,0
DA:176,0
DA:177,0
DA:178,0
DA:179,0
DA:180,0
DA:181,0
DA:182,0
DA:183,0
DA:184,0
DA:185,0
DA:186,0
DA:187,0
DA:188,0
DA:189,0
DA:190,0
DA:191,0
DA:192,0
DA:193,0
DA:194,0
DA:195,0
DA:196,0
DA:197,0
DA:198,0
DA:199,0
DA:200,0
DA:201,0
DA:202,0
DA:203,0
DA:204,0
DA:205,0
DA:206,0
DA:207,0
DA:208,0
DA:209,0
DA:210,0
DA:211,0
DA:212,0
DA:213,0
DA:214,0
DA:215,0
DA:216,0
DA:217,0
DA:218,0
DA:219,0
DA:220,0
DA:221,0
DA:222,0
DA:223,0
DA:224,0
DA:225,0
DA:226,0
DA:227,0
DA:228,0
DA:229,0
DA:230,0
DA:231,0
DA:232,0
DA:233,0
DA:234,0
DA:235,0
DA:236,0
DA:237,0
DA:238,0
DA:239,0
DA:240,0
DA:241,0
DA:242,0
DA:243,0
DA:244,0
DA:245,0
DA:246,0
DA:247,0
DA:248,0
DA:249,0
DA:250,0
DA:251,0
DA:252,0
DA:253,0
DA:254,0
DA:255,0
DA:256,0
DA:257,0
DA:258,0
DA:259,0
DA:260,0
DA:261,0
DA:262,0
DA:263,0
DA:264,0
DA:265,0
DA:266,0
DA:267,0
DA:268,0
DA:269,0
DA:270,0
DA:271,0
DA:272,0
DA:273,0
DA:274,0
DA:275,0
DA:276,0
DA:277,0
DA:278,0
DA:279,0
DA:280,0
DA:281,0
DA:282,0
DA:283,0
DA:284,0
DA:285,0
DA:286,0
DA:287,0
DA:288,0
DA:289,0
DA:290,0
DA:291,0
DA:292,0
DA:293,0
DA:294,0
DA:295,0
DA:296,0
DA:297,0
DA:298,0
DA:299,0
DA:300,0
DA:301,0
DA:302,0
DA:303,0
DA:304,0
DA:305,0
DA:306,0
DA:307,0
DA:308,0
DA:309,0
DA:310,0
DA:311,0
DA:312,0
BRF:0
BRH:0
LF:484
LH:0
end_of_record
SF:/Users/andrei/git/proposalsapp/apps/discourse/models/categories.rs
FN:3,_RNvXNvXNvNtNtCsfc6mssXcq6n_9discourse6models10categories1__NtB7_16CategoryResponseNtNtCsi2zptu4QhLv_5serde2de11Deserialize11deserializeNtB2_14___FieldVisitorNtB1k_7Visitor9expecting
FN:3,_RINvXNvXNvNtNtCsfc6mssXcq6n_9discourse6models10categories1__NtB8_16CategoryResponseNtNtCsi2zptu4QhLv_5serde2de11Deserialize11deserializeNtB3_14___FieldVisitorNtB1l_7Visitor9visit_u64pEBc_
FN:3,_RINvXNvXNvNtNtCsfc6mssXcq6n_9discourse6models10categories1__NtB8_16CategoryResponseNtNtCsi2zptu4QhLv_5serde2de11Deserialize11deserializeNtB3_14___FieldVisitorNtB1l_7Visitor9visit_strpEBc_
FN:3,_RINvXNvXNvNtNtCsfc6mssXcq6n_9discourse6models10categories1__NtB8_16CategoryResponseNtNtCsi2zptu4QhLv_5serde2de11Deserialize11deserializeNtB3_14___FieldVisitorNtB1l_7Visitor11visit_bytespEBc_
FN:3,_RINvXs_NvXNvNtNtCsfc6mssXcq6n_9discourse6models10categories1__NtBa_16CategoryResponseNtNtCsi2zptu4QhLv_5serde2de11Deserialize11deserializeNtB5_7___FieldB1l_11deserializepEBe_
FN:3,_RNvXs0_NvXNvNtNtCsfc6mssXcq6n_9discourse6models10categories1__NtBa_16CategoryResponseNtNtCsi2zptu4QhLv_5serde2de11Deserialize11deserializeNtB5_9___VisitorNtB1n_7Visitor9expecting
FN:3,_RINvXs0_NvXNvNtNtCsfc6mssXcq6n_9discourse6models10categories1__NtBb_16CategoryResponseNtNtCsi2zptu4QhLv_5serde2de11Deserialize11deserializeNtB6_9___VisitorNtB1o_7Visitor9visit_seqpEBf_
FN:3,_RINvXs0_NvXNvNtNtCsfc6mssXcq6n_9discourse6models10categories1__NtBb_16CategoryResponseNtNtCsi2zptu4QhLv_5serde2de11Deserialize11deserializeNtB6_9___VisitorNtB1o_7Visitor9visit_mappEBf_
FN:8,_RNvXNvXNvNtNtCsfc6mssXcq6n_9discourse6models10categoriess0_1__NtB7_12CategoryListNtNtCsi2zptu4QhLv_5serde2de11Deserialize11deserializeNtB2_14___FieldVisitorNtB1j_7Visitor9expecting
FN:8,_RINvXNvXNvNtNtCsfc6mssXcq6n_9discourse6models10categoriess0_1__NtB8_12CategoryListNtNtCsi2zptu4QhLv_5serde2de11Deserialize11deserializeNtB3_14___FieldVisitorNtB1k_7Visitor9visit_u64pEBc_
FN:8,_RINvXNvXNvNtNtCsfc6mssXcq6n_9discourse6models10categoriess0_1__NtB8_12CategoryListNtNtCsi2zptu4QhLv_5serde2de11Deserialize11deserializeNtB3_14___FieldVisitorNtB1k_7Visitor9visit_strpEBc_
FN:8,_RINvXNvXNvNtNtCsfc6mssXcq6n_9discourse6models10categoriess0_1__NtB8_12CategoryListNtNtCsi2zptu4QhLv_5serde2de11Deserialize11deserializeNtB3_14___FieldVisitorNtB1k_7Visitor11visit_bytespEBc_
FN:8,_RINvXs_NvXNvNtNtCsfc6mssXcq6n_9discourse6models10categoriess0_1__NtBa_12CategoryListNtNtCsi2zptu4QhLv_5serde2de11Deserialize11deserializeNtB5_7___FieldB1k_11deserializepEBe_
FN:8,_RNvXs0_NvXNvNtNtCsfc6mssXcq6n_9discourse6models10categoriess0_1__NtBa_12CategoryListNtNtCsi2zptu4QhLv_5serde2de11Deserialize11deserializeNtB5_9___VisitorNtB1m_7Visitor9expecting
FN:8,_RINvXs0_NvXNvNtNtCsfc6mssXcq6n_9discourse6models10categoriess0_1__NtBb_12CategoryListNtNtCsi2zptu4QhLv_5serde2de11Deserialize11deserializeNtB6_9___VisitorNtB1n_7Visitor9visit_seqpEBf_
FN:8,_RINvXs0_NvXNvNtNtCsfc6mssXcq6n_9discourse6models10categoriess0_1__NtBb_12CategoryListNtNtCsi2zptu4QhLv_5serde2de11Deserialize11deserializeNtB6_9___VisitorNtB1n_7Visitor9visit_mappEBf_
FN:13,_RNvXNvXNvNtNtCsfc6mssXcq6n_9discourse6models10categoriess2_1__NtB7_8CategoryNtNtCsi2zptu4QhLv_5serde2de11Deserialize11deserializeNtB2_14___FieldVisitorNtB1e_7Visitor9expecting
FN:13,_RINvXNvXNvNtNtCsfc6mssXcq6n_9discourse6models10categoriess2_1__NtB8_8CategoryNtNtCsi2zptu4QhLv_5serde2de11Deserialize11deserializeNtB3_14___FieldVisitorNtB1f_7Visitor9visit_u64pEBc_
FN:13,_RINvXNvXNvNtNtCsfc6mssXcq6n_9discourse6models10categoriess2_1__NtB8_8CategoryNtNtCsi2zptu4QhLv_5serde2de11Deserialize11deserializeNtB3_14___FieldVisitorNtB1f_7Visitor9visit_strpEBc_
FN:13,_RINvXNvXNvNtNtCsfc6mssXcq6n_9discourse6models10categoriess2_1__NtB8_8CategoryNtNtCsi2zptu4QhLv_5serde2de11Deserialize11deserializeNtB3_14___FieldVisitorNtB1f_7Visitor11visit_bytespEBc_
FN:13,_RINvXs_NvXNvNtNtCsfc6mssXcq6n_9discourse6models10categoriess2_1__NtBa_8CategoryNtNtCsi2zptu4QhLv_5serde2de11Deserialize11deserializeNtB5_7___FieldB1f_11deserializepEBe_
FN:13,_RNvXs0_NvXNvNtNtCsfc6mssXcq6n_9discourse6models10categoriess2_1__NtBa_8CategoryNtNtCsi2zptu4QhLv_5serde2de11Deserialize11deserializeNtB5_9___VisitorNtB1h_7Visitor9expecting
FN:13,_RINvXs0_NvXNvNtNtCsfc6mssXcq6n_9discourse6models10categoriess2_1__NtBb_8CategoryNtNtCsi2zptu4QhLv_5serde2de11Deserialize11deserializeNtB6_9___VisitorNtB1i_7Visitor9visit_seqpEBf_
FN:13,_RINvXs0_NvXNvNtNtCsfc6mssXcq6n_9discourse6models10categoriess2_1__NtBb_8CategoryNtNtCsi2zptu4QhLv_5serde2de11Deserialize11deserializeNtB6_9___VisitorNtB1i_7Visitor9visit_mappEBf_
FNDA:0,_RNvXNvXNvNtNtCsfc6mssXcq6n_9discourse6models10categories1__NtB7_16CategoryResponseNtNtCsi2zptu4QhLv_5serde2de11Deserialize11deserializeNtB2_14___FieldVisitorNtB1k_7Visitor9expecting
FNDA:0,_RINvXNvXNvNtNtCsfc6mssXcq6n_9discourse6models10categories1__NtB8_16CategoryResponseNtNtCsi2zptu4QhLv_5serde2de11Deserialize11deserializeNtB3_14___FieldVisitorNtB1l_7Visitor9visit_u64pEBc_
FNDA:0,_RINvXNvXNvNtNtCsfc6mssXcq6n_9discourse6models10categories1__NtB8_16CategoryResponseNtNtCsi2zptu4QhLv_5serde2de11Deserialize11deserializeNtB3_14___FieldVisitorNtB1l_7Visitor9visit_strpEBc_
FNDA:0,_RINvXNvXNvNtNtCsfc6mssXcq6n_9discourse6models10categories1__NtB8_16CategoryResponseNtNtCsi2zptu4QhLv_5serde2de11Deserialize11deserializeNtB3_14___FieldVisitorNtB1l_7Visitor11visit_bytespEBc_
FNDA:0,_RINvXs_NvXNvNtNtCsfc6mssXcq6n_9discourse6models10categories1__NtBa_16CategoryResponseNtNtCsi2zptu4QhLv_5serde2de11Deserialize11deserializeNtB5_7___FieldB1l_11deserializepEBe_
FNDA:0,_RNvXs0_NvXNvNtNtCsfc6mssXcq6n_9discourse6models10categories1__NtBa_16CategoryResponseNtNtCsi2zptu4QhLv_5serde2de11Deserialize11deserializeNtB5_9___VisitorNtB1n_7Visitor9expecting
FNDA:0,_RINvXs0_NvXNvNtNtCsfc6mssXcq6n_9discourse6models10categories1__NtBb_16CategoryResponseNtNtCsi2zptu4QhLv_5serde2de11Deserialize11deserializeNtB6_9___VisitorNtB1o_7Visitor9visit_seqpEBf_
FNDA:0,_RINvXs0_NvXNvNtNtCsfc6mssXcq6n_9discourse6models10categories1__NtBb_16CategoryResponseNtNtCsi2zptu4QhLv_5serde2de11Deserialize11deserializeNtB6_9___VisitorNtB1o_7Visitor9visit_mappEBf_
FNDA:0,_RNvXNvXNvNtNtCsfc6mssXcq6n_9discourse6models10categoriess0_1__NtB7_12CategoryListNtNtCsi2zptu4QhLv_5serde2de11Deserialize11deserializeNtB2_14___FieldVisitorNtB1j_7Visitor9expecting
FNDA:0,_RINvXNvXNvNtNtCsfc6mssXcq6n_9discourse6models10categoriess0_1__NtB8_12CategoryListNtNtCsi2zptu4QhLv_5serde2de11Deserialize11deserializeNtB3_14___FieldVisitorNtB1k_7Visitor9visit_u64pEBc_
FNDA:0,_RINvXNvXNvNtNtCsfc6mssXcq6n_9discourse6models10categoriess0_1__NtB8_12CategoryListNtNtCsi2zptu4QhLv_5serde2de11Deserialize11deserializeNtB3_14___FieldVisitorNtB1k_7Visitor9visit_strpEBc_
FNDA:0,_RINvXNvXNvNtNtCsfc6mssXcq6n_9discourse6models10categoriess0_1__NtB8_12CategoryListNtNtCsi2zptu4QhLv_5serde2de11Deserialize11deserializeNtB3_14___FieldVisitorNtB1k_7Visitor11visit_bytespEBc_
FNDA:0,_RINvXs_NvXNvNtNtCsfc6mssXcq6n_9discourse6models10categoriess0_1__NtBa_12CategoryListNtNtCsi2zptu4QhLv_5serde2de11Deserialize11deserializeNtB5_7___FieldB1k_11deserializepEBe_
FNDA:0,_RNvXs0_NvXNvNtNtCsfc6mssXcq6n_9discourse6models10categoriess0_1__NtBa_12CategoryListNtNtCsi2zptu4QhLv_5serde2de11Deserialize11deserializeNtB5_9___VisitorNtB1m_7Visitor9expecting
FNDA:0,_RINvXs0_NvXNvNtNtCsfc6mssXcq6n_9discourse6models10categoriess0_1__NtBb_12CategoryListNtNtCsi2zptu4QhLv_5serde2de11Deserialize11deserializeNtB6_9___VisitorNtB1n_7Visitor9visit_seqpEBf_
FNDA:0,_RINvXs0_NvXNvNtNtCsfc6mssXcq6n_9discourse6models10categoriess0_1__NtBb_12CategoryListNtNtCsi2zptu4QhLv_5serde2de11Deserialize11deserializeNtB6_9___VisitorNtB1n_7Visitor9visit_mappEBf_
FNDA:0,_RNvXNvXNvNtNtCsfc6mssXcq6n_9discourse6models10categoriess2_1__NtB7_8CategoryNtNtCsi2zptu4QhLv_5serde2de11Deserialize11deserializeNtB2_14___FieldVisitorNtB1e_7Visitor9expecting
FNDA:0,_RINvXNvXNvNtNtCsfc6mssXcq6n_9discourse6models10categoriess2_1__NtB8_8CategoryNtNtCsi2zptu4QhLv_5serde2de11Deserialize11deserializeNtB3_14___FieldVisitorNtB1f_7Visitor9visit_u64pEBc_
FNDA:0,_RINvXNvXNvNtNtCsfc6mssXcq6n_9discourse6models10categoriess2_1__NtB8_8CategoryNtNtCsi2zptu4QhLv_5serde2de11Deserialize11deserializeNtB3_14___FieldVisitorNtB1f_7Visitor9visit_strpEBc_
FNDA:0,_RINvXNvXNvNtNtCsfc6mssXcq6n_9discourse6models10categoriess2_1__NtB8_8CategoryNtNtCsi2zptu4QhLv_5serde2de11Deserialize11deserializeNtB3_14___FieldVisitorNtB1f_7Visitor11visit_bytespEBc_
FNDA:0,_RINvXs_NvXNvNtNtCsfc6mssXcq6n_9discourse6models10categoriess2_1__NtBa_8CategoryNtNtCsi2zptu4QhLv_5serde2de11Deserialize11deserializeNtB5_7___FieldB1f_11deserializepEBe_
FNDA:0,_RNvXs0_NvXNvNtNtCsfc6mssXcq6n_9discourse6models10categoriess2_1__NtBa_8CategoryNtNtCsi2zptu4QhLv_5serde2de11Deserialize11deserializeNtB5_9___VisitorNtB1h_7Visitor9expecting
FNDA:0,_RINvXs0_NvXNvNtNtCsfc6mssXcq6n_9discourse6models10categoriess2_1__NtBb_8CategoryNtNtCsi2zptu4QhLv_5serde2de11Deserialize11deserializeNtB6_9___VisitorNtB1i_7Visitor9visit_seqpEBf_
FNDA:0,_RINvXs0_NvXNvNtNtCsfc6mssXcq6n_9discourse6models10categoriess2_1__NtBb_8CategoryNtNtCsi2zptu4QhLv_5serde2de11Deserialize11deserializeNtB6_9___VisitorNtB1i_7Visitor9visit_mappEBf_
FNF:3
FNH:0
DA:3,0
DA:8,0
DA:13,0
BRF:0
BRH:0
LF:3
LH:0
end_of_record
SF:/Users/andrei/git/proposalsapp/apps/discourse/models/posts.rs
FN:4,_RNvXNvXNvNtNtCsfc6mssXcq6n_9discourse6models5posts1__NtB7_4PostNtNtCsi2zptu4QhLv_5serde2de11Deserialize11deserializeNtB2_14___FieldVisitorNtB11_7Visitor9expecting
FN:4,_RINvXNvXNvNtNtCsfc6mssXcq6n_9discourse6models5posts1__NtB8_4PostNtNtCsi2zptu4QhLv_5serde2de11Deserialize11deserializeNtB3_14___FieldVisitorNtB12_7Visitor9visit_u64pEBc_
FN:4,_RINvXNvXNvNtNtCsfc6mssXcq6n_9discourse6models5posts1__NtB8_4PostNtNtCsi2zptu4QhLv_5serde2de11Deserialize11deserializeNtB3_14___FieldVisitorNtB12_7Visitor9visit_strpEBc_
FN:4,_RINvXNvXNvNtNtCsfc6mssXcq6n_9discourse6models5posts1__NtB8_4PostNtNtCsi2zptu4QhLv_5serde2de11Deserialize11deserializeNtB3_14___FieldVisitorNtB12_7Visitor11visit_bytespEBc_
FN:4,_RINvXs_NvXNvNtNtCsfc6mssXcq6n_9discourse6models5posts1__NtBa_4PostNtNtCsi2zptu4QhLv_5serde2de11Deserialize11deserializeNtB5_7___FieldB12_11deserializepEBe_
FN:4,_RNvXs0_NvXNvNtNtCsfc6mssXcq6n_9discourse6models5posts1__NtBa_4PostNtNtCsi2zptu4QhLv_5serde2de11Deserialize11deserializeNtB5_9___VisitorNtB14_7Visitor9expecting
FN:4,_RINvXs0_NvXNvNtNtCsfc6mssXcq6n_9discourse6models5posts1__NtBb_4PostNtNtCsi2zptu4QhLv_5serde2de11Deserialize11deserializeNtB6_9___VisitorNtB15_7Visitor9visit_seqpEBf_
FN:4,_RINvXNvXs0_NvXNvNtNtCsfc6mssXcq6n_9discourse6models5posts1__NtBe_4PostNtNtCsi2zptu4QhLv_5serde2de11Deserialize11deserializeNtB9_9___VisitorNtB18_7Visitor9visit_seqNtB3_17___DeserializeWithB16_11deserializepEBi_
FN:4,_RNCINvXs0_NvXNvNtNtCsfc6mssXcq6n_9discourse6models5posts1__NtBd_4PostNtNtCsi2zptu4QhLv_5serde2de11Deserialize11deserializeNtB8_9___VisitorNtB17_7Visitor9visit_seqpE0Bh_
FN:4,_RINvXs_NvXs0_NvXNvNtNtCsfc6mssXcq6n_9discourse6models5posts1__NtBg_4PostNtNtCsi2zptu4QhLv_5serde2de11Deserialize11deserializeNtBb_9___VisitorNtB1a_7Visitor9visit_seqNtB5_s_17___DeserializeWithB18_11deserializepEBk_
FN:4,_RNCINvXs0_NvXNvNtNtCsfc6mssXcq6n_9discourse6models5posts1__NtBd_4PostNtNtCsi2zptu4QhLv_5serde2de11Deserialize11deserializeNtB8_9___VisitorNtB17_7Visitor9visit_seqpEs_0Bh_
FN:4,_RINvXs0_NvXNvNtNtCsfc6mssXcq6n_9discourse6models5posts1__NtBb_4PostNtNtCsi2zptu4QhLv_5serde2de11Deserialize11deserializeNtB6_9___VisitorNtB15_7Visitor9visit_mappEBf_
FN:4,_RINvXNvXs0_NvXNvNtNtCsfc6mssXcq6n_9discourse6models5posts1__NtBe_4PostNtNtCsi2zptu4QhLv_5serde2de11Deserialize11deserializeNtB9_9___VisitorNtB18_7Visitor9visit_mapNtB3_17___DeserializeWithB16_11deserializepEBi_
FN:4,_RINvXs_NvXs0_NvXNvNtNtCsfc6mssXcq6n_9discourse6models5posts1__NtBg_4PostNtNtCsi2zptu4QhLv_5serde2de11Deserialize11deserializeNtBb_9___VisitorNtB1a_7Visitor9visit_mapNtB5_s_17___DeserializeWithB18_11deserializepEBk_
FN:4,_RINvXNvXNvNtNtCsfc6mssXcq6n_9discourse6models5postss_1__NtB8_4PostNtNtCsi2zptu4QhLv_5serde3ser9Serialize9serializeNtB3_15___SerializeWithB12_9serializepEBc_
FN:4,_RINvXs_NvXNvNtNtCsfc6mssXcq6n_9discourse6models5postss_1__NtBa_4PostNtNtCsi2zptu4QhLv_5serde3ser9Serialize9serializeNtB5_s_15___SerializeWithB14_9serializepEBe_
FN:36,_RNvXNvXNvNtNtCsfc6mssXcq6n_9discourse6models5postss0_1__NtB7_12PostResponseNtNtCsi2zptu4QhLv_5serde2de11Deserialize11deserializeNtB2_14___FieldVisitorNtB1d_7Visitor9expecting
FN:36,_RINvXNvXNvNtNtCsfc6mssXcq6n_9discourse6models5postss0_1__NtB8_12PostResponseNtNtCsi2zptu4QhLv_5serde2de11Deserialize11deserializeNtB3_14___FieldVisitorNtB1e_7Visitor9visit_u64pEBc_
FN:36,_RINvXNvXNvNtNtCsfc6mssXcq6n_9discourse6models5postss0_1__NtB8_12PostResponseNtNtCsi2zptu4QhLv_5serde2de11Deserialize11deserializeNtB3_14___FieldVisitorNtB1e_7Visitor9visit_strpEBc_
FN:36,_RINvXNvXNvNtNtCsfc6mssXcq6n_9discourse6models5postss0_1__NtB8_12PostResponseNtNtCsi2zptu4QhLv_5serde2de11Deserialize11deserializeNtB3_14___FieldVisitorNtB1e_7Visitor11visit_bytespEBc_
FN:36,_RINvXs_NvXNvNtNtCsfc6mssXcq6n_9discourse6models5postss0_1__NtBa_12PostResponseNtNtCsi2zptu4QhLv_5serde2de11Deserialize11deserializeNtB5_7___FieldB1e_11deserializepEBe_
FN:36,_RNvXs0_NvXNvNtNtCsfc6mssXcq6n_9discourse6models5postss0_1__NtBa_12PostResponseNtNtCsi2zptu4QhLv_5serde2de11Deserialize11deserializeNtB5_9___VisitorNtB1g_7Visitor9expecting
FN:36,_RINvXs0_NvXNvNtNtCsfc6mssXcq6n_9discourse6models5postss0_1__NtBb_12PostResponseNtNtCsi2zptu4QhLv_5serde2de11Deserialize11deserializeNtB6_9___VisitorNtB1h_7Visitor9visit_seqpEBf_
FN:36,_RINvXs0_NvXNvNtNtCsfc6mssXcq6n_9discourse6models5postss0_1__NtBb_12PostResponseNtNtCsi2zptu4QhLv_5serde2de11Deserialize11deserializeNtB6_9___VisitorNtB1h_7Visitor9visit_mappEBf_
FN:42,_RNvXNvXNvNtNtCsfc6mssXcq6n_9discourse6models5postss2_1__NtB7_10PostStreamNtNtCsi2zptu4QhLv_5serde2de11Deserialize11deserializeNtB2_14___FieldVisitorNtB1b_7Visitor9expecting
FN:42,_RINvXNvXNvNtNtCsfc6mssXcq6n_9discourse6models5postss2_1__NtB8_10PostStreamNtNtCsi2zptu4QhLv_5serde2de11Deserialize11deserializeNtB3_14___FieldVisitorNtB1c_7Visitor9visit_u64pEBc_
FN:42,_RINvXNvXNvNtNtCsfc6mssXcq6n_9discourse6models5postss2_1__NtB8_10PostStreamNtNtCsi2zptu4QhLv_5serde2de11Deserialize11deserializeNtB3_14___FieldVisitorNtB1c_7Visitor9visit_strpEBc_
FN:42,_RINvXNvXNvNtNtCsfc6mssXcq6n_9discourse6models5postss2_1__NtB8_10PostStreamNtNtCsi2zptu4QhLv_5serde2de11Deserialize11deserializeNtB3_14___FieldVisitorNtB1c_7Visitor11visit_bytespEBc_
FN:42,_RINvXs_NvXNvNtNtCsfc6mssXcq6n_9discourse6models5postss2_1__NtBa_10PostStreamNtNtCsi2zptu4QhLv_5serde2de11Deserialize11deserializeNtB5_7___FieldB1c_11deserializepEBe_
FN:42,_RNvXs0_NvXNvNtNtCsfc6mssXcq6n_9discourse6models5postss2_1__NtBa_10PostStreamNtNtCsi2zptu4QhLv_5serde2de11Deserialize11deserializeNtB5_9___VisitorNtB1e_7Visitor9expecting
FN:42,_RINvXs0_NvXNvNtNtCsfc6mssXcq6n_9discourse6models5postss2_1__NtBb_10PostStreamNtNtCsi2zptu4QhLv_5serde2de11Deserialize11deserializeNtB6_9___VisitorNtB1f_7Visitor9visit_seqpEBf_
FN:42,_RINvXs0_NvXNvNtNtCsfc6mssXcq6n_9discourse6models5postss2_1__NtBb_10PostStreamNtNtCsi2zptu4QhLv_5serde2de11Deserialize11deserializeNtB6_9___VisitorNtB1f_7Visitor9visit_mappEBf_
FN:51,_RINvNtNtNtCsfc6mssXcq6n_9discourse6models5posts11date_format9serializepEB8_
FN:58,_RINvNtNtNtCsfc6mssXcq6n_9discourse6models5posts11date_format11deserializepEB8_
FN:64,_RNCINvNtNtNtCsfc6mssXcq6n_9discourse6models5posts11date_format11deserializepE0Ba_
FNDA:0,_RNvXNvXNvNtNtCsfc6mssXcq6n_9discourse6models5posts1__NtB7_4PostNtNtCsi2zptu4QhLv_5serde2de11Deserialize11deserializeNtB2_14___FieldVisitorNtB11_7Visitor9expecting
FNDA:0,_RINvXNvXNvNtNtCsfc6mssXcq6n_9discourse6models5posts1__NtB8_4PostNtNtCsi2zptu4QhLv_5serde2de11Deserialize11deserializeNtB3_14___FieldVisitorNtB12_7Visitor9visit_u64pEBc_
FNDA:0,_RINvXNvXNvNtNtCsfc6mssXcq6n_9discourse6models5posts1__NtB8_4PostNtNtCsi2zptu4QhLv_5serde2de11Deserialize11deserializeNtB3_14___FieldVisitorNtB12_7Visitor9visit_strpEBc_
FNDA:0,_RINvXNvXNvNtNtCsfc6mssXcq6n_9discourse6models5posts1__NtB8_4PostNtNtCsi2zptu4QhLv_5serde2de11Deserialize11deserializeNtB3_14___FieldVisitorNtB12_7Visitor11visit_bytespEBc_
FNDA:0,_RINvXs_NvXNvNtNtCsfc6mssXcq6n_9discourse6models5posts1__NtBa_4PostNtNtCsi2zptu4QhLv_5serde2de11Deserialize11deserializeNtB5_7___FieldB12_11deserializepEBe_
FNDA:0,_RNvXs0_NvXNvNtNtCsfc6mssXcq6n_9discourse6models5posts1__NtBa_4PostNtNtCsi2zptu4QhLv_5serde2de11Deserialize11deserializeNtB5_9___VisitorNtB14_7Visitor9expecting
FNDA:0,_RINvXs0_NvXNvNtNtCsfc6mssXcq6n_9discourse6models5posts1__NtBb_4PostNtNtCsi2zptu4QhLv_5serde2de11Deserialize11deserializeNtB6_9___VisitorNtB15_7Visitor9visit_seqpEBf_
FNDA:0,_RINvXNvXs0_NvXNvNtNtCsfc6mssXcq6n_9discourse6models5posts1__NtBe_4PostNtNtCsi2zptu4QhLv_5serde2de11Deserialize11deserializeNtB9_9___VisitorNtB18_7Visitor9visit_seqNtB3_17___DeserializeWithB16_11deserializepEBi_
FNDA:0,_RNCINvXs0_NvXNvNtNtCsfc6mssXcq6n_9discourse6models5posts1__NtBd_4PostNtNtCsi2zptu4QhLv_5serde2de11Deserialize11deserializeNtB8_9___VisitorNtB17_7Visitor9visit_seqpE0Bh_
FNDA:0,_RINvXs_NvXs0_NvXNvNtNtCsfc6mssXcq6n_9discourse6models5posts1__NtBg_4PostNtNtCsi2zptu4QhLv_5serde2de11Deserialize11deserializeNtBb_9___VisitorNtB1a_7Visitor9visit_seqNtB5_s_17___DeserializeWithB18_11deserializepEBk_
FNDA:0,_RNCINvXs0_NvXNvNtNtCsfc6mssXcq6n_9discourse6models5posts1__NtBd_4PostNtNtCsi2zptu4QhLv_5serde2de11Deserialize11deserializeNtB8_9___VisitorNtB17_7Visitor9visit_seqpEs_0Bh_
FNDA:0,_RINvXs0_NvXNvNtNtCsfc6mssXcq6n_9discourse6models5posts1__NtBb_4PostNtNtCsi2zptu4QhLv_5serde2de11Deserialize11deserializeNtB6_9___VisitorNtB15_7Visitor9visit_mappEBf_
FNDA:0,_RINvXNvXs0_NvXNvNtNtCsfc6mssXcq6n_9discourse6models5posts1__NtBe_4PostNtNtCsi2zptu4QhLv_5serde2de11Deserialize11deserializeNtB9_9___VisitorNtB18_7Visitor9visit_mapNtB3_17___DeserializeWithB16_11deserializepEBi_
FNDA:0,_RINvXs_NvXs0_NvXNvNtNtCsfc6mssXcq6n_9discourse6models5posts1__NtBg_4PostNtNtCsi2zptu4QhLv_5serde2de11Deserialize11deserializeNtBb_9___VisitorNtB1a_7Visitor9visit_mapNtB5_s_17___DeserializeWithB18_11deserializepEBk_
FNDA:0,_RINvXNvXNvNtNtCsfc6mssXcq6n_9discourse6models5postss_1__NtB8_4PostNtNtCsi2zptu4QhLv_5serde3ser9Serialize9serializeNtB3_15___SerializeWithB12_9serializepEBc_
FNDA:0,_RINvXs_NvXNvNtNtCsfc6mssXcq6n_9discourse6models5postss_1__NtBa_4PostNtNtCsi2zptu4QhLv_5serde3ser9Serialize9serializeNtB5_s_15___SerializeWithB14_9serializepEBe_
FNDA:0,_RNvXNvXNvNtNtCsfc6mssXcq6n_9discourse6models5postss0_1__NtB7_12PostResponseNtNtCsi2zptu4QhLv_5serde2de11Deserialize11deserializeNtB2_14___FieldVisitorNtB1d_7Visitor9expecting
FNDA:0,_RINvXNvXNvNtNtCsfc6mssXcq6n_9discourse6models5postss0_1__NtB8_12PostResponseNtNtCsi2zptu4QhLv_5serde2de11Deserialize11deserializeNtB3_14___FieldVisitorNtB1e_7Visitor9visit_u64pEBc_
FNDA:0,_RINvXNvXNvNtNtCsfc6mssXcq6n_9discourse6models5postss0_1__NtB8_12PostResponseNtNtCsi2zptu4QhLv_5serde2de11Deserialize11deserializeNtB3_14___FieldVisitorNtB1e_7Visitor9visit_strpEBc_
FNDA:0,_RINvXNvXNvNtNtCsfc6mssXcq6n_9discourse6models5postss0_1__NtB8_12PostResponseNtNtCsi2zptu4QhLv_5serde2de11Deserialize11deserializeNtB3_14___FieldVisitorNtB1e_7Visitor11visit_bytespEBc_
FNDA:0,_RINvXs_NvXNvNtNtCsfc6mssXcq6n_9discourse6models5postss0_1__NtBa_12PostResponseNtNtCsi2zptu4QhLv_5serde2de11Deserialize11deserializeNtB5_7___FieldB1e_11deserializepEBe_
FNDA:0,_RNvXs0_NvXNvNtNtCsfc6mssXcq6n_9discourse6models5postss0_1__NtBa_12PostResponseNtNtCsi2zptu4QhLv_5serde2de11Deserialize11deserializeNtB5_9___VisitorNtB1g_7Visitor9expecting
FNDA:0,_RINvXs0_NvXNvNtNtCsfc6mssXcq6n_9discourse6models5postss0_1__NtBb_12PostResponseNtNtCsi2zptu4QhLv_5serde2de11Deserialize11deserializeNtB6_9___VisitorNtB1h_7Visitor9visit_seqpEBf_
FNDA:0,_RINvXs0_NvXNvNtNtCsfc6mssXcq6n_9discourse6models5postss0_1__NtBb_12PostResponseNtNtCsi2zptu4QhLv_5serde2de11Deserialize11deserializeNtB6_9___VisitorNtB1h_7Visitor9visit_mappEBf_
FNDA:0,_RNvXNvXNvNtNtCsfc6mssXcq6n_9discourse6models5postss2_1__NtB7_10PostStreamNtNtCsi2zptu4QhLv_5serde2de11Deserialize11deserializeNtB2_14___FieldVisitorNtB1b_7Visitor9expecting
FNDA:0,_RINvXNvXNvNtNtCsfc6mssXcq6n_9discourse6models5postss2_1__NtB8_10PostStreamNtNtCsi2zptu4QhLv_5serde2de11Deserialize11deserializeNtB3_14___FieldVisitorNtB1c_7Visitor9visit_u64pEBc_
FNDA:0,_RINvXNvXNvNtNtCsfc6mssXcq6n_9discourse6models5postss2_1__NtB8_10PostStreamNtNtCsi2zptu4QhLv_5serde2de11Deserialize11deserializeNtB3_14___FieldVisitorNtB1c_7Visitor9visit_strpEBc_
FNDA:0,_RINvXNvXNvNtNtCsfc6mssXcq6n_9discourse6models5postss2_1__NtB8_10PostStreamNtNtCsi2zptu4QhLv_5serde2de11Deserialize11deserializeNtB3_14___FieldVisitorNtB1c_7Visitor11visit_bytespEBc_
FNDA:0,_RINvXs_NvXNvNtNtCsfc6mssXcq6n_9discourse6models5postss2_1__NtBa_10PostStreamNtNtCsi2zptu4QhLv_5serde2de11Deserialize11deserializeNtB5_7___FieldB1c_11deserializepEBe_
FNDA:0,_RNvXs0_NvXNvNtNtCsfc6mssXcq6n_9discourse6models5postss2_1__NtBa_10PostStreamNtNtCsi2zptu4QhLv_5serde2de11Deserialize11deserializeNtB5_9___VisitorNtB1e_7Visitor9expecting
FNDA:0,_RINvXs0_NvXNvNtNtCsfc6mssXcq6n_9discourse6models5postss2_1__NtBb_10PostStreamNtNtCsi2zptu4QhLv_5serde2de11Deserialize11deserializeNtB6_9___VisitorNtB1f_7Visitor9visit_seqpEBf_
FNDA:0,_RINvXs0_NvXNvNtNtCsfc6mssXcq6n_9discourse6models5postss2_1__NtBb_10PostStreamNtNtCsi2zptu4QhLv_5serde2de11Deserialize11deserializeNtB6_9___VisitorNtB1f_7Visitor9visit_mappEBf_
FNDA:0,_RINvNtNtNtCsfc6mssXcq6n_9discourse6models5posts11date_format9serializepEB8_
FNDA:0,_RINvNtNtNtCsfc6mssXcq6n_9discourse6models5posts11date_format11deserializepEB8_
FNDA:0,_RNCINvNtNtNtCsfc6mssXcq6n_9discourse6models5posts11date_format11deserializepE0Ba_
FNF:8
FNH:0
DA:4,0
DA:36,0
DA:42,0
DA:51,0
DA:52,0
DA:53,0
DA:54,0
DA:55,0
DA:56,0
DA:58,0
DA:59,0
DA:60,0
DA:61,0
DA:62,0
DA:63,0
DA:64,0
DA:65,0
DA:66,0
BRF:0
BRH:0
LF:21
LH:0
end_of_record
SF:/Users/andrei/git/proposalsapp/apps/discourse/models/topics.rs
FN:4,_RNvXNvXNvNtNtCsfc6mssXcq6n_9discourse6models6topics1__NtB7_13TopicResponseNtNtCsi2zptu4QhLv_5serde2de11Deserialize11deserializeNtB2_14___FieldVisitorNtB1c_7Visitor9expecting
FN:4,_RINvXNvXNvNtNtCsfc6mssXcq6n_9discourse6models6topics1__NtB8_13TopicResponseNtNtCsi2zptu4QhLv_5serde2de11Deserialize11deserializeNtB3_14___FieldVisitorNtB1d_7Visitor9visit_u64pEBc_
FN:4,_RINvXNvXNvNtNtCsfc6mssXcq6n_9discourse6models6topics1__NtB8_13TopicResponseNtNtCsi2zptu4QhLv_5serde2de11Deserialize11deserializeNtB3_14___FieldVisitorNtB1d_7Visitor9visit_strpEBc_
FN:4,_RINvXNvXNvNtNtCsfc6mssXcq6n_9discourse6models6topics1__NtB8_13TopicResponseNtNtCsi2zptu4QhLv_5serde2de11Deserialize11deserializeNtB3_14___FieldVisitorNtB1d_7Visitor11visit_bytespEBc_
FN:4,_RINvXs_NvXNvNtNtCsfc6mssXcq6n_9discourse6models6topics1__NtBa_13TopicResponseNtNtCsi2zptu4QhLv_5serde2de11Deserialize11deserializeNtB5_7___FieldB1d_11deserializepEBe_
FN:4,_RNvXs0_NvXNvNtNtCsfc6mssXcq6n_9discourse6models6topics1__NtBa_13TopicResponseNtNtCsi2zptu4QhLv_5serde2de11Deserialize11deserializeNtB5_9___VisitorNtB1f_7Visitor9expecting
FN:4,_RINvXs0_NvXNvNtNtCsfc6mssXcq6n_9discourse6models6topics1__NtBb_13TopicResponseNtNtCsi2zptu4QhLv_5serde2de11Deserialize11deserializeNtB6_9___VisitorNtB1g_7Visitor9visit_seqpEBf_
FN:4,_RINvXs0_NvXNvNtNtCsfc6mssXcq6n_9discourse6models6topics1__NtBb_13TopicResponseNtNtCsi2zptu4QhLv_5serde2de11Deserialize11deserializeNtB6_9___VisitorNtB1g_7Visitor9visit_mappEBf_
FN:9,_RNvXNvXNvNtNtCsfc6mssXcq6n_9discourse6models6topicss0_1__NtB7_9TopicListNtNtCsi2zptu4QhLv_5serde2de11Deserialize11deserializeNtB2_14___FieldVisitorNtB1a_7Visitor9expecting
FN:9,_RINvXNvXNvNtNtCsfc6mssXcq6n_9discourse6models6topicss0_1__NtB8_9TopicListNtNtCsi2zptu4QhLv_5serde2de11Deserialize11deserializeNtB3_14___FieldVisitorNtB1b_7Visitor9visit_u64pEBc_
FN:9,_RINvXNvXNvNtNtCsfc6mssXcq6n_9discourse6models6topicss0_1__NtB8_9TopicListNtNtCsi2zptu4QhLv_5serde2de11Deserialize11deserializeNtB3_14___FieldVisitorNtB1b_7Visitor9visit_strpEBc_
FN:9,_RINvXNvXNvNtNtCsfc6mssXcq6n_9discourse6models6topicss0_1__NtB8_9TopicListNtNtCsi2zptu4QhLv_5serde2de11Deserialize11deserializeNtB3_14___FieldVisitorNtB1b_7Visitor11visit_bytespEBc_
FN:9,_RINvXs_NvXNvNtNtCsfc6mssXcq6n_9discourse6models6topicss0_1__NtBa_9TopicListNtNtCsi2zptu4QhLv_5serde2de11Deserialize11deserializeNtB5_7___FieldB1b_11deserializepEBe_
FN:9,_RNvXs0_NvXNvNtNtCsfc6mssXcq6n_9discourse6models6topicss0_1__NtBa_9TopicListNtNtCsi2zptu4QhLv_5serde2de11Deserialize11deserializeNtB5_9___VisitorNtB1d_7Visitor9expecting
FN:9,_RINvXs0_NvXNvNtNtCsfc6mssXcq6n_9discourse6models6topicss0_1__NtBb_9TopicListNtNtCsi2zptu4QhLv_5serde2de11Deserialize11deserializeNtB6_9___VisitorNtB1e_7Visitor9visit_seqpEBf_
FN:9,_RINvXs0_NvXNvNtNtCsfc6mssXcq6n_9discourse6models6topicss0_1__NtBb_9TopicListNtNtCsi2zptu4QhLv_5serde2de11Deserialize11deserializeNtB6_9___VisitorNtB1e_7Visitor9visit_mappEBf_
FN:14,_RNvXNvXNvNtNtCsfc6mssXcq6n_9discourse6models6topicss2_1__NtB7_5TopicNtNtCsi2zptu4QhLv_5serde2de11Deserialize11deserializeNtB2_14___FieldVisitorNtB16_7Visitor9expecting
FN:14,_RINvXNvXNvNtNtCsfc6mssXcq6n_9discourse6models6topicss2_1__NtB8_5TopicNtNtCsi2zptu4QhLv_5serde2de11Deserialize11deserializeNtB3_14___FieldVisitorNtB17_7Visitor9visit_u64pEBc_
FN:14,_RINvXNvXNvNtNtCsfc6mssXcq6n_9discourse6models6topicss2_1__NtB8_5TopicNtNtCsi2zptu4QhLv_5serde2de11Deserialize11deserializeNtB3_14___FieldVisitorNtB17_7Visitor9visit_strpEBc_
FN:14,_RINvXNvXNvNtNtCsfc6mssXcq6n_9discourse6models6topicss2_1__NtB8_5TopicNtNtCsi2zptu4QhLv_5serde2de11Deserialize11deserializeNtB3_14___FieldVisitorNtB17_7Visitor11visit_bytespEBc_
FN:14,_RINvXs_NvXNvNtNtCsfc6mssXcq6n_9discourse6models6topicss2_1__NtBa_5TopicNtNtCsi2zptu4QhLv_5serde2de11Deserialize11deserializeNtB5_7___FieldB17_11deserializepEBe_
FN:14,_RNvXs0_NvXNvNtNtCsfc6mssXcq6n_9discourse6models6topicss2_1__NtBa_5TopicNtNtCsi2zptu4QhLv_5serde2de11Deserialize11deserializeNtB5_9___VisitorNtB19_7Visitor9expecting
FN:14,_RINvXs0_NvXNvNtNtCsfc6mssXcq6n_9discourse6models6topicss2_1__NtBb_5TopicNtNtCsi2zptu4QhLv_5serde2de11Deserialize11deserializeNtB6_9___VisitorNtB1a_7Visitor9visit_seqpEBf_
FN:14,_RINvXNvXs0_NvXNvNtNtCsfc6mssXcq6n_9discourse6models6topicss2_1__NtBe_5TopicNtNtCsi2zptu4QhLv_5serde2de11Deserialize11deserializeNtB9_9___VisitorNtB1d_7Visitor9visit_seqNtB3_17___DeserializeWithB1b_11deserializepEBi_
FN:14,_RNCINvXs0_NvXNvNtNtCsfc6mssXcq6n_9discourse6models6topicss2_1__NtBd_5TopicNtNtCsi2zptu4QhLv_5serde2de11Deserialize11deserializeNtB8_9___VisitorNtB1c_7Visitor9visit_seqpE0Bh_
FN:14,_RINvXs_NvXs0_NvXNvNtNtCsfc6mssXcq6n_9discourse6models6topicss2_1__NtBg_5TopicNtNtCsi2zptu4QhLv_5serde2de11Deserialize11deserializeNtBb_9___VisitorNtB1f_7Visitor9visit_seqNtB5_s_17___DeserializeWithB1d_11deserializepEBk_
FN:14,_RNCINvXs0_NvXNvNtNtCsfc6mssXcq6n_9discourse6models6topicss2_1__NtBd_5TopicNtNtCsi2zptu4QhLv_5serde2de11Deserialize11deserializeNtB8_9___VisitorNtB1c_7Visitor9visit_seqpEs_0Bh_
FN:14,_RINvXs0_NvXs0_NvXNvNtNtCsfc6mssXcq6n_9discourse6models6topicss2_1__NtBh_5TopicNtNtCsi2zptu4QhLv_5serde2de11Deserialize11deserializeNtBc_9___VisitorNtB1g_7Visitor9visit_seqNtB6_s0_17___DeserializeWithB1e_11deserializepEBl_
FN:14,_RNCINvXs0_NvXNvNtNtCsfc6mssXcq6n_9discourse6models6topicss2_1__NtBd_5TopicNtNtCsi2zptu4QhLv_5serde2de11Deserialize11deserializeNtB8_9___VisitorNtB1c_7Visitor9visit_seqpEs0_0Bh_
FN:14,_RINvXs0_NvXNvNtNtCsfc6mssXcq6n_9discourse6models6topicss2_1__NtBb_5TopicNtNtCsi2zptu4QhLv_5serde2de11Deserialize11deserializeNtB6_9___VisitorNtB1a_7Visitor9visit_mappEBf_
FN:14,_RINvXNvXs0_NvXNvNtNtCsfc6mssXcq6n_9discourse6models6topicss2_1__NtBe_5TopicNtNtCsi2zptu4QhLv_5serde2de11Deserialize11deserializeNtB9_9___VisitorNtB1d_7Visitor9visit_mapNtB3_17___DeserializeWithB1b_11deserializepEBi_
FN:14,_RINvXs_NvXs0_NvXNvNtNtCsfc6mssXcq6n_9discourse6models6topicss2_1__NtBg_5TopicNtNtCsi2zptu4QhLv_5serde2de11Deserialize11deserializeNtBb_9___VisitorNtB1f_7Visitor9visit_mapNtB5_s_17___DeserializeWithB1d_11deserializepEBk_
FN:14,_RINvXs0_NvXs0_NvXNvNtNtCsfc6mssXcq6n_9discourse6models6topicss2_1__NtBh_5TopicNtNtCsi2zptu4QhLv_5serde2de11Deserialize11deserializeNtBc_9___VisitorNtB1g_7Visitor9visit_mapNtB6_s0_17___DeserializeWithB1e_11deserializepEBl_
FN:14,_RINvXNvXNvNtNtCsfc6mssXcq6n_9discourse6models6topicss3_1__NtB8_5TopicNtNtCsi2zptu4QhLv_5serde3ser9Serialize9serializeNtB3_15___SerializeWithB15_9serializepEBc_
FN:14,_RINvXs_NvXNvNtNtCsfc6mssXcq6n_9discourse6models6topicss3_1__NtBa_5TopicNtNtCsi2zptu4QhLv_5serde3ser9Serialize9serializeNtB5_s_15___SerializeWithB17_9serializepEBe_
FN:14,_RINvXs0_NvXNvNtNtCsfc6mssXcq6n_9discourse6models6topicss3_1__NtBb_5TopicNtNtCsi2zptu4QhLv_5serde3ser9Serialize9serializeNtB6_s0_15___SerializeWithB18_9serializepEBf_
FN:44,_RINvNtNtNtCsfc6mssXcq6n_9discourse6models6topics11date_format9serializepEB8_
FN:51,_RINvNtNtNtCsfc6mssXcq6n_9discourse6models6topics11date_format11deserializepEB8_
FN:57,_RNCINvNtNtNtCsfc6mssXcq6n_9discourse6models6topics11date_format11deserializepE0Ba_
FNDA:0,_RNvXNvXNvNtNtCsfc6mssXcq6n_9discourse6models6topics1__NtB7_13TopicResponseNtNtCsi2zptu4QhLv_5serde2de11Deserialize11deserializeNtB2_14___FieldVisitorNtB1c_7Visitor9expecting
FNDA:0,_RINvXNvXNvNtNtCsfc6mssXcq6n_9discourse6models6topics1__NtB8_13TopicResponseNtNtCsi2zptu4QhLv_5serde2de11Deserialize11deserializeNtB3_14___FieldVisitorNtB1d_7Visitor9visit_u64pEBc_
FNDA:0,_RINvXNvXNvNtNtCsfc6mssXcq6n_9discourse6models6topics1__NtB8_13TopicResponseNtNtCsi2zptu4QhLv_5serde2de11Deserialize11deserializeNtB3_14___FieldVisitorNtB1d_7Visitor9visit_strpEBc_
FNDA:0,_RINvXNvXNvNtNtCsfc6mssXcq6n_9discourse6models6topics1__NtB8_13TopicResponseNtNtCsi2zptu4QhLv_5serde2de11Deserialize11deserializeNtB3_14___FieldVisitorNtB1d_7Visitor11visit_bytespEBc_
FNDA:0,_RINvXs_NvXNvNtNtCsfc6mssXcq6n_9discourse6models6topics1__NtBa_13TopicResponseNtNtCsi2zptu4QhLv_5serde2de11Deserialize11deserializeNtB5_7___FieldB1d_11deserializepEBe_
FNDA:0,_RNvXs0_NvXNvNtNtCsfc6mssXcq6n_9discourse6models6topics1__NtBa_13TopicResponseNtNtCsi2zptu4QhLv_5serde2de11Deserialize11deserializeNtB5_9___VisitorNtB1f_7Visitor9expecting
FNDA:0,_RINvXs0_NvXNvNtNtCsfc6mssXcq6n_9discourse6models6topics1__NtBb_13TopicResponseNtNtCsi2zptu4QhLv_5serde2de11Deserialize11deserializeNtB6_9___VisitorNtB1g_7Visitor9visit_seqpEBf_
FNDA:0,_RINvXs0_NvXNvNtNtCsfc6mssXcq6n_9discourse6models6topics1__NtBb_13TopicResponseNtNtCsi2zptu4QhLv_5serde2de11Deserialize11deserializeNtB6_9___VisitorNtB1g_7Visitor9visit_mappEBf_
FNDA:0,_RNvXNvXNvNtNtCsfc6mssXcq6n_9discourse6models6topicss0_1__NtB7_9TopicListNtNtCsi2zptu4QhLv_5serde2de11Deserialize11deserializeNtB2_14___FieldVisitorNtB1a_7Visitor9expecting
FNDA:0,_RINvXNvXNvNtNtCsfc6mssXcq6n_9discourse6models6topicss0_1__NtB8_9TopicListNtNtCsi2zptu4QhLv_5serde2de11Deserialize11deserializeNtB3_14___FieldVisitorNtB1b_7Visitor9visit_u64pEBc_
FNDA:0,_RINvXNvXNvNtNtCsfc6mssXcq6n_9discourse6models6topicss0_1__NtB8_9TopicListNtNtCsi2zptu4QhLv_5serde2de11Deserialize11deserializeNtB3_14___FieldVisitorNtB1b_7Visitor9visit_strpEBc_
FNDA:0,_RINvXNvXNvNtNtCsfc6mssXcq6n_9discourse6models6topicss0_1__NtB8_9TopicListNtNtCsi2zptu4QhLv_5serde2de11Deserialize11deserializeNtB3_14___FieldVisitorNtB1b_7Visitor11visit_bytespEBc_
FNDA:0,_RINvXs_NvXNvNtNtCsfc6mssXcq6n_9discourse6models6topicss0_1__NtBa_9TopicListNtNtCsi2zptu4QhLv_5serde2de11Deserialize11deserializeNtB5_7___FieldB1b_11deserializepEBe_
FNDA:0,_RNvXs0_NvXNvNtNtCsfc6mssXcq6n_9discourse6models6topicss0_1__NtBa_9TopicListNtNtCsi2zptu4QhLv_5serde2de11Deserialize11deserializeNtB5_9___VisitorNtB1d_7Visitor9expecting
FNDA:0,_RINvXs0_NvXNvNtNtCsfc6mssXcq6n_9discourse6models6topicss0_1__NtBb_9TopicListNtNtCsi2zptu4QhLv_5serde2de11Deserialize11deserializeNtB6_9___VisitorNtB1e_7Visitor9visit_seqpEBf_
FNDA:0,_RINvXs0_NvXNvNtNtCsfc6mssXcq6n_9discourse6models6topicss0_1__NtBb_9TopicListNtNtCsi2zptu4QhLv_5serde2de11Deserialize11deserializeNtB6_9___VisitorNtB1e_7Visitor9visit_mappEBf_
FNDA:0,_RNvXNvXNvNtNtCsfc6mssXcq6n_9discourse6models6topicss2_1__NtB7_5TopicNtNtCsi2zptu4QhLv_5serde2de11Deserialize11deserializeNtB2_14___FieldVisitorNtB16_7Visitor9expecting
FNDA:0,_RINvXNvXNvNtNtCsfc6mssXcq6n_9discourse6models6topicss2_1__NtB8_5TopicNtNtCsi2zptu4QhLv_5serde2de11Deserialize11deserializeNtB3_14___FieldVisitorNtB17_7Visitor9visit_u64pEBc_
FNDA:0,_RINvXNvXNvNtNtCsfc6mssXcq6n_9discourse6models6topicss2_1__NtB8_5TopicNtNtCsi2zptu4QhLv_5serde2de11Deserialize11deserializeNtB3_14___FieldVisitorNtB17_7Visitor9visit_strpEBc_
FNDA:0,_RINvXNvXNvNtNtCsfc6mssXcq6n_9discourse6models6topicss2_1__NtB8_5TopicNtNtCsi2zptu4QhLv_5serde2de11Deserialize11deserializeNtB3_14___FieldVisitorNtB17_7Visitor11visit_bytespEBc_
FNDA:0,_RINvXs_NvXNvNtNtCsfc6mssXcq6n_9discourse6models6topicss2_1__NtBa_5TopicNtNtCsi2zptu4QhLv_5serde2de11Deserialize11deserializeNtB5_7___FieldB17_11deserializepEBe_
FNDA:0,_RNvXs0_NvXNvNtNtCsfc6mssXcq6n_9discourse6models6topicss2_1__NtBa_5TopicNtNtCsi2zptu4QhLv_5serde2de11Deserialize11deserializeNtB5_9___VisitorNtB19_7Visitor9expecting
FNDA:0,_RINvXs0_NvXNvNtNtCsfc6mssXcq6n_9discourse6models6topicss2_1__NtBb_5TopicNtNtCsi2zptu4QhLv_5serde2de11Deserialize11deserializeNtB6_9___VisitorNtB1a_7Visitor9visit_seqpEBf_
FNDA:0,_RINvXNvXs0_NvXNvNtNtCsfc6mssXcq6n_9discourse6models6topicss2_1__NtBe_5TopicNtNtCsi2zptu4QhLv_5serde2de11Deserialize11deserializeNtB9_9___VisitorNtB1d_7Visitor9visit_seqNtB3_17___DeserializeWithB1b_11deserializepEBi_
FNDA:0,_RNCINvXs0_NvXNvNtNtCsfc6mssXcq6n_9discourse6models6topicss2_1__NtBd_5TopicNtNtCsi2zptu4QhLv_5serde2de11Deserialize11deserializeNtB8_9___VisitorNtB1c_7Visitor9visit_seqpE0Bh_
FNDA:0,_RINvXs_NvXs0_NvXNvNtNtCsfc6mssXcq6n_9discourse6models6topicss2_1__NtBg_5TopicNtNtCsi2zptu4QhLv_5serde2de11Deserialize11deserializeNtBb_9___VisitorNtB1f_7Visitor9visit_seqNtB5_s_17___DeserializeWithB1d_11deserializepEBk_
FNDA:0,_RNCINvXs0_NvXNvNtNtCsfc6mssXcq6n_9discourse6models6topicss2_1__NtBd_5TopicNtNtCsi2zptu4QhLv_5serde2de11Deserialize11deserializeNtB8_9___VisitorNtB1c_7Visitor9visit_seqpEs_0Bh_
FNDA:0,_RINvXs0_NvXs0_NvXNvNtNtCsfc6mssXcq6n_9discourse6models6topicss2_1__NtBh_5TopicNtNtCsi2zptu4QhLv_5serde2de11Deserialize11deserializeNtBc_9___VisitorNtB1g_7Visitor9visit_seqNtB6_s0_17___DeserializeWithB1e_11deserializepEBl_
FNDA:0,_RNCINvXs0_NvXNvNtNtCsfc6mssXcq6n_9discourse6models6topicss2_1__NtBd_5TopicNtNtCsi2zptu4QhLv_5serde2de11Deserialize11deserializeNtB8_9___VisitorNtB1c_7Visitor9visit_seqpEs0_0Bh_
FNDA:0,_RINvXs0_NvXNvNtNtCsfc6mssXcq6n_9discourse6models6topicss2_1__NtBb_5TopicNtNtCsi2zptu4QhLv_5serde2de11Deserialize11deserializeNtB6_9___VisitorNtB1a_7Visitor9visit_mappEBf_
FNDA:0,_RINvXNvXs0_NvXNvNtNtCsfc6mssXcq6n_9discourse6models6topicss2_1__NtBe_5TopicNtNtCsi2zptu4QhLv_5serde2de11Deserialize11deserializeNtB9_9___VisitorNtB1d_7Visitor9visit_mapNtB3_17___DeserializeWithB1b_11deserializepEBi_
FNDA:0,_RINvXs_NvXs0_NvXNvNtNtCsfc6mssXcq6n_9discourse6models6topicss2_1__NtBg_5TopicNtNtCsi2zptu4QhLv_5serde2de11Deserialize11deserializeNtBb_9___VisitorNtB1f_7Visitor9visit_mapNtB5_s_17___DeserializeWithB1d_11deserializepEBk_
FNDA:0,_RINvXs0_NvXs0_NvXNvNtNtCsfc6mssXcq6n_9discourse6models6topicss2_1__NtBh_5TopicNtNtCsi2zptu4QhLv_5serde2de11Deserialize11deserializeNtBc_9___VisitorNtB1g_7Visitor9visit_mapNtB6_s0_17___DeserializeWithB1e_11deserializepEBl_
FNDA:0,_RINvXNvXNvNtNtCsfc6mssXcq6n_9discourse6models6topicss3_1__NtB8_5TopicNtNtCsi2zptu4QhLv_5serde3ser9Serialize9serializeNtB3_15___SerializeWithB15_9serializepEBc_
FNDA:0,_RINvXs_NvXNvNtNtCsfc6mssXcq6n_9discourse6models6topicss3_1__NtBa_5TopicNtNtCsi2zptu4QhLv_5serde3ser9Serialize9serializeNtB5_s_15___SerializeWithB17_9serializepEBe_
FNDA:0,_RINvXs0_NvXNvNtNtCsfc6mssXcq6n_9discourse6models6topicss3_1__NtBb_5TopicNtNtCsi2zptu4QhLv_5serde3ser9Serialize9serializeNtB6_s0_15___SerializeWithB18_9serializepEBf_
FNDA:0,_RINvNtNtNtCsfc6mssXcq6n_9discourse6models6topics11date_format9serializepEB8_
FNDA:0,_RINvNtNtNtCsfc6mssXcq6n_9discourse6models6topics11date_format11deserializepEB8_
FNDA:0,_RNCINvNtNtNtCsfc6mssXcq6n_9discourse6models6topics11date_format11deserializepE0Ba_
FNF:8
FNH:0
DA:4,0
DA:9,0
DA:14,0
DA:44,0
DA:45,0
DA:46,0
DA:47,0
DA:48,0
DA:49,0
DA:51,0
DA:52,0
DA:53,0
DA:54,0
DA:55,0
DA:56,0
DA:57,0
DA:58,0
DA:59,0
BRF:0
BRH:0
LF:21
LH:0
end_of_record
SF:/Users/andrei/git/proposalsapp/apps/discourse/models/users.rs
FN:3,_RNvXNvXNvNtNtCsfc6mssXcq6n_9discourse6models5users1__NtB7_18UserDetailResponseNtNtCsi2zptu4QhLv_5serde2de11Deserialize11deserializeNtB2_14___FieldVisitorNtB1g_7Visitor9expecting
FN:3,_RINvXNvXNvNtNtCsfc6mssXcq6n_9discourse6models5users1__NtB8_18UserDetailResponseNtNtCsi2zptu4QhLv_5serde2de11Deserialize11deserializeNtB3_14___FieldVisitorNtB1h_7Visitor9visit_u64pEBc_
FN:3,_RINvXNvXNvNtNtCsfc6mssXcq6n_9discourse6models5users1__NtB8_18UserDetailResponseNtNtCsi2zptu4QhLv_5serde2de11Deserialize11deserializeNtB3_14___FieldVisitorNtB1h_7Visitor9visit_strpEBc_
FN:3,_RINvXNvXNvNtNtCsfc6mssXcq6n_9discourse6models5users1__NtB8_18UserDetailResponseNtNtCsi2zptu4QhLv_5serde2de11Deserialize11deserializeNtB3_14___FieldVisitorNtB1h_7Visitor11visit_bytespEBc_
FN:3,_RINvXs_NvXNvNtNtCsfc6mssXcq6n_9discourse6models5users1__NtBa_18UserDetailResponseNtNtCsi2zptu4QhLv_5serde2de11Deserialize11deserializeNtB5_7___FieldB1h_11deserializepEBe_
FN:3,_RNvXs0_NvXNvNtNtCsfc6mssXcq6n_9discourse6models5users1__NtBa_18UserDetailResponseNtNtCsi2zptu4QhLv_5serde2de11Deserialize11deserializeNtB5_9___VisitorNtB1j_7Visitor9expecting
FN:3,_RINvXs0_NvXNvNtNtCsfc6mssXcq6n_9discourse6models5users1__NtBb_18UserDetailResponseNtNtCsi2zptu4QhLv_5serde2de11Deserialize11deserializeNtB6_9___VisitorNtB1k_7Visitor9visit_seqpEBf_
FN:3,_RINvXs0_NvXNvNtNtCsfc6mssXcq6n_9discourse6models5users1__NtBb_18UserDetailResponseNtNtCsi2zptu4QhLv_5serde2de11Deserialize11deserializeNtB6_9___VisitorNtB1k_7Visitor9visit_mappEBf_
FN:8,_RNvXNvXNvNtNtCsfc6mssXcq6n_9discourse6models5userss_1__NtB7_10UserDetailNtNtCsi2zptu4QhLv_5serde2de11Deserialize11deserializeNtB2_14___FieldVisitorNtB1a_7Visitor9expecting
FN:8,_RINvXNvXNvNtNtCsfc6mssXcq6n_9discourse6models5userss_1__NtB8_10UserDetailNtNtCsi2zptu4QhLv_5serde2de11Deserialize11deserializeNtB3_14___FieldVisitorNtB1b_7Visitor9visit_u64pEBc_
FN:8,_RINvXNvXNvNtNtCsfc6mssXcq6n_9discourse6models5userss_1__NtB8_10UserDetailNtNtCsi2zptu4QhLv_5serde2de11Deserialize11deserializeNtB3_14___FieldVisitorNtB1b_7Visitor9visit_strpEBc_
FN:8,_RINvXNvXNvNtNtCsfc6mssXcq6n_9discourse6models5userss_1__NtB8_10UserDetailNtNtCsi2zptu4QhLv_5serde2de11Deserialize11deserializeNtB3_14___FieldVisitorNtB1b_7Visitor11visit_bytespEBc_
FN:8,_RINvXs_NvXNvNtNtCsfc6mssXcq6n_9discourse6models5userss_1__NtBa_10UserDetailNtNtCsi2zptu4QhLv_5serde2de11Deserialize11deserializeNtB5_7___FieldB1b_11deserializepEBe_
FN:8,_RNvXs0_NvXNvNtNtCsfc6mssXcq6n_9discourse6models5userss_1__NtBa_10UserDetailNtNtCsi2zptu4QhLv_5serde2de11Deserialize11deserializeNtB5_9___VisitorNtB1d_7Visitor9expecting
FN:8,_RINvXs0_NvXNvNtNtCsfc6mssXcq6n_9discourse6models5userss_1__NtBb_10UserDetailNtNtCsi2zptu4QhLv_5serde2de11Deserialize11deserializeNtB6_9___VisitorNtB1e_7Visitor9visit_seqpEBf_
FN:8,_RINvXs0_NvXNvNtNtCsfc6mssXcq6n_9discourse6models5userss_1__NtBb_10UserDetailNtNtCsi2zptu4QhLv_5serde2de11Deserialize11deserializeNtB6_9___VisitorNtB1e_7Visitor9visit_mappEBf_
FN:17,_RNvXNvXNvNtNtCsfc6mssXcq6n_9discourse6models5userss0_1__NtB7_4UserNtNtCsi2zptu4QhLv_5serde2de11Deserialize11deserializeNtB2_14___FieldVisitorNtB14_7Visitor9expecting
FN:17,_RINvXNvXNvNtNtCsfc6mssXcq6n_9discourse6models5userss0_1__NtB8_4UserNtNtCsi2zptu4QhLv_5serde2de11Deserialize11deserializeNtB3_14___FieldVisitorNtB15_7Visitor9visit_u64pEBc_
FN:17,_RINvXNvXNvNtNtCsfc6mssXcq6n_9discourse6models5userss0_1__NtB8_4UserNtNtCsi2zptu4QhLv_5serde2de11Deserialize11deserializeNtB3_14___FieldVisitorNtB15_7Visitor9visit_strpEBc_
FN:17,_RINvXNvXNvNtNtCsfc6mssXcq6n_9discourse6models5userss0_1__NtB8_4UserNtNtCsi2zptu4QhLv_5serde2de11Deserialize11deserializeNtB3_14___FieldVisitorNtB15_7Visitor11visit_bytespEBc_
FN:17,_RINvXs_NvXNvNtNtCsfc6mssXcq6n_9discourse6models5userss0_1__NtBa_4UserNtNtCsi2zptu4QhLv_5serde2de11Deserialize11deserializeNtB5_7___FieldB15_11deserializepEBe_
FN:17,_RNvXs0_NvXNvNtNtCsfc6mssXcq6n_9discourse6models5userss0_1__NtBa_4UserNtNtCsi2zptu4QhLv_5serde2de11Deserialize11deserializeNtB5_9___VisitorNtB17_7Visitor9expecting
FN:17,_RINvXs0_NvXNvNtNtCsfc6mssXcq6n_9discourse6models5userss0_1__NtBb_4UserNtNtCsi2zptu4QhLv_5serde2de11Deserialize11deserializeNtB6_9___VisitorNtB18_7Visitor9visit_seqpEBf_
FN:17,_RINvXs0_NvXNvNtNtCsfc6mssXcq6n_9discourse6models5userss0_1__NtBb_4UserNtNtCsi2zptu4QhLv_5serde2de11Deserialize11deserializeNtB6_9___VisitorNtB18_7Visitor9visit_mappEBf_
FN:41,_RNvXNvXNvNtNtCsfc6mssXcq6n_9discourse6models5userss2_1__NtB7_13DirectoryItemNtNtCsi2zptu4QhLv_5serde2de11Deserialize11deserializeNtB2_14___FieldVisitorNtB1e_7Visitor9expecting
FN:41,_RINvXNvXNvNtNtCsfc6mssXcq6n_9discourse6models5userss2_1__NtB8_13DirectoryItemNtNtCsi2zptu4QhLv_5serde2de11Deserialize11deserializeNtB3_14___FieldVisitorNtB1f_7Visitor9visit_u64pEBc_
FN:41,_RINvXNvXNvNtNtCsfc6mssXcq6n_9discourse6models5userss2_1__NtB8_13DirectoryItemNtNtCsi2zptu4QhLv_5serde2de11Deserialize11deserializeNtB3_14___FieldVisitorNtB1f_7Visitor9visit_strpEBc_
FN:41,_RINvXNvXNvNtNtCsfc6mssXcq6n_9discourse6models5userss2_1__NtB8_13DirectoryItemNtNtCsi2zptu4QhLv_5serde2de11Deserialize11deserializeNtB3_14___FieldVisitorNtB1f_7Visitor11visit_bytespEBc_
FN:41,_RINvXs_NvXNvNtNtCsfc6mssXcq6n_9discourse6models5userss2_1__NtBa_13DirectoryItemNtNtCsi2zptu4QhLv_5serde2de11Deserialize11deserializeNtB5_7___FieldB1f_11deserializepEBe_
FN:41,_RNvXs0_NvXNvNtNtCsfc6mssXcq6n_9discourse6models5userss2_1__NtBa_13DirectoryItemNtNtCsi2zptu4QhLv_5serde2de11Deserialize11deserializeNtB5_9___VisitorNtB1h_7Visitor9expecting
FN:41,_RINvXs0_NvXNvNtNtCsfc6mssXcq6n_9discourse6models5userss2_1__NtBb_13DirectoryItemNtNtCsi2zptu4QhLv_5serde2de11Deserialize11deserializeNtB6_9___VisitorNtB1i_7Visitor9visit_seqpEBf_
FN:41,_RINvXs0_NvXNvNtNtCsfc6mssXcq6n_9discourse6models5userss2_1__NtBb_13DirectoryItemNtNtCsi2zptu4QhLv_5serde2de11Deserialize11deserializeNtB6_9___VisitorNtB1i_7Visitor9visit_mappEBf_
FN:55,_RNvXNvXNvNtNtCsfc6mssXcq6n_9discourse6models5userss4_1__NtB7_4MetaNtNtCsi2zptu4QhLv_5serde2de11Deserialize11deserializeNtB2_14___FieldVisitorNtB14_7Visitor9expecting
FN:55,_RINvXNvXNvNtNtCsfc6mssXcq6n_9discourse6models5userss4_1__NtB8_4MetaNtNtCsi2zptu4QhLv_5serde2de11Deserialize11deserializeNtB3_14___FieldVisitorNtB15_7Visitor9visit_u64pEBc_
FN:55,_RINvXNvXNvNtNtCsfc6mssXcq6n_9discourse6models5userss4_1__NtB8_4MetaNtNtCsi2zptu4QhLv_5serde2de11Deserialize11deserializeNtB3_14___FieldVisitorNtB15_7Visitor9visit_strpEBc_
FN:55,_RINvXNvXNvNtNtCsfc6mssXcq6n_9discourse6models5userss4_1__NtB8_4MetaNtNtCsi2zptu4QhLv_5serde2de11Deserialize11deserializeNtB3_14___FieldVisitorNtB15_7Visitor11visit_bytespEBc_
FN:55,_RINvXs_NvXNvNtNtCsfc6mssXcq6n_9discourse6models5userss4_1__NtBa_4MetaNtNtCsi2zptu4QhLv_5serde2de11Deserialize11deserializeNtB5_7___FieldB15_11deserializepEBe_
FN:55,_RNvXs0_NvXNvNtNtCsfc6mssXcq6n_9discourse6models5userss4_1__NtBa_4MetaNtNtCsi2zptu4QhLv_5serde2de11Deserialize11deserializeNtB5_9___VisitorNtB17_7Visitor9expecting
FN:55,_RINvXs0_NvXNvNtNtCsfc6mssXcq6n_9discourse6models5userss4_1__NtBb_4MetaNtNtCsi2zptu4QhLv_5serde2de11Deserialize11deserializeNtB6_9___VisitorNtB18_7Visitor9visit_seqpEBf_
FN:55,_RINvXs0_NvXNvNtNtCsfc6mssXcq6n_9discourse6models5userss4_1__NtBb_4MetaNtNtCsi2zptu4QhLv_5serde2de11Deserialize11deserializeNtB6_9___VisitorNtB18_7Visitor9visit_mappEBf_
FN:63,_RNvXNvXNvNtNtCsfc6mssXcq6n_9discourse6models5userss6_1__NtB7_12UserResponseNtNtCsi2zptu4QhLv_5serde2de11Deserialize11deserializeNtB2_14___FieldVisitorNtB1d_7Visitor9expecting
FN:63,_RINvXNvXNvNtNtCsfc6mssXcq6n_9discourse6models5userss6_1__NtB8_12UserResponseNtNtCsi2zptu4QhLv_5serde2de11Deserialize11deserializeNtB3_14___FieldVisitorNtB1e_7Visitor9visit_u64pEBc_
FN:63,_RINvXNvXNvNtNtCsfc6mssXcq6n_9discourse6models5userss6_1__NtB8_12UserResponseNtNtCsi2zptu4QhLv_5serde2de11Deserialize11deserializeNtB3_14___FieldVisitorNtB1e_7Visitor9visit_strpEBc_
FN:63,_RINvXNvXNvNtNtCsfc6mssXcq6n_9discourse6models5userss6_1__NtB8_12UserResponseNtNtCsi2zptu4QhLv_5serde2de11Deserialize11deserializeNtB3_14___FieldVisitorNtB1e_7Visitor11visit_bytespEBc_
FN:63,_RINvXs_NvXNvNtNtCsfc6mssXcq6n_9discourse6models5userss6_1__NtBa_12UserResponseNtNtCsi2zptu4QhLv_5serde2de11Deserialize11deserializeNtB5_7___FieldB1e_11deserializepEBe_
FN:63,_RNvXs0_NvXNvNtNtCsfc6mssXcq6n_9discourse6models5userss6_1__NtBa_12UserResponseNtNtCsi2zptu4QhLv_5serde2de11Deserialize11deserializeNtB5_9___VisitorNtB1g_7Visitor9expecting
FN:63,_RINvXs0_NvXNvNtNtCsfc6mssXcq6n_9discourse6models5userss6_1__NtBb_12UserResponseNtNtCsi2zptu4QhLv_5serde2de11Deserialize11deserializeNtB6_9___VisitorNtB1h_7Visitor9visit_seqpEBf_
FN:63,_RINvXs0_NvXNvNtNtCsfc6mssXcq6n_9discourse6models5userss6_1__NtBb_12UserResponseNtNtCsi2zptu4QhLv_5serde2de11Deserialize11deserializeNtB6_9___VisitorNtB1h_7Visitor9visit_mappEBf_
FNDA:0,_RNvXNvXNvNtNtCsfc6mssXcq6n_9discourse6models5users1__NtB7_18UserDetailResponseNtNtCsi2zptu4QhLv_5serde2de11Deserialize11deserializeNtB2_14___FieldVisitorNtB1g_7Visitor9expecting
FNDA:0,_RINvXNvXNvNtNtCsfc6mssXcq6n_9discourse6models5users1__NtB8_18UserDetailResponseNtNtCsi2zptu4QhLv_5serde2de11Deserialize11deserializeNtB3_14___FieldVisitorNtB1h_7Visitor9visit_u64pEBc_
FNDA:0,_RINvXNvXNvNtNtCsfc6mssXcq6n_9discourse6models5users1__NtB8_18UserDetailResponseNtNtCsi2zptu4QhLv_5serde2de11Deserialize11deserializeNtB3_14___FieldVisitorNtB1h_7Visitor9visit_strpEBc_
FNDA:0,_RINvXNvXNvNtNtCsfc6mssXcq6n_9discourse6models5users1__NtB8_18UserDetailResponseNtNtCsi2zptu4QhLv_5serde2de11Deserialize11deserializeNtB3_14___FieldVisitorNtB1h_7Visitor11visit_bytespEBc_
FNDA:0,_RINvXs_NvXNvNtNtCsfc6mssXcq6n_9discourse6models5users1__NtBa_18UserDetailResponseNtNtCsi2zptu4QhLv_5serde2de11Deserialize11deserializeNtB5_7___FieldB1h_11deserializepEBe_
FNDA:0,_RNvXs0_NvXNvNtNtCsfc6mssXcq6n_9discourse6models5users1__NtBa_18UserDetailResponseNtNtCsi2zptu4QhLv_5serde2de11Deserialize11deserializeNtB5_9___VisitorNtB1j_7Visitor9expecting
FNDA:0,_RINvXs0_NvXNvNtNtCsfc6mssXcq6n_9discourse6models5users1__NtBb_18UserDetailResponseNtNtCsi2zptu4QhLv_5serde2de11Deserialize11deserializeNtB6_9___VisitorNtB1k_7Visitor9visit_seqpEBf_
FNDA:0,_RINvXs0_NvXNvNtNtCsfc6mssXcq6n_9discourse6models5users1__NtBb_18UserDetailResponseNtNtCsi2zptu4QhLv_5serde2de11Deserialize11deserializeNtB6_9___VisitorNtB1k_7Visitor9visit_mappEBf_
FNDA:0,_RNvXNvXNvNtNtCsfc6mssXcq6n_9discourse6models5userss_1__NtB7_10UserDetailNtNtCsi2zptu4QhLv_5serde2de11Deserialize11deserializeNtB2_14___FieldVisitorNtB1a_7Visitor9expecting
FNDA:0,_RINvXNvXNvNtNtCsfc6mssXcq6n_9discourse6models5userss_1__NtB8_10UserDetailNtNtCsi2zptu4QhLv_5serde2de11Deserialize11deserializeNtB3_14___FieldVisitorNtB1b_7Visitor9visit_u64pEBc_
FNDA:0,_RINvXNvXNvNtNtCsfc6mssXcq6n_9discourse6models5userss_1__NtB8_10UserDetailNtNtCsi2zptu4QhLv_5serde2de11Deserialize11deserializeNtB3_14___FieldVisitorNtB1b_7Visitor9visit_strpEBc_
FNDA:0,_RINvXNvXNvNtNtCsfc6mssXcq6n_9discourse6models5userss_1__NtB8_10UserDetailNtNtCsi2zptu4QhLv_5serde2de11Deserialize11deserializeNtB3_14___FieldVisitorNtB1b_7Visitor11visit_bytespEBc_
FNDA:0,_RINvXs_NvXNvNtNtCsfc6mssXcq6n_9discourse6models5userss_1__NtBa_10UserDetailNtNtCsi2zptu4QhLv_5serde2de11Deserialize11deserializeNtB5_7___FieldB1b_11deserializepEBe_
FNDA:0,_RNvXs0_NvXNvNtNtCsfc6mssXcq6n_9discourse6models5userss_1__NtBa_10UserDetailNtNtCsi2zptu4QhLv_5serde2de11Deserialize11deserializeNtB5_9___VisitorNtB1d_7Visitor9expecting
FNDA:0,_RINvXs0_NvXNvNtNtCsfc6mssXcq6n_9discourse6models5userss_1__NtBb_10UserDetailNtNtCsi2zptu4QhLv_5serde2de11Deserialize11deserializeNtB6_9___VisitorNtB1e_7Visitor9visit_seqpEBf_
FNDA:0,_RINvXs0_NvXNvNtNtCsfc6mssXcq6n_9discourse6models5userss_1__NtBb_10UserDetailNtNtCsi2zptu4QhLv_5serde2de11Deserialize11deserializeNtB6_9___VisitorNtB1e_7Visitor9visit_mappEBf_
FNDA:0,_RNvXNvXNvNtNtCsfc6mssXcq6n_9discourse6models5userss0_1__NtB7_4UserNtNtCsi2zptu4QhLv_5serde2de11Deserialize11deserializeNtB2_14___FieldVisitorNtB14_7Visitor9expecting
FNDA:0,_RINvXNvXNvNtNtCsfc6mssXcq6n_9discourse6models5userss0_1__NtB8_4UserNtNtCsi2zptu4QhLv_5serde2de11Deserialize11deserializeNtB3_14___FieldVisitorNtB15_7Visitor9visit_u64pEBc_
FNDA:0,_RINvXNvXNvNtNtCsfc6mssXcq6n_9discourse6models5userss0_1__NtB8_4UserNtNtCsi2zptu4QhLv_5serde2de11Deserialize11deserializeNtB3_14___FieldVisitorNtB15_7Visitor9visit_strpEBc_
FNDA:0,_RINvXNvXNvNtNtCsfc6mssXcq6n_9discourse6models5userss0_1__NtB8_4UserNtNtCsi2zptu4QhLv_5serde2de11Deserialize11deserializeNtB3_14___FieldVisitorNtB15_7Visitor11visit_bytespEBc_
FNDA:0,_RINvXs_NvXNvNtNtCsfc6mssXcq6n_9discourse6models5userss0_1__NtBa_4UserNtNtCsi2zptu4QhLv_5serde2de11Deserialize11deserializeNtB5_7___FieldB15_11deserializepEBe_
FNDA:0,_RNvXs0_NvXNvNtNtCsfc6mssXcq6n_9discourse6models5userss0_1__NtBa_4UserNtNtCsi2zptu4QhLv_5serde2de11Deserialize11deserializeNtB5_9___VisitorNtB17_7Visitor9expecting
FNDA:0,_RINvXs0_NvXNvNtNtCsfc6mssXcq6n_9discourse6models5userss0_1__NtBb_4UserNtNtCsi2zptu4QhLv_5serde2de11Deserialize11deserializeNtB6_9___VisitorNtB18_7Visitor9visit_seqpEBf_
FNDA:0,_RINvXs0_NvXNvNtNtCsfc6mssXcq6n_9discourse6models5userss0_1__NtBb_4UserNtNtCsi2zptu4QhLv_5serde2de11Deserialize11deserializeNtB6_9___VisitorNtB18_7Visitor9visit_mappEBf_
FNDA:0,_RNvXNvXNvNtNtCsfc6mssXcq6n_9discourse6models5userss2_1__NtB7_13DirectoryItemNtNtCsi2zptu4QhLv_5serde2de11Deserialize11deserializeNtB2_14___FieldVisitorNtB1e_7Visitor9expecting
FNDA:0,_RINvXNvXNvNtNtCsfc6mssXcq6n_9discourse6models5userss2_1__NtB8_13DirectoryItemNtNtCsi2zptu4QhLv_5serde2de11Deserialize11deserializeNtB3_14___FieldVisitorNtB1f_7Visitor9visit_u64pEBc_
FNDA:0,_RINvXNvXNvNtNtCsfc6mssXcq6n_9discourse6models5userss2_1__NtB8_13DirectoryItemNtNtCsi2zptu4QhLv_5serde2de11Deserialize11deserializeNtB3_14___FieldVisitorNtB1f_7Visitor9visit_strpEBc_
FNDA:0,_RINvXNvXNvNtNtCsfc6mssXcq6n_9discourse6models5userss2_1__NtB8_13DirectoryItemNtNtCsi2zptu4QhLv_5serde2de11Deserialize11deserializeNtB3_14___FieldVisitorNtB1f_7Visitor11visit_bytespEBc_
FNDA:0,_RINvXs_NvXNvNtNtCsfc6mssXcq6n_9discourse6models5userss2_1__NtBa_13DirectoryItemNtNtCsi2zptu4QhLv_5serde2de11Deserialize11deserializeNtB5_7___FieldB1f_11deserializepEBe_
FNDA:0,_RNvXs0_NvXNvNtNtCsfc6mssXcq6n_9discourse6models5userss2_1__NtBa_13DirectoryItemNtNtCsi2zptu4QhLv_5serde2de11Deserialize11deserializeNtB5_9___VisitorNtB1h_7Visitor9expecting
FNDA:0,_RINvXs0_NvXNvNtNtCsfc6mssXcq6n_9discourse6models5userss2_1__NtBb_13DirectoryItemNtNtCsi2zptu4QhLv_5serde2de11Deserialize11deserializeNtB6_9___VisitorNtB1i_7Visitor9visit_seqpEBf_
FNDA:0,_RINvXs0_NvXNvNtNtCsfc6mssXcq6n_9discourse6models5userss2_1__NtBb_13DirectoryItemNtNtCsi2zptu4QhLv_5serde2de11Deserialize11deserializeNtB6_9___VisitorNtB1i_7Visitor9visit_mappEBf_
FNDA:0,_RNvXNvXNvNtNtCsfc6mssXcq6n_9discourse6models5userss4_1__NtB7_4MetaNtNtCsi2zptu4QhLv_5serde2de11Deserialize11deserializeNtB2_14___FieldVisitorNtB14_7Visitor9expecting
FNDA:0,_RINvXNvXNvNtNtCsfc6mssXcq6n_9discourse6models5userss4_1__NtB8_4MetaNtNtCsi2zptu4QhLv_5serde2de11Deserialize11deserializeNtB3_14___FieldVisitorNtB15_7Visitor9visit_u64pEBc_
FNDA:0,_RINvXNvXNvNtNtCsfc6mssXcq6n_9discourse6models5userss4_1__NtB8_4MetaNtNtCsi2zptu4QhLv_5serde2de11Deserialize11deserializeNtB3_14___FieldVisitorNtB15_7Visitor9visit_strpEBc_
FNDA:0,_RINvXNvXNvNtNtCsfc6mssXcq6n_9discourse6models5userss4_1__NtB8_4MetaNtNtCsi2zptu4QhLv_5serde2de11Deserialize11deserializeNtB3_14___FieldVisitorNtB15_7Visitor11visit_bytespEBc_
FNDA:0,_RINvXs_NvXNvNtNtCsfc6mssXcq6n_9discourse6models5userss4_1__NtBa_4MetaNtNtCsi2zptu4QhLv_5serde2de11Deserialize11deserializeNtB5_7___FieldB15_11deserializepEBe_
FNDA:0,_RNvXs0_NvXNvNtNtCsfc6mssXcq6n_9discourse6models5userss4_1__NtBa_4MetaNtNtCsi2zptu4QhLv_5serde2de11Deserialize11deserializeNtB5_9___VisitorNtB17_7Visitor9expecting
FNDA:0,_RINvXs0_NvXNvNtNtCsfc6mssXcq6n_9discourse6models5userss4_1__NtBb_4MetaNtNtCsi2zptu4QhLv_5serde2de11Deserialize11deserializeNtB6_9___VisitorNtB18_7Visitor9visit_seqpEBf_
FNDA:0,_RINvXs0_NvXNvNtNtCsfc6mssXcq6n_9discourse6models5userss4_1__NtBb_4MetaNtNtCsi2zptu4QhLv_5serde2de11Deserialize11deserializeNtB6_9___VisitorNtB18_7Visitor9visit_mappEBf_
FNDA:0,_RNvXNvXNvNtNtCsfc6mssXcq6n_9discourse6models5userss6_1__NtB7_12UserResponseNtNtCsi2zptu4QhLv_5serde2de11Deserialize11deserializeNtB2_14___FieldVisitorNtB1d_7Visitor9expecting
FNDA:0,_RINvXNvXNvNtNtCsfc6mssXcq6n_9discourse6models5userss6_1__NtB8_12UserResponseNtNtCsi2zptu4QhLv_5serde2de11Deserialize11deserializeNtB3_14___FieldVisitorNtB1e_7Visitor9visit_u64pEBc_
FNDA:0,_RINvXNvXNvNtNtCsfc6mssXcq6n_9discourse6models5userss6_1__NtB8_12UserResponseNtNtCsi2zptu4QhLv_5serde2de11Deserialize11deserializeNtB3_14___FieldVisitorNtB1e_7Visitor9visit_strpEBc_
FNDA:0,_RINvXNvXNvNtNtCsfc6mssXcq6n_9discourse6models5userss6_1__NtB8_12UserResponseNtNtCsi2zptu4QhLv_5serde2de11Deserialize11deserializeNtB3_14___FieldVisitorNtB1e_7Visitor11visit_bytespEBc_
FNDA:0,_RINvXs_NvXNvNtNtCsfc6mssXcq6n_9discourse6models5userss6_1__NtBa_12UserResponseNtNtCsi2zptu4QhLv_5serde2de11Deserialize11deserializeNtB5_7___FieldB1e_11deserializepEBe_
FNDA:0,_RNvXs0_NvXNvNtNtCsfc6mssXcq6n_9discourse6models5userss6_1__NtBa_12UserResponseNtNtCsi2zptu4QhLv_5serde2de11Deserialize11deserializeNtB5_9___VisitorNtB1g_7Visitor9expecting
FNDA:0,_RINvXs0_NvXNvNtNtCsfc6mssXcq6n_9discourse6models5userss6_1__NtBb_12UserResponseNtNtCsi2zptu4QhLv_5serde2de11Deserialize11deserializeNtB6_9___VisitorNtB1h_7Visitor9visit_seqpEBf_
FNDA:0,_RINvXs0_NvXNvNtNtCsfc6mssXcq6n_9discourse6models5userss6_1__NtBb_12UserResponseNtNtCsi2zptu4QhLv_5serde2de11Deserialize11deserializeNtB6_9___VisitorNtB1h_7Visitor9visit_mappEBf_
FNF:6
FNH:0
DA:3,0
DA:8,0
DA:17,0
DA:41,0
DA:55,0
DA:63,0
BRF:0
BRH:0
LF:6
LH:0
end_of_record
SF:/Users/andrei/git/proposalsapp/libs/rust/scanners/src/arbiscan.rs
FN:11,_RNvXNvXNvNtCskuhifYCSucK_8scanners8arbiscan1__NtB7_23EstimateTimestampResultNtNtCsi2zptu4QhLv_5serde2de11Deserialize11deserializeNtB2_14___FieldVisitorNtB1e_7Visitor9expecting
FN:11,_RINvXNvXNvNtCskuhifYCSucK_8scanners8arbiscan1__NtB8_23EstimateTimestampResultNtNtCsi2zptu4QhLv_5serde2de11Deserialize11deserializeNtB3_14___FieldVisitorNtB1f_7Visitor9visit_u64pEBa_
FN:11,_RINvXNvXNvNtCskuhifYCSucK_8scanners8arbiscan1__NtB8_23EstimateTimestampResultNtNtCsi2zptu4QhLv_5serde2de11Deserialize11deserializeNtB3_14___FieldVisitorNtB1f_7Visitor11visit_bytespEBa_
FN:23,_RNvXNvXNvNtCskuhifYCSucK_8scanners8arbiscans_1__NtB7_17EstimateTimestampNtNtCsi2zptu4QhLv_5serde2de11Deserialize11deserializeNtB2_14___FieldVisitorNtB1a_7Visitor9expecting
FN:23,_RINvXNvXNvNtCskuhifYCSucK_8scanners8arbiscans_1__NtB8_17EstimateTimestampNtNtCsi2zptu4QhLv_5serde2de11Deserialize11deserializeNtB3_14___FieldVisitorNtB1b_7Visitor9visit_u64pEBa_
FN:23,_RINvXNvXNvNtCskuhifYCSucK_8scanners8arbiscans_1__NtB8_17EstimateTimestampNtNtCsi2zptu4QhLv_5serde2de11Deserialize11deserializeNtB3_14___FieldVisitorNtB1b_7Visitor11visit_bytespEBa_
FN:92,_RNvXNvXNvNtCskuhifYCSucK_8scanners8arbiscans0_1__NtB7_13EstimateBlockNtNtCsi2zptu4QhLv_5serde2de11Deserialize11deserializeNtB2_14___FieldVisitorNtB17_7Visitor9expecting
FN:92,_RINvXNvXNvNtCskuhifYCSucK_8scanners8arbiscans0_1__NtB8_13EstimateBlockNtNtCsi2zptu4QhLv_5serde2de11Deserialize11deserializeNtB3_14___FieldVisitorNtB18_7Visitor9visit_u64pEBa_
FN:92,_RINvXNvXNvNtCskuhifYCSucK_8scanners8arbiscans0_1__NtB8_13EstimateBlockNtNtCsi2zptu4QhLv_5serde2de11Deserialize11deserializeNtB3_14___FieldVisitorNtB18_7Visitor11visit_bytespEBa_
FN:30,_RNCNvNtCskuhifYCSucK_8scanners8arbiscan18estimate_timestamp0B5_
FN:42,_RNCNCNvNtCskuhifYCSucK_8scanners8arbiscan18estimate_timestamp00B7_
FN:99,_RNCNvNtCskuhifYCSucK_8scanners8arbiscan14estimate_block0B5_
FN:11,_RINvXNvXNvNtCskuhifYCSucK_8scanners8arbiscan1__NtB8_23EstimateTimestampResultNtNtCsi2zptu4QhLv_5serde2de11Deserialize11deserializeNtB3_14___FieldVisitorNtB1f_7Visitor9visit_strNtNtCslSvSW0ZHiud_10serde_json5error5ErrorEBa_
FN:11,_RINvXs_NvXNvNtCskuhifYCSucK_8scanners8arbiscan1__NtBa_23EstimateTimestampResultNtNtCsi2zptu4QhLv_5serde2de11Deserialize11deserializeNtB5_7___FieldB1f_11deserializeINtNtCslSvSW0ZHiud_10serde_json2de6MapKeyNtNtB2G_4read7StrReadEEBc_
FN:11,_RINvXs0_NvXNvNtCskuhifYCSucK_8scanners8arbiscan1__NtBb_23EstimateTimestampResultNtNtCsi2zptu4QhLv_5serde2de11Deserialize11deserializeNtB6_9___VisitorNtB1i_7Visitor9visit_seqINtNtCslSvSW0ZHiud_10serde_json2de9SeqAccessNtNtB2Q_4read7StrReadEEBd_
FN:11,_RINvXs0_NvXNvNtCskuhifYCSucK_8scanners8arbiscan1__NtBb_23EstimateTimestampResultNtNtCsi2zptu4QhLv_5serde2de11Deserialize11deserializeNtB6_9___VisitorNtB1i_7Visitor9visit_mapINtNtCslSvSW0ZHiud_10serde_json2de9MapAccessNtNtB2Q_4read7StrReadEEBd_
FN:23,_RINvXNvXNvNtCskuhifYCSucK_8scanners8arbiscans_1__NtB8_17EstimateTimestampNtNtCsi2zptu4QhLv_5serde2de11Deserialize11deserializeNtB3_14___FieldVisitorNtB1b_7Visitor9visit_strNtNtCslSvSW0ZHiud_10serde_json5error5ErrorEBa_
FN:23,_RINvXs_NvXNvNtCskuhifYCSucK_8scanners8arbiscans_1__NtBa_17EstimateTimestampNtNtCsi2zptu4QhLv_5serde2de11Deserialize11deserializeNtB5_7___FieldB1b_11deserializeINtNtCslSvSW0ZHiud_10serde_json2de6MapKeyNtNtB2C_4read7StrReadEEBc_
FN:23,_RINvXs0_NvXNvNtCskuhifYCSucK_8scanners8arbiscans_1__NtBb_17EstimateTimestampNtNtCsi2zptu4QhLv_5serde2de11Deserialize11deserializeNtB6_9___VisitorNtB1e_7Visitor9visit_seqINtNtCslSvSW0ZHiud_10serde_json2de9SeqAccessNtNtB2M_4read7StrReadEEBd_
FN:23,_RINvXs0_NvXNvNtCskuhifYCSucK_8scanners8arbiscans_1__NtBb_17EstimateTimestampNtNtCsi2zptu4QhLv_5serde2de11Deserialize11deserializeNtB6_9___VisitorNtB1e_7Visitor9visit_mapINtNtCslSvSW0ZHiud_10serde_json2de9MapAccessNtNtB2M_4read7StrReadEEBd_
FN:92,_RINvXNvXNvNtCskuhifYCSucK_8scanners8arbiscans0_1__NtB8_13EstimateBlockNtNtCsi2zptu4QhLv_5serde2de11Deserialize11deserializeNtB3_14___FieldVisitorNtB18_7Visitor9visit_strNtNtCslSvSW0ZHiud_10serde_json5error5ErrorEBa_
FN:92,_RINvXs_NvXNvNtCskuhifYCSucK_8scanners8arbiscans0_1__NtBa_13EstimateBlockNtNtCsi2zptu4QhLv_5serde2de11Deserialize11deserializeNtB5_7___FieldB18_11deserializeINtNtCslSvSW0ZHiud_10serde_json2de6MapKeyNtNtB2z_4read7StrReadEEBc_
FN:92,_RINvXs0_NvXNvNtCskuhifYCSucK_8scanners8arbiscans0_1__NtBb_13EstimateBlockNtNtCsi2zptu4QhLv_5serde2de11Deserialize11deserializeNtB6_9___VisitorNtB1b_7Visitor9visit_seqINtNtCslSvSW0ZHiud_10serde_json2de9SeqAccessNtNtB2J_4read7StrReadEEBd_
FN:92,_RINvXs0_NvXNvNtCskuhifYCSucK_8scanners8arbiscans0_1__NtBb_13EstimateBlockNtNtCsi2zptu4QhLv_5serde2de11Deserialize11deserializeNtB6_9___VisitorNtB1b_7Visitor9visit_mapINtNtCslSvSW0ZHiud_10serde_json2de9MapAccessNtNtB2J_4read7StrReadEEBd_
FN:30,_RNvNtCskuhifYCSucK_8scanners8arbiscan18estimate_timestamp
FN:99,_RNvNtCskuhifYCSucK_8scanners8arbiscan14estimate_block
FN:11,_RNvXs0_NvXNvNtCskuhifYCSucK_8scanners8arbiscan1__NtBa_23EstimateTimestampResultNtNtCsi2zptu4QhLv_5serde2de11Deserialize11deserializeNtB5_9___VisitorNtB1h_7Visitor9expecting
FN:23,_RNvXs0_NvXNvNtCskuhifYCSucK_8scanners8arbiscans_1__NtBa_17EstimateTimestampNtNtCsi2zptu4QhLv_5serde2de11Deserialize11deserializeNtB5_9___VisitorNtB1d_7Visitor9expecting
FN:92,_RNvXs0_NvXNvNtCskuhifYCSucK_8scanners8arbiscans0_1__NtBa_13EstimateBlockNtNtCsi2zptu4QhLv_5serde2de11Deserialize11deserializeNtB5_9___VisitorNtB1a_7Visitor9expecting
FN:153,_RNvNtNtCskuhifYCSucK_8scanners8arbiscan14arbiscan_testss_34test_estimate_timestamp_past_block
FN:168,_RNvNtNtCskuhifYCSucK_8scanners8arbiscan14arbiscan_testss_36test_estimate_timestamp_future_block
FN:188,_RNvNtNtCskuhifYCSucK_8scanners8arbiscan14arbiscan_testss_19test_estimate_block
FN:202,_RNvNtNtCskuhifYCSucK_8scanners8arbiscan14arbiscan_testss_21test_estimate_block_2
FN:153,_RNCNvNtNtCskuhifYCSucK_8scanners8arbiscan14arbiscan_testss_34test_estimate_timestamp_past_block0B7_
FN:168,_RNCNvNtNtCskuhifYCSucK_8scanners8arbiscan14arbiscan_testss_36test_estimate_timestamp_future_block0B7_
FN:188,_RNCNvNtNtCskuhifYCSucK_8scanners8arbiscan14arbiscan_testss_19test_estimate_block0B7_
FN:202,_RNCNvNtNtCskuhifYCSucK_8scanners8arbiscan14arbiscan_testss_21test_estimate_block_20B7_
FNDA:0,_RNvXNvXNvNtCskuhifYCSucK_8scanners8arbiscan1__NtB7_23EstimateTimestampResultNtNtCsi2zptu4QhLv_5serde2de11Deserialize11deserializeNtB2_14___FieldVisitorNtB1e_7Visitor9expecting
FNDA:0,_RINvXNvXNvNtCskuhifYCSucK_8scanners8arbiscan1__NtB8_23EstimateTimestampResultNtNtCsi2zptu4QhLv_5serde2de11Deserialize11deserializeNtB3_14___FieldVisitorNtB1f_7Visitor9visit_u64pEBa_
FNDA:0,_RINvXNvXNvNtCskuhifYCSucK_8scanners8arbiscan1__NtB8_23EstimateTimestampResultNtNtCsi2zptu4QhLv_5serde2de11Deserialize11deserializeNtB3_14___FieldVisitorNtB1f_7Visitor11visit_bytespEBa_
FNDA:0,_RNvXNvXNvNtCskuhifYCSucK_8scanners8arbiscans_1__NtB7_17EstimateTimestampNtNtCsi2zptu4QhLv_5serde2de11Deserialize11deserializeNtB2_14___FieldVisitorNtB1a_7Visitor9expecting
FNDA:0,_RINvXNvXNvNtCskuhifYCSucK_8scanners8arbiscans_1__NtB8_17EstimateTimestampNtNtCsi2zptu4QhLv_5serde2de11Deserialize11deserializeNtB3_14___FieldVisitorNtB1b_7Visitor9visit_u64pEBa_
FNDA:0,_RINvXNvXNvNtCskuhifYCSucK_8scanners8arbiscans_1__NtB8_17EstimateTimestampNtNtCsi2zptu4QhLv_5serde2de11Deserialize11deserializeNtB3_14___FieldVisitorNtB1b_7Visitor11visit_bytespEBa_
FNDA:0,_RNvXNvXNvNtCskuhifYCSucK_8scanners8arbiscans0_1__NtB7_13EstimateBlockNtNtCsi2zptu4QhLv_5serde2de11Deserialize11deserializeNtB2_14___FieldVisitorNtB17_7Visitor9expecting
FNDA:0,_RINvXNvXNvNtCskuhifYCSucK_8scanners8arbiscans0_1__NtB8_13EstimateBlockNtNtCsi2zptu4QhLv_5serde2de11Deserialize11deserializeNtB3_14___FieldVisitorNtB18_7Visitor9visit_u64pEBa_
FNDA:0,_RINvXNvXNvNtCskuhifYCSucK_8scanners8arbiscans0_1__NtB8_13EstimateBlockNtNtCsi2zptu4QhLv_5serde2de11Deserialize11deserializeNtB3_14___FieldVisitorNtB18_7Visitor11visit_bytespEBa_
FNDA:2,_RNCNvNtCskuhifYCSucK_8scanners8arbiscan18estimate_timestamp0B5_
FNDA:0,_RNCNCNvNtCskuhifYCSucK_8scanners8arbiscan18estimate_timestamp00B7_
FNDA:2,_RNCNvNtCskuhifYCSucK_8scanners8arbiscan14estimate_block0B5_
FNDA:4,_RINvXNvXNvNtCskuhifYCSucK_8scanners8arbiscan1__NtB8_23EstimateTimestampResultNtNtCsi2zptu4QhLv_5serde2de11Deserialize11deserializeNtB3_14___FieldVisitorNtB1f_7Visitor9visit_strNtNtCslSvSW0ZHiud_10serde_json5error5ErrorEBa_
FNDA:4,_RINvXs_NvXNvNtCskuhifYCSucK_8scanners8arbiscan1__NtBa_23EstimateTimestampResultNtNtCsi2zptu4QhLv_5serde2de11Deserialize11deserializeNtB5_7___FieldB1f_11deserializeINtNtCslSvSW0ZHiud_10serde_json2de6MapKeyNtNtB2G_4read7StrReadEEBc_
FNDA:0,_RINvXs0_NvXNvNtCskuhifYCSucK_8scanners8arbiscan1__NtBb_23EstimateTimestampResultNtNtCsi2zptu4QhLv_5serde2de11Deserialize11deserializeNtB6_9___VisitorNtB1i_7Visitor9visit_seqINtNtCslSvSW0ZHiud_10serde_json2de9SeqAccessNtNtB2Q_4read7StrReadEEBd_
FNDA:1,_RINvXs0_NvXNvNtCskuhifYCSucK_8scanners8arbiscan1__NtBb_23EstimateTimestampResultNtNtCsi2zptu4QhLv_5serde2de11Deserialize11deserializeNtB6_9___VisitorNtB1i_7Visitor9visit_mapINtNtCslSvSW0ZHiud_10serde_json2de9MapAccessNtNtB2Q_4read7StrReadEEBd_
FNDA:3,_RINvXNvXNvNtCskuhifYCSucK_8scanners8arbiscans_1__NtB8_17EstimateTimestampNtNtCsi2zptu4QhLv_5serde2de11Deserialize11deserializeNtB3_14___FieldVisitorNtB1b_7Visitor9visit_strNtNtCslSvSW0ZHiud_10serde_json5error5ErrorEBa_
FNDA:3,_RINvXs_NvXNvNtCskuhifYCSucK_8scanners8arbiscans_1__NtBa_17EstimateTimestampNtNtCsi2zptu4QhLv_5serde2de11Deserialize11deserializeNtB5_7___FieldB1b_11deserializeINtNtCslSvSW0ZHiud_10serde_json2de6MapKeyNtNtB2C_4read7StrReadEEBc_
FNDA:0,_RINvXs0_NvXNvNtCskuhifYCSucK_8scanners8arbiscans_1__NtBb_17EstimateTimestampNtNtCsi2zptu4QhLv_5serde2de11Deserialize11deserializeNtB6_9___VisitorNtB1e_7Visitor9visit_seqINtNtCslSvSW0ZHiud_10serde_json2de9SeqAccessNtNtB2M_4read7StrReadEEBd_
FNDA:1,_RINvXs0_NvXNvNtCskuhifYCSucK_8scanners8arbiscans_1__NtBb_17EstimateTimestampNtNtCsi2zptu4QhLv_5serde2de11Deserialize11deserializeNtB6_9___VisitorNtB1e_7Visitor9visit_mapINtNtCslSvSW0ZHiud_10serde_json2de9MapAccessNtNtB2M_4read7StrReadEEBd_
FNDA:6,_RINvXNvXNvNtCskuhifYCSucK_8scanners8arbiscans0_1__NtB8_13EstimateBlockNtNtCsi2zptu4QhLv_5serde2de11Deserialize11deserializeNtB3_14___FieldVisitorNtB18_7Visitor9visit_strNtNtCslSvSW0ZHiud_10serde_json5error5ErrorEBa_
FNDA:6,_RINvXs_NvXNvNtCskuhifYCSucK_8scanners8arbiscans0_1__NtBa_13EstimateBlockNtNtCsi2zptu4QhLv_5serde2de11Deserialize11deserializeNtB5_7___FieldB18_11deserializeINtNtCslSvSW0ZHiud_10serde_json2de6MapKeyNtNtB2z_4read7StrReadEEBc_
FNDA:0,_RINvXs0_NvXNvNtCskuhifYCSucK_8scanners8arbiscans0_1__NtBb_13EstimateBlockNtNtCsi2zptu4QhLv_5serde2de11Deserialize11deserializeNtB6_9___VisitorNtB1b_7Visitor9visit_seqINtNtCslSvSW0ZHiud_10serde_json2de9SeqAccessNtNtB2J_4read7StrReadEEBd_
FNDA:2,_RINvXs0_NvXNvNtCskuhifYCSucK_8scanners8arbiscans0_1__NtBb_13EstimateBlockNtNtCsi2zptu4QhLv_5serde2de11Deserialize11deserializeNtB6_9___VisitorNtB1b_7Visitor9visit_mapINtNtCslSvSW0ZHiud_10serde_json2de9MapAccessNtNtB2J_4read7StrReadEEBd_
FNDA:2,_RNvNtCskuhifYCSucK_8scanners8arbiscan18estimate_timestamp
FNDA:2,_RNvNtCskuhifYCSucK_8scanners8arbiscan14estimate_block
FNDA:0,_RNvXs0_NvXNvNtCskuhifYCSucK_8scanners8arbiscan1__NtBa_23EstimateTimestampResultNtNtCsi2zptu4QhLv_5serde2de11Deserialize11deserializeNtB5_9___VisitorNtB1h_7Visitor9expecting
FNDA:0,_RNvXs0_NvXNvNtCskuhifYCSucK_8scanners8arbiscans_1__NtBa_17EstimateTimestampNtNtCsi2zptu4QhLv_5serde2de11Deserialize11deserializeNtB5_9___VisitorNtB1d_7Visitor9expecting
FNDA:0,_RNvXs0_NvXNvNtCskuhifYCSucK_8scanners8arbiscans0_1__NtBa_13EstimateBlockNtNtCsi2zptu4QhLv_5serde2de11Deserialize11deserializeNtB5_9___VisitorNtB1a_7Visitor9expecting
FNDA:1,_RNvNtNtCskuhifYCSucK_8scanners8arbiscan14arbiscan_testss_34test_estimate_timestamp_past_block
FNDA:1,_RNvNtNtCskuhifYCSucK_8scanners8arbiscan14arbiscan_testss_36test_estimate_timestamp_future_block
FNDA:1,_RNvNtNtCskuhifYCSucK_8scanners8arbiscan14arbiscan_testss_19test_estimate_block
FNDA:1,_RNvNtNtCskuhifYCSucK_8scanners8arbiscan14arbiscan_testss_21test_estimate_block_2
FNDA:1,_RNCNvNtNtCskuhifYCSucK_8scanners8arbiscan14arbiscan_testss_34test_estimate_timestamp_past_block0B7_
FNDA:1,_RNCNvNtNtCskuhifYCSucK_8scanners8arbiscan14arbiscan_testss_36test_estimate_timestamp_future_block0B7_
FNDA:1,_RNCNvNtNtCskuhifYCSucK_8scanners8arbiscan14arbiscan_testss_19test_estimate_block0B7_
FNDA:1,_RNCNvNtNtCskuhifYCSucK_8scanners8arbiscan14arbiscan_testss_21test_estimate_block_20B7_
FNF:16
FNH:15
DA:11,5
DA:23,4
DA:30,2
DA:31,2
DA:32,2
DA:34,2
DA:36,12
DA:38,2
DA:39,1
DA:40,1
DA:41,4
DA:42,1
DA:44,1
DA:45,1
DA:46,1
DA:47,1
DA:48,1
DA:49,1
DA:50,1
DA:51,1
DA:52,1
DA:53,1
DA:54,1
DA:56,1
DA:57,1
DA:58,1
DA:59,1
DA:60,1
DA:61,1
DA:62,1
DA:63,6
DA:65,0
DA:66,1
DA:67,1
DA:68,1
DA:69,1
DA:71,1
DA:72,1
DA:74,1
DA:75,1
DA:76,1
DA:78,0
DA:79,0
DA:80,0
DA:81,0
DA:84,0
DA:85,0
DA:86,0
DA:90,2
DA:92,8
DA:99,2
DA:100,2
DA:101,2
DA:102,2
DA:103,2
DA:104,2
DA:105,2
DA:106,2
DA:107,2
DA:109,2
DA:110,2
DA:111,2
DA:112,2
DA:113,2
DA:114,2
DA:115,2
DA:116,12
DA:118,0
DA:119,2
DA:120,2
DA:121,2
DA:122,2
DA:124,2
DA:125,2
DA:126,2
DA:127,2
DA:129,0
DA:130,0
DA:131,0
DA:132,0
DA:135,0
DA:136,0
DA:138,0
DA:140,0
DA:144,2
DA:153,1
DA:154,1
DA:155,1
DA:156,1
DA:157,1
DA:158,10
DA:159,1
DA:160,1
DA:161,1
DA:162,1
DA:163,1
DA:164,1
DA:165,1
DA:168,1
DA:169,1
DA:170,1
DA:171,1
DA:172,1
DA:173,1
DA:174,1
DA:175,6
DA:176,1
DA:177,1
DA:178,13
DA:179,1
DA:180,1
DA:181,1
DA:182,1
DA:183,1
DA:184,1
DA:185,1
DA:188,1
DA:189,1
DA:190,1
DA:191,1
DA:192,1
DA:193,7
DA:194,1
DA:195,1
DA:196,1
DA:197,1
DA:198,1
DA:199,1
DA:202,1
DA:203,1
DA:204,1
DA:205,1
DA:206,1
DA:207,1
DA:208,7
DA:209,1
DA:210,1
DA:211,1
DA:212,1
DA:213,1
DA:214,1
DA:215,1
DA:216,1
DA:217,1
BRF:0
BRH:0
LF:197
LH:176
end_of_record
SF:/Users/andrei/git/proposalsapp/libs/rust/scanners/src/etherscan.rs
FN:11,_RINvXNvXNvNtCsgm4kcKIXEMR_8scanners9etherscan1__NtB8_23EstimateTimestampResultNtNtCsi2zptu4QhLv_5serde2de11Deserialize11deserializeNtB3_14___FieldVisitorNtB1g_7Visitor9visit_strNtNtCslSvSW0ZHiud_10serde_json5error5ErrorECsmdD2PK2ogL_9detective
FN:23,_RINvXNvXNvNtCsgm4kcKIXEMR_8scanners9etherscans_1__NtB8_17EstimateTimestampNtNtCsi2zptu4QhLv_5serde2de11Deserialize11deserializeNtB3_14___FieldVisitorNtB1c_7Visitor9visit_strNtNtCslSvSW0ZHiud_10serde_json5error5ErrorECsmdD2PK2ogL_9detective
FN:11,_RINvXs0_NvXNvNtCsgm4kcKIXEMR_8scanners9etherscan1__NtBb_23EstimateTimestampResultNtNtCsi2zptu4QhLv_5serde2de11Deserialize11deserializeNtB6_9___VisitorNtB1j_7Visitor9visit_mapINtNtCslSvSW0ZHiud_10serde_json2de9MapAccessNtNtB2R_4read7StrReadEECsmdD2PK2ogL_9detective
FN:11,_RINvXs0_NvXNvNtCsgm4kcKIXEMR_8scanners9etherscan1__NtBb_23EstimateTimestampResultNtNtCsi2zptu4QhLv_5serde2de11Deserialize11deserializeNtB6_9___VisitorNtB1j_7Visitor9visit_seqINtNtCslSvSW0ZHiud_10serde_json2de9SeqAccessNtNtB2R_4read7StrReadEECsmdD2PK2ogL_9detective
FN:23,_RINvXs0_NvXNvNtCsgm4kcKIXEMR_8scanners9etherscans_1__NtBb_17EstimateTimestampNtNtCsi2zptu4QhLv_5serde2de11Deserialize11deserializeNtB6_9___VisitorNtB1f_7Visitor9visit_mapINtNtCslSvSW0ZHiud_10serde_json2de9MapAccessNtNtB2N_4read7StrReadEECsmdD2PK2ogL_9detective
FN:23,_RINvXs0_NvXNvNtCsgm4kcKIXEMR_8scanners9etherscans_1__NtBb_17EstimateTimestampNtNtCsi2zptu4QhLv_5serde2de11Deserialize11deserializeNtB6_9___VisitorNtB1f_7Visitor9visit_seqINtNtCslSvSW0ZHiud_10serde_json2de9SeqAccessNtNtB2N_4read7StrReadEECsmdD2PK2ogL_9detective
FN:11,_RINvXs_NvXNvNtCsgm4kcKIXEMR_8scanners9etherscan1__NtBa_23EstimateTimestampResultNtNtCsi2zptu4QhLv_5serde2de11Deserialize11deserializeNtB5_7___FieldB1g_11deserializeINtNtCslSvSW0ZHiud_10serde_json2de6MapKeyNtNtB2H_4read7StrReadEECsmdD2PK2ogL_9detective
FN:23,_RINvXs_NvXNvNtCsgm4kcKIXEMR_8scanners9etherscans_1__NtBa_17EstimateTimestampNtNtCsi2zptu4QhLv_5serde2de11Deserialize11deserializeNtB5_7___FieldB1c_11deserializeINtNtCslSvSW0ZHiud_10serde_json2de6MapKeyNtNtB2D_4read7StrReadEECsmdD2PK2ogL_9detective
FN:42,_RNCNCNvNtCsgm4kcKIXEMR_8scanners9etherscan18estimate_timestamp00CsmdD2PK2ogL_9detective
FN:30,_RNCNvNtCsgm4kcKIXEMR_8scanners9etherscan18estimate_timestamp0CsmdD2PK2ogL_9detective
FN:30,_RNvNtCsgm4kcKIXEMR_8scanners9etherscan18estimate_timestamp
FN:99,_RNvNtCsgm4kcKIXEMR_8scanners9etherscan14estimate_block
FN:11,_RNvXNvXNvNtCsgm4kcKIXEMR_8scanners9etherscan1__NtB7_23EstimateTimestampResultNtNtCsi2zptu4QhLv_5serde2de11Deserialize11deserializeNtB2_14___FieldVisitorNtB1f_7Visitor9expecting
FN:11,_RNvXs0_NvXNvNtCsgm4kcKIXEMR_8scanners9etherscan1__NtBa_23EstimateTimestampResultNtNtCsi2zptu4QhLv_5serde2de11Deserialize11deserializeNtB5_9___VisitorNtB1i_7Visitor9expecting
FN:23,_RNvXNvXNvNtCsgm4kcKIXEMR_8scanners9etherscans_1__NtB7_17EstimateTimestampNtNtCsi2zptu4QhLv_5serde2de11Deserialize11deserializeNtB2_14___FieldVisitorNtB1b_7Visitor9expecting
FN:23,_RNvXs0_NvXNvNtCsgm4kcKIXEMR_8scanners9etherscans_1__NtBa_17EstimateTimestampNtNtCsi2zptu4QhLv_5serde2de11Deserialize11deserializeNtB5_9___VisitorNtB1e_7Visitor9expecting
FN:92,_RNvXNvXNvNtCsgm4kcKIXEMR_8scanners9etherscans0_1__NtB7_13EstimateBlockNtNtCsi2zptu4QhLv_5serde2de11Deserialize11deserializeNtB2_14___FieldVisitorNtB18_7Visitor9expecting
FN:92,_RNvXs0_NvXNvNtCsgm4kcKIXEMR_8scanners9etherscans0_1__NtBa_13EstimateBlockNtNtCsi2zptu4QhLv_5serde2de11Deserialize11deserializeNtB5_9___VisitorNtB1b_7Visitor9expecting
FN:11,_RNvXNvXNvNtCskuhifYCSucK_8scanners9etherscan1__NtB7_23EstimateTimestampResultNtNtCsi2zptu4QhLv_5serde2de11Deserialize11deserializeNtB2_14___FieldVisitorNtB1f_7Visitor9expecting
FN:11,_RINvXNvXNvNtCskuhifYCSucK_8scanners9etherscan1__NtB8_23EstimateTimestampResultNtNtCsi2zptu4QhLv_5serde2de11Deserialize11deserializeNtB3_14___FieldVisitorNtB1g_7Visitor9visit_u64pEBa_
FN:11,_RINvXNvXNvNtCskuhifYCSucK_8scanners9etherscan1__NtB8_23EstimateTimestampResultNtNtCsi2zptu4QhLv_5serde2de11Deserialize11deserializeNtB3_14___FieldVisitorNtB1g_7Visitor11visit_bytespEBa_
FN:23,_RNvXNvXNvNtCskuhifYCSucK_8scanners9etherscans_1__NtB7_17EstimateTimestampNtNtCsi2zptu4QhLv_5serde2de11Deserialize11deserializeNtB2_14___FieldVisitorNtB1b_7Visitor9expecting
FN:23,_RINvXNvXNvNtCskuhifYCSucK_8scanners9etherscans_1__NtB8_17EstimateTimestampNtNtCsi2zptu4QhLv_5serde2de11Deserialize11deserializeNtB3_14___FieldVisitorNtB1c_7Visitor9visit_u64pEBa_
FN:23,_RINvXNvXNvNtCskuhifYCSucK_8scanners9etherscans_1__NtB8_17EstimateTimestampNtNtCsi2zptu4QhLv_5serde2de11Deserialize11deserializeNtB3_14___FieldVisitorNtB1c_7Visitor11visit_bytespEBa_
FN:92,_RNvXNvXNvNtCskuhifYCSucK_8scanners9etherscans0_1__NtB7_13EstimateBlockNtNtCsi2zptu4QhLv_5serde2de11Deserialize11deserializeNtB2_14___FieldVisitorNtB18_7Visitor9expecting
FN:92,_RINvXNvXNvNtCskuhifYCSucK_8scanners9etherscans0_1__NtB8_13EstimateBlockNtNtCsi2zptu4QhLv_5serde2de11Deserialize11deserializeNtB3_14___FieldVisitorNtB19_7Visitor9visit_u64pEBa_
FN:92,_RINvXNvXNvNtCskuhifYCSucK_8scanners9etherscans0_1__NtB8_13EstimateBlockNtNtCsi2zptu4QhLv_5serde2de11Deserialize11deserializeNtB3_14___FieldVisitorNtB19_7Visitor11visit_bytespEBa_
FN:153,_RNCNvNtNtCskuhifYCSucK_8scanners9etherscan15etherscan_testss_34test_estimate_timestamp_past_block0B7_
FN:168,_RNCNvNtNtCskuhifYCSucK_8scanners9etherscan15etherscan_testss_36test_estimate_timestamp_future_block0B7_
FN:189,_RNCNvNtNtCskuhifYCSucK_8scanners9etherscan15etherscan_testss_19test_estimate_block0B7_
FN:203,_RNCNvNtNtCskuhifYCSucK_8scanners9etherscan15etherscan_testss_21test_estimate_block_20B7_
FN:30,_RNCNvNtCskuhifYCSucK_8scanners9etherscan18estimate_timestamp0B5_
FN:42,_RNCNCNvNtCskuhifYCSucK_8scanners9etherscan18estimate_timestamp00B7_
FN:99,_RNCNvNtCskuhifYCSucK_8scanners9etherscan14estimate_block0B5_
FN:11,_RINvXNvXNvNtCskuhifYCSucK_8scanners9etherscan1__NtB8_23EstimateTimestampResultNtNtCsi2zptu4QhLv_5serde2de11Deserialize11deserializeNtB3_14___FieldVisitorNtB1g_7Visitor9visit_strNtNtCslSvSW0ZHiud_10serde_json5error5ErrorEBa_
FN:11,_RINvXs_NvXNvNtCskuhifYCSucK_8scanners9etherscan1__NtBa_23EstimateTimestampResultNtNtCsi2zptu4QhLv_5serde2de11Deserialize11deserializeNtB5_7___FieldB1g_11deserializeINtNtCslSvSW0ZHiud_10serde_json2de6MapKeyNtNtB2H_4read7StrReadEEBc_
FN:11,_RINvXs0_NvXNvNtCskuhifYCSucK_8scanners9etherscan1__NtBb_23EstimateTimestampResultNtNtCsi2zptu4QhLv_5serde2de11Deserialize11deserializeNtB6_9___VisitorNtB1j_7Visitor9visit_seqINtNtCslSvSW0ZHiud_10serde_json2de9SeqAccessNtNtB2R_4read7StrReadEEBd_
FN:11,_RINvXs0_NvXNvNtCskuhifYCSucK_8scanners9etherscan1__NtBb_23EstimateTimestampResultNtNtCsi2zptu4QhLv_5serde2de11Deserialize11deserializeNtB6_9___VisitorNtB1j_7Visitor9visit_mapINtNtCslSvSW0ZHiud_10serde_json2de9MapAccessNtNtB2R_4read7StrReadEEBd_
FN:23,_RINvXNvXNvNtCskuhifYCSucK_8scanners9etherscans_1__NtB8_17EstimateTimestampNtNtCsi2zptu4QhLv_5serde2de11Deserialize11deserializeNtB3_14___FieldVisitorNtB1c_7Visitor9visit_strNtNtCslSvSW0ZHiud_10serde_json5error5ErrorEBa_
FN:23,_RINvXs_NvXNvNtCskuhifYCSucK_8scanners9etherscans_1__NtBa_17EstimateTimestampNtNtCsi2zptu4QhLv_5serde2de11Deserialize11deserializeNtB5_7___FieldB1c_11deserializeINtNtCslSvSW0ZHiud_10serde_json2de6MapKeyNtNtB2D_4read7StrReadEEBc_
FN:23,_RINvXs0_NvXNvNtCskuhifYCSucK_8scanners9etherscans_1__NtBb_17EstimateTimestampNtNtCsi2zptu4QhLv_5serde2de11Deserialize11deserializeNtB6_9___VisitorNtB1f_7Visitor9visit_seqINtNtCslSvSW0ZHiud_10serde_json2de9SeqAccessNtNtB2N_4read7StrReadEEBd_
FN:23,_RINvXs0_NvXNvNtCskuhifYCSucK_8scanners9etherscans_1__NtBb_17EstimateTimestampNtNtCsi2zptu4QhLv_5serde2de11Deserialize11deserializeNtB6_9___VisitorNtB1f_7Visitor9visit_mapINtNtCslSvSW0ZHiud_10serde_json2de9MapAccessNtNtB2N_4read7StrReadEEBd_
FN:92,_RINvXNvXNvNtCskuhifYCSucK_8scanners9etherscans0_1__NtB8_13EstimateBlockNtNtCsi2zptu4QhLv_5serde2de11Deserialize11deserializeNtB3_14___FieldVisitorNtB19_7Visitor9visit_strNtNtCslSvSW0ZHiud_10serde_json5error5ErrorEBa_
FN:92,_RINvXs_NvXNvNtCskuhifYCSucK_8scanners9etherscans0_1__NtBa_13EstimateBlockNtNtCsi2zptu4QhLv_5serde2de11Deserialize11deserializeNtB5_7___FieldB19_11deserializeINtNtCslSvSW0ZHiud_10serde_json2de6MapKeyNtNtB2A_4read7StrReadEEBc_
FN:92,_RINvXs0_NvXNvNtCskuhifYCSucK_8scanners9etherscans0_1__NtBb_13EstimateBlockNtNtCsi2zptu4QhLv_5serde2de11Deserialize11deserializeNtB6_9___VisitorNtB1c_7Visitor9visit_seqINtNtCslSvSW0ZHiud_10serde_json2de9SeqAccessNtNtB2K_4read7StrReadEEBd_
FN:92,_RINvXs0_NvXNvNtCskuhifYCSucK_8scanners9etherscans0_1__NtBb_13EstimateBlockNtNtCsi2zptu4QhLv_5serde2de11Deserialize11deserializeNtB6_9___VisitorNtB1c_7Visitor9visit_mapINtNtCslSvSW0ZHiud_10serde_json2de9MapAccessNtNtB2K_4read7StrReadEEBd_
FN:30,_RNvNtCskuhifYCSucK_8scanners9etherscan18estimate_timestamp
FN:99,_RNvNtCskuhifYCSucK_8scanners9etherscan14estimate_block
FN:11,_RNvXs0_NvXNvNtCskuhifYCSucK_8scanners9etherscan1__NtBa_23EstimateTimestampResultNtNtCsi2zptu4QhLv_5serde2de11Deserialize11deserializeNtB5_9___VisitorNtB1i_7Visitor9expecting
FN:23,_RNvXs0_NvXNvNtCskuhifYCSucK_8scanners9etherscans_1__NtBa_17EstimateTimestampNtNtCsi2zptu4QhLv_5serde2de11Deserialize11deserializeNtB5_9___VisitorNtB1e_7Visitor9expecting
FN:92,_RNvXs0_NvXNvNtCskuhifYCSucK_8scanners9etherscans0_1__NtBa_13EstimateBlockNtNtCsi2zptu4QhLv_5serde2de11Deserialize11deserializeNtB5_9___VisitorNtB1b_7Visitor9expecting
FN:153,_RNvNtNtCskuhifYCSucK_8scanners9etherscan15etherscan_testss_34test_estimate_timestamp_past_block
FN:168,_RNvNtNtCskuhifYCSucK_8scanners9etherscan15etherscan_testss_36test_estimate_timestamp_future_block
FN:189,_RNvNtNtCskuhifYCSucK_8scanners9etherscan15etherscan_testss_19test_estimate_block
FN:203,_RNvNtNtCskuhifYCSucK_8scanners9etherscan15etherscan_testss_21test_estimate_block_2
FNDA:0,_RINvXNvXNvNtCsgm4kcKIXEMR_8scanners9etherscan1__NtB8_23EstimateTimestampResultNtNtCsi2zptu4QhLv_5serde2de11Deserialize11deserializeNtB3_14___FieldVisitorNtB1g_7Visitor9visit_strNtNtCslSvSW0ZHiud_10serde_json5error5ErrorECsmdD2PK2ogL_9detective
FNDA:0,_RINvXNvXNvNtCsgm4kcKIXEMR_8scanners9etherscans_1__NtB8_17EstimateTimestampNtNtCsi2zptu4QhLv_5serde2de11Deserialize11deserializeNtB3_14___FieldVisitorNtB1c_7Visitor9visit_strNtNtCslSvSW0ZHiud_10serde_json5error5ErrorECsmdD2PK2ogL_9detective
FNDA:0,_RINvXs0_NvXNvNtCsgm4kcKIXEMR_8scanners9etherscan1__NtBb_23EstimateTimestampResultNtNtCsi2zptu4QhLv_5serde2de11Deserialize11deserializeNtB6_9___VisitorNtB1j_7Visitor9visit_mapINtNtCslSvSW0ZHiud_10serde_json2de9MapAccessNtNtB2R_4read7StrReadEECsmdD2PK2ogL_9detective
FNDA:0,_RINvXs0_NvXNvNtCsgm4kcKIXEMR_8scanners9etherscan1__NtBb_23EstimateTimestampResultNtNtCsi2zptu4QhLv_5serde2de11Deserialize11deserializeNtB6_9___VisitorNtB1j_7Visitor9visit_seqINtNtCslSvSW0ZHiud_10serde_json2de9SeqAccessNtNtB2R_4read7StrReadEECsmdD2PK2ogL_9detective
FNDA:0,_RINvXs0_NvXNvNtCsgm4kcKIXEMR_8scanners9etherscans_1__NtBb_17EstimateTimestampNtNtCsi2zptu4QhLv_5serde2de11Deserialize11deserializeNtB6_9___VisitorNtB1f_7Visitor9visit_mapINtNtCslSvSW0ZHiud_10serde_json2de9MapAccessNtNtB2N_4read7StrReadEECsmdD2PK2ogL_9detective
FNDA:0,_RINvXs0_NvXNvNtCsgm4kcKIXEMR_8scanners9etherscans_1__NtBb_17EstimateTimestampNtNtCsi2zptu4QhLv_5serde2de11Deserialize11deserializeNtB6_9___VisitorNtB1f_7Visitor9visit_seqINtNtCslSvSW0ZHiud_10serde_json2de9SeqAccessNtNtB2N_4read7StrReadEECsmdD2PK2ogL_9detective
FNDA:0,_RINvXs_NvXNvNtCsgm4kcKIXEMR_8scanners9etherscan1__NtBa_23EstimateTimestampResultNtNtCsi2zptu4QhLv_5serde2de11Deserialize11deserializeNtB5_7___FieldB1g_11deserializeINtNtCslSvSW0ZHiud_10serde_json2de6MapKeyNtNtB2H_4read7StrReadEECsmdD2PK2ogL_9detective
FNDA:0,_RINvXs_NvXNvNtCsgm4kcKIXEMR_8scanners9etherscans_1__NtBa_17EstimateTimestampNtNtCsi2zptu4QhLv_5serde2de11Deserialize11deserializeNtB5_7___FieldB1c_11deserializeINtNtCslSvSW0ZHiud_10serde_json2de6MapKeyNtNtB2D_4read7StrReadEECsmdD2PK2ogL_9detective
FNDA:0,_RNCNCNvNtCsgm4kcKIXEMR_8scanners9etherscan18estimate_timestamp00CsmdD2PK2ogL_9detective
FNDA:44,_RNCNvNtCsgm4kcKIXEMR_8scanners9etherscan18estimate_timestamp0CsmdD2PK2ogL_9detective
FNDA:44,_RNvNtCsgm4kcKIXEMR_8scanners9etherscan18estimate_timestamp
FNDA:0,_RNvNtCsgm4kcKIXEMR_8scanners9etherscan14estimate_block
FNDA:0,_RNvXNvXNvNtCsgm4kcKIXEMR_8scanners9etherscan1__NtB7_23EstimateTimestampResultNtNtCsi2zptu4QhLv_5serde2de11Deserialize11deserializeNtB2_14___FieldVisitorNtB1f_7Visitor9expecting
FNDA:0,_RNvXs0_NvXNvNtCsgm4kcKIXEMR_8scanners9etherscan1__NtBa_23EstimateTimestampResultNtNtCsi2zptu4QhLv_5serde2de11Deserialize11deserializeNtB5_9___VisitorNtB1i_7Visitor9expecting
FNDA:0,_RNvXNvXNvNtCsgm4kcKIXEMR_8scanners9etherscans_1__NtB7_17EstimateTimestampNtNtCsi2zptu4QhLv_5serde2de11Deserialize11deserializeNtB2_14___FieldVisitorNtB1b_7Visitor9expecting
FNDA:0,_RNvXs0_NvXNvNtCsgm4kcKIXEMR_8scanners9etherscans_1__NtBa_17EstimateTimestampNtNtCsi2zptu4QhLv_5serde2de11Deserialize11deserializeNtB5_9___VisitorNtB1e_7Visitor9expecting
FNDA:0,_RNvXNvXNvNtCsgm4kcKIXEMR_8scanners9etherscans0_1__NtB7_13EstimateBlockNtNtCsi2zptu4QhLv_5serde2de11Deserialize11deserializeNtB2_14___FieldVisitorNtB18_7Visitor9expecting
FNDA:0,_RNvXs0_NvXNvNtCsgm4kcKIXEMR_8scanners9etherscans0_1__NtBa_13EstimateBlockNtNtCsi2zptu4QhLv_5serde2de11Deserialize11deserializeNtB5_9___VisitorNtB1b_7Visitor9expecting
FNDA:0,_RNvXNvXNvNtCskuhifYCSucK_8scanners9etherscan1__NtB7_23EstimateTimestampResultNtNtCsi2zptu4QhLv_5serde2de11Deserialize11deserializeNtB2_14___FieldVisitorNtB1f_7Visitor9expecting
FNDA:0,_RINvXNvXNvNtCskuhifYCSucK_8scanners9etherscan1__NtB8_23EstimateTimestampResultNtNtCsi2zptu4QhLv_5serde2de11Deserialize11deserializeNtB3_14___FieldVisitorNtB1g_7Visitor9visit_u64pEBa_
FNDA:0,_RINvXNvXNvNtCskuhifYCSucK_8scanners9etherscan1__NtB8_23EstimateTimestampResultNtNtCsi2zptu4QhLv_5serde2de11Deserialize11deserializeNtB3_14___FieldVisitorNtB1g_7Visitor11visit_bytespEBa_
FNDA:0,_RNvXNvXNvNtCskuhifYCSucK_8scanners9etherscans_1__NtB7_17EstimateTimestampNtNtCsi2zptu4QhLv_5serde2de11Deserialize11deserializeNtB2_14___FieldVisitorNtB1b_7Visitor9expecting
FNDA:0,_RINvXNvXNvNtCskuhifYCSucK_8scanners9etherscans_1__NtB8_17EstimateTimestampNtNtCsi2zptu4QhLv_5serde2de11Deserialize11deserializeNtB3_14___FieldVisitorNtB1c_7Visitor9visit_u64pEBa_
FNDA:0,_RINvXNvXNvNtCskuhifYCSucK_8scanners9etherscans_1__NtB8_17EstimateTimestampNtNtCsi2zptu4QhLv_5serde2de11Deserialize11deserializeNtB3_14___FieldVisitorNtB1c_7Visitor11visit_bytespEBa_
FNDA:0,_RNvXNvXNvNtCskuhifYCSucK_8scanners9etherscans0_1__NtB7_13EstimateBlockNtNtCsi2zptu4QhLv_5serde2de11Deserialize11deserializeNtB2_14___FieldVisitorNtB18_7Visitor9expecting
FNDA:0,_RINvXNvXNvNtCskuhifYCSucK_8scanners9etherscans0_1__NtB8_13EstimateBlockNtNtCsi2zptu4QhLv_5serde2de11Deserialize11deserializeNtB3_14___FieldVisitorNtB19_7Visitor9visit_u64pEBa_
FNDA:0,_RINvXNvXNvNtCskuhifYCSucK_8scanners9etherscans0_1__NtB8_13EstimateBlockNtNtCsi2zptu4QhLv_5serde2de11Deserialize11deserializeNtB3_14___FieldVisitorNtB19_7Visitor11visit_bytespEBa_
FNDA:1,_RNCNvNtNtCskuhifYCSucK_8scanners9etherscan15etherscan_testss_34test_estimate_timestamp_past_block0B7_
FNDA:1,_RNCNvNtNtCskuhifYCSucK_8scanners9etherscan15etherscan_testss_36test_estimate_timestamp_future_block0B7_
FNDA:1,_RNCNvNtNtCskuhifYCSucK_8scanners9etherscan15etherscan_testss_19test_estimate_block0B7_
FNDA:1,_RNCNvNtNtCskuhifYCSucK_8scanners9etherscan15etherscan_testss_21test_estimate_block_20B7_
FNDA:2,_RNCNvNtCskuhifYCSucK_8scanners9etherscan18estimate_timestamp0B5_
FNDA:0,_RNCNCNvNtCskuhifYCSucK_8scanners9etherscan18estimate_timestamp00B7_
FNDA:2,_RNCNvNtCskuhifYCSucK_8scanners9etherscan14estimate_block0B5_
FNDA:4,_RINvXNvXNvNtCskuhifYCSucK_8scanners9etherscan1__NtB8_23EstimateTimestampResultNtNtCsi2zptu4QhLv_5serde2de11Deserialize11deserializeNtB3_14___FieldVisitorNtB1g_7Visitor9visit_strNtNtCslSvSW0ZHiud_10serde_json5error5ErrorEBa_
FNDA:4,_RINvXs_NvXNvNtCskuhifYCSucK_8scanners9etherscan1__NtBa_23EstimateTimestampResultNtNtCsi2zptu4QhLv_5serde2de11Deserialize11deserializeNtB5_7___FieldB1g_11deserializeINtNtCslSvSW0ZHiud_10serde_json2de6MapKeyNtNtB2H_4read7StrReadEEBc_
FNDA:0,_RINvXs0_NvXNvNtCskuhifYCSucK_8scanners9etherscan1__NtBb_23EstimateTimestampResultNtNtCsi2zptu4QhLv_5serde2de11Deserialize11deserializeNtB6_9___VisitorNtB1j_7Visitor9visit_seqINtNtCslSvSW0ZHiud_10serde_json2de9SeqAccessNtNtB2R_4read7StrReadEEBd_
FNDA:1,_RINvXs0_NvXNvNtCskuhifYCSucK_8scanners9etherscan1__NtBb_23EstimateTimestampResultNtNtCsi2zptu4QhLv_5serde2de11Deserialize11deserializeNtB6_9___VisitorNtB1j_7Visitor9visit_mapINtNtCslSvSW0ZHiud_10serde_json2de9MapAccessNtNtB2R_4read7StrReadEEBd_
FNDA:3,_RINvXNvXNvNtCskuhifYCSucK_8scanners9etherscans_1__NtB8_17EstimateTimestampNtNtCsi2zptu4QhLv_5serde2de11Deserialize11deserializeNtB3_14___FieldVisitorNtB1c_7Visitor9visit_strNtNtCslSvSW0ZHiud_10serde_json5error5ErrorEBa_
FNDA:3,_RINvXs_NvXNvNtCskuhifYCSucK_8scanners9etherscans_1__NtBa_17EstimateTimestampNtNtCsi2zptu4QhLv_5serde2de11Deserialize11deserializeNtB5_7___FieldB1c_11deserializeINtNtCslSvSW0ZHiud_10serde_json2de6MapKeyNtNtB2D_4read7StrReadEEBc_
FNDA:0,_RINvXs0_NvXNvNtCskuhifYCSucK_8scanners9etherscans_1__NtBb_17EstimateTimestampNtNtCsi2zptu4QhLv_5serde2de11Deserialize11deserializeNtB6_9___VisitorNtB1f_7Visitor9visit_seqINtNtCslSvSW0ZHiud_10serde_json2de9SeqAccessNtNtB2N_4read7StrReadEEBd_
FNDA:1,_RINvXs0_NvXNvNtCskuhifYCSucK_8scanners9etherscans_1__NtBb_17EstimateTimestampNtNtCsi2zptu4QhLv_5serde2de11Deserialize11deserializeNtB6_9___VisitorNtB1f_7Visitor9visit_mapINtNtCslSvSW0ZHiud_10serde_json2de9MapAccessNtNtB2N_4read7StrReadEEBd_
FNDA:6,_RINvXNvXNvNtCskuhifYCSucK_8scanners9etherscans0_1__NtB8_13EstimateBlockNtNtCsi2zptu4QhLv_5serde2de11Deserialize11deserializeNtB3_14___FieldVisitorNtB19_7Visitor9visit_strNtNtCslSvSW0ZHiud_10serde_json5error5ErrorEBa_
FNDA:6,_RINvXs_NvXNvNtCskuhifYCSucK_8scanners9etherscans0_1__NtBa_13EstimateBlockNtNtCsi2zptu4QhLv_5serde2de11Deserialize11deserializeNtB5_7___FieldB19_11deserializeINtNtCslSvSW0ZHiud_10serde_json2de6MapKeyNtNtB2A_4read7StrReadEEBc_
FNDA:0,_RINvXs0_NvXNvNtCskuhifYCSucK_8scanners9etherscans0_1__NtBb_13EstimateBlockNtNtCsi2zptu4QhLv_5serde2de11Deserialize11deserializeNtB6_9___VisitorNtB1c_7Visitor9visit_seqINtNtCslSvSW0ZHiud_10serde_json2de9SeqAccessNtNtB2K_4read7StrReadEEBd_
FNDA:2,_RINvXs0_NvXNvNtCskuhifYCSucK_8scanners9etherscans0_1__NtBb_13EstimateBlockNtNtCsi2zptu4QhLv_5serde2de11Deserialize11deserializeNtB6_9___VisitorNtB1c_7Visitor9visit_mapINtNtCslSvSW0ZHiud_10serde_json2de9MapAccessNtNtB2K_4read7StrReadEEBd_
FNDA:2,_RNvNtCskuhifYCSucK_8scanners9etherscan18estimate_timestamp
FNDA:2,_RNvNtCskuhifYCSucK_8scanners9etherscan14estimate_block
FNDA:0,_RNvXs0_NvXNvNtCskuhifYCSucK_8scanners9etherscan1__NtBa_23EstimateTimestampResultNtNtCsi2zptu4QhLv_5serde2de11Deserialize11deserializeNtB5_9___VisitorNtB1i_7Visitor9expecting
FNDA:0,_RNvXs0_NvXNvNtCskuhifYCSucK_8scanners9etherscans_1__NtBa_17EstimateTimestampNtNtCsi2zptu4QhLv_5serde2de11Deserialize11deserializeNtB5_9___VisitorNtB1e_7Visitor9expecting
FNDA:0,_RNvXs0_NvXNvNtCskuhifYCSucK_8scanners9etherscans0_1__NtBa_13EstimateBlockNtNtCsi2zptu4QhLv_5serde2de11Deserialize11deserializeNtB5_9___VisitorNtB1b_7Visitor9expecting
FNDA:1,_RNvNtNtCskuhifYCSucK_8scanners9etherscan15etherscan_testss_34test_estimate_timestamp_past_block
FNDA:1,_RNvNtNtCskuhifYCSucK_8scanners9etherscan15etherscan_testss_36test_estimate_timestamp_future_block
FNDA:1,_RNvNtNtCskuhifYCSucK_8scanners9etherscan15etherscan_testss_19test_estimate_block
FNDA:1,_RNvNtNtCskuhifYCSucK_8scanners9etherscan15etherscan_testss_21test_estimate_block_2
FNF:16
FNH:15
DA:11,5
DA:23,4
DA:30,46
DA:31,46
DA:32,46
DA:34,46
DA:36,279
DA:38,46
DA:39,45
DA:40,45
DA:41,3655
DA:42,45
DA:44,45
DA:45,45
DA:46,45
DA:47,1
DA:48,1
DA:49,1
DA:50,1
DA:51,1
DA:52,1
DA:53,1
DA:54,1
DA:56,1
DA:57,1
DA:58,1
DA:59,1
DA:60,1
DA:61,1
DA:62,1
DA:63,6
DA:65,0
DA:66,1
DA:67,1
DA:68,1
DA:69,1
DA:71,1
DA:72,1
DA:74,1
DA:75,1
DA:76,1
DA:78,0
DA:79,0
DA:80,0
DA:81,0
DA:84,0
DA:85,0
DA:86,0
DA:90,46
DA:92,8
DA:99,2
DA:100,2
DA:102,2
DA:103,2
DA:104,2
DA:105,2
DA:106,2
DA:107,2
DA:109,2
DA:110,2
DA:111,2
DA:112,2
DA:113,2
DA:114,2
DA:115,2
DA:116,13
DA:118,0
DA:119,2
DA:120,2
DA:121,2
DA:122,2
DA:124,2
DA:125,2
DA:126,2
DA:127,2
DA:129,0
DA:130,0
DA:131,0
DA:132,0
DA:135,0
DA:136,0
DA:138,0
DA:140,0
DA:144,2
DA:153,1
DA:154,1
DA:155,1
DA:156,1
DA:157,1
DA:158,80
DA:159,1
DA:160,1
DA:161,1
DA:162,1
DA:163,1
DA:164,1
DA:165,1
DA:168,1
DA:169,1
DA:170,1
DA:171,1
DA:172,1
DA:173,1
DA:174,1
DA:175,6
DA:176,1
DA:177,1
DA:178,1
DA:179,12
DA:180,1
DA:181,1
DA:182,1
DA:183,1
DA:184,1
DA:185,1
DA:186,1
DA:189,1
DA:190,1
DA:191,1
DA:192,1
DA:193,1
DA:194,6
DA:195,1
DA:196,1
DA:197,1
DA:198,1
DA:199,1
DA:200,1
DA:203,1
DA:204,1
DA:205,1
DA:206,1
DA:207,1
DA:208,1
DA:209,7
DA:210,1
DA:211,1
DA:212,1
DA:213,1
DA:214,1
DA:215,1
DA:216,1
DA:217,1
DA:218,1
BRF:0
BRH:0
LF:197
LH:176
end_of_record
SF:/Users/andrei/git/proposalsapp/libs/rust/scanners/src/optimistic_scan.rs
FN:11,_RINvXNvXNvNtCsgm4kcKIXEMR_8scanners15optimistic_scan1__NtB8_23EstimateTimestampResultNtNtCsi2zptu4QhLv_5serde2de11Deserialize11deserializeNtB3_14___FieldVisitorNtB1n_7Visitor9visit_strNtNtCslSvSW0ZHiud_10serde_json5error5ErrorECsmdD2PK2ogL_9detective
FN:23,_RINvXNvXNvNtCsgm4kcKIXEMR_8scanners15optimistic_scans_1__NtB8_17EstimateTimestampNtNtCsi2zptu4QhLv_5serde2de11Deserialize11deserializeNtB3_14___FieldVisitorNtB1j_7Visitor9visit_strNtNtCslSvSW0ZHiud_10serde_json5error5ErrorECsmdD2PK2ogL_9detective
FN:11,_RINvXs0_NvXNvNtCsgm4kcKIXEMR_8scanners15optimistic_scan1__NtBb_23EstimateTimestampResultNtNtCsi2zptu4QhLv_5serde2de11Deserialize11deserializeNtB6_9___VisitorNtB1q_7Visitor9visit_mapINtNtCslSvSW0ZHiud_10serde_json2de9MapAccessNtNtB2Y_4read7StrReadEECsmdD2PK2ogL_9detective
FN:11,_RINvXs0_NvXNvNtCsgm4kcKIXEMR_8scanners15optimistic_scan1__NtBb_23EstimateTimestampResultNtNtCsi2zptu4QhLv_5serde2de11Deserialize11deserializeNtB6_9___VisitorNtB1q_7Visitor9visit_seqINtNtCslSvSW0ZHiud_10serde_json2de9SeqAccessNtNtB2Y_4read7StrReadEECsmdD2PK2ogL_9detective
FN:23,_RINvXs0_NvXNvNtCsgm4kcKIXEMR_8scanners15optimistic_scans_1__NtBb_17EstimateTimestampNtNtCsi2zptu4QhLv_5serde2de11Deserialize11deserializeNtB6_9___VisitorNtB1m_7Visitor9visit_mapINtNtCslSvSW0ZHiud_10serde_json2de9MapAccessNtNtB2U_4read7StrReadEECsmdD2PK2ogL_9detective
FN:23,_RINvXs0_NvXNvNtCsgm4kcKIXEMR_8scanners15optimistic_scans_1__NtBb_17EstimateTimestampNtNtCsi2zptu4QhLv_5serde2de11Deserialize11deserializeNtB6_9___VisitorNtB1m_7Visitor9visit_seqINtNtCslSvSW0ZHiud_10serde_json2de9SeqAccessNtNtB2U_4read7StrReadEECsmdD2PK2ogL_9detective
FN:11,_RINvXs_NvXNvNtCsgm4kcKIXEMR_8scanners15optimistic_scan1__NtBa_23EstimateTimestampResultNtNtCsi2zptu4QhLv_5serde2de11Deserialize11deserializeNtB5_7___FieldB1n_11deserializeINtNtCslSvSW0ZHiud_10serde_json2de6MapKeyNtNtB2O_4read7StrReadEECsmdD2PK2ogL_9detective
FN:23,_RINvXs_NvXNvNtCsgm4kcKIXEMR_8scanners15optimistic_scans_1__NtBa_17EstimateTimestampNtNtCsi2zptu4QhLv_5serde2de11Deserialize11deserializeNtB5_7___FieldB1j_11deserializeINtNtCslSvSW0ZHiud_10serde_json2de6MapKeyNtNtB2K_4read7StrReadEECsmdD2PK2ogL_9detective
FN:42,_RNCNCNvNtCsgm4kcKIXEMR_8scanners15optimistic_scan18estimate_timestamp00CsmdD2PK2ogL_9detective
FN:30,_RNCNvNtCsgm4kcKIXEMR_8scanners15optimistic_scan18estimate_timestamp0CsmdD2PK2ogL_9detective
FN:30,_RNvNtCsgm4kcKIXEMR_8scanners15optimistic_scan18estimate_timestamp
FN:99,_RNvNtCsgm4kcKIXEMR_8scanners15optimistic_scan14estimate_block
FN:11,_RNvXNvXNvNtCsgm4kcKIXEMR_8scanners15optimistic_scan1__NtB7_23EstimateTimestampResultNtNtCsi2zptu4QhLv_5serde2de11Deserialize11deserializeNtB2_14___FieldVisitorNtB1m_7Visitor9expecting
FN:11,_RNvXs0_NvXNvNtCsgm4kcKIXEMR_8scanners15optimistic_scan1__NtBa_23EstimateTimestampResultNtNtCsi2zptu4QhLv_5serde2de11Deserialize11deserializeNtB5_9___VisitorNtB1p_7Visitor9expecting
FN:23,_RNvXNvXNvNtCsgm4kcKIXEMR_8scanners15optimistic_scans_1__NtB7_17EstimateTimestampNtNtCsi2zptu4QhLv_5serde2de11Deserialize11deserializeNtB2_14___FieldVisitorNtB1i_7Visitor9expecting
FN:23,_RNvXs0_NvXNvNtCsgm4kcKIXEMR_8scanners15optimistic_scans_1__NtBa_17EstimateTimestampNtNtCsi2zptu4QhLv_5serde2de11Deserialize11deserializeNtB5_9___VisitorNtB1l_7Visitor9expecting
FN:92,_RNvXNvXNvNtCsgm4kcKIXEMR_8scanners15optimistic_scans0_1__NtB7_13EstimateBlockNtNtCsi2zptu4QhLv_5serde2de11Deserialize11deserializeNtB2_14___FieldVisitorNtB1f_7Visitor9expecting
FN:92,_RNvXs0_NvXNvNtCsgm4kcKIXEMR_8scanners15optimistic_scans0_1__NtBa_13EstimateBlockNtNtCsi2zptu4QhLv_5serde2de11Deserialize11deserializeNtB5_9___VisitorNtB1i_7Visitor9expecting
FN:11,_RNvXNvXNvNtCskuhifYCSucK_8scanners15optimistic_scan1__NtB7_23EstimateTimestampResultNtNtCsi2zptu4QhLv_5serde2de11Deserialize11deserializeNtB2_14___FieldVisitorNtB1m_7Visitor9expecting
FN:11,_RINvXNvXNvNtCskuhifYCSucK_8scanners15optimistic_scan1__NtB8_23EstimateTimestampResultNtNtCsi2zptu4QhLv_5serde2de11Deserialize11deserializeNtB3_14___FieldVisitorNtB1n_7Visitor9visit_u64pEBa_
FN:11,_RINvXNvXNvNtCskuhifYCSucK_8scanners15optimistic_scan1__NtB8_23EstimateTimestampResultNtNtCsi2zptu4QhLv_5serde2de11Deserialize11deserializeNtB3_14___FieldVisitorNtB1n_7Visitor11visit_bytespEBa_
FN:23,_RNvXNvXNvNtCskuhifYCSucK_8scanners15optimistic_scans_1__NtB7_17EstimateTimestampNtNtCsi2zptu4QhLv_5serde2de11Deserialize11deserializeNtB2_14___FieldVisitorNtB1i_7Visitor9expecting
FN:23,_RINvXNvXNvNtCskuhifYCSucK_8scanners15optimistic_scans_1__NtB8_17EstimateTimestampNtNtCsi2zptu4QhLv_5serde2de11Deserialize11deserializeNtB3_14___FieldVisitorNtB1j_7Visitor9visit_u64pEBa_
FN:23,_RINvXNvXNvNtCskuhifYCSucK_8scanners15optimistic_scans_1__NtB8_17EstimateTimestampNtNtCsi2zptu4QhLv_5serde2de11Deserialize11deserializeNtB3_14___FieldVisitorNtB1j_7Visitor11visit_bytespEBa_
FN:92,_RNvXNvXNvNtCskuhifYCSucK_8scanners15optimistic_scans0_1__NtB7_13EstimateBlockNtNtCsi2zptu4QhLv_5serde2de11Deserialize11deserializeNtB2_14___FieldVisitorNtB1f_7Visitor9expecting
FN:92,_RINvXNvXNvNtCskuhifYCSucK_8scanners15optimistic_scans0_1__NtB8_13EstimateBlockNtNtCsi2zptu4QhLv_5serde2de11Deserialize11deserializeNtB3_14___FieldVisitorNtB1g_7Visitor9visit_u64pEBa_
FN:92,_RINvXNvXNvNtCskuhifYCSucK_8scanners15optimistic_scans0_1__NtB8_13EstimateBlockNtNtCsi2zptu4QhLv_5serde2de11Deserialize11deserializeNtB3_14___FieldVisitorNtB1g_7Visitor11visit_bytespEBa_
FN:30,_RNCNvNtCskuhifYCSucK_8scanners15optimistic_scan18estimate_timestamp0B5_
FN:42,_RNCNCNvNtCskuhifYCSucK_8scanners15optimistic_scan18estimate_timestamp00B7_
FN:99,_RNCNvNtCskuhifYCSucK_8scanners15optimistic_scan14estimate_block0B5_
FN:11,_RINvXNvXNvNtCskuhifYCSucK_8scanners15optimistic_scan1__NtB8_23EstimateTimestampResultNtNtCsi2zptu4QhLv_5serde2de11Deserialize11deserializeNtB3_14___FieldVisitorNtB1n_7Visitor9visit_strNtNtCslSvSW0ZHiud_10serde_json5error5ErrorEBa_
FN:11,_RINvXs_NvXNvNtCskuhifYCSucK_8scanners15optimistic_scan1__NtBa_23EstimateTimestampResultNtNtCsi2zptu4QhLv_5serde2de11Deserialize11deserializeNtB5_7___FieldB1n_11deserializeINtNtCslSvSW0ZHiud_10serde_json2de6MapKeyNtNtB2O_4read7StrReadEEBc_
FN:11,_RINvXs0_NvXNvNtCskuhifYCSucK_8scanners15optimistic_scan1__NtBb_23EstimateTimestampResultNtNtCsi2zptu4QhLv_5serde2de11Deserialize11deserializeNtB6_9___VisitorNtB1q_7Visitor9visit_seqINtNtCslSvSW0ZHiud_10serde_json2de9SeqAccessNtNtB2Y_4read7StrReadEEBd_
FN:11,_RINvXs0_NvXNvNtCskuhifYCSucK_8scanners15optimistic_scan1__NtBb_23EstimateTimestampResultNtNtCsi2zptu4QhLv_5serde2de11Deserialize11deserializeNtB6_9___VisitorNtB1q_7Visitor9visit_mapINtNtCslSvSW0ZHiud_10serde_json2de9MapAccessNtNtB2Y_4read7StrReadEEBd_
FN:23,_RINvXNvXNvNtCskuhifYCSucK_8scanners15optimistic_scans_1__NtB8_17EstimateTimestampNtNtCsi2zptu4QhLv_5serde2de11Deserialize11deserializeNtB3_14___FieldVisitorNtB1j_7Visitor9visit_strNtNtCslSvSW0ZHiud_10serde_json5error5ErrorEBa_
FN:23,_RINvXs_NvXNvNtCskuhifYCSucK_8scanners15optimistic_scans_1__NtBa_17EstimateTimestampNtNtCsi2zptu4QhLv_5serde2de11Deserialize11deserializeNtB5_7___FieldB1j_11deserializeINtNtCslSvSW0ZHiud_10serde_json2de6MapKeyNtNtB2K_4read7StrReadEEBc_
FN:23,_RINvXs0_NvXNvNtCskuhifYCSucK_8scanners15optimistic_scans_1__NtBb_17EstimateTimestampNtNtCsi2zptu4QhLv_5serde2de11Deserialize11deserializeNtB6_9___VisitorNtB1m_7Visitor9visit_seqINtNtCslSvSW0ZHiud_10serde_json2de9SeqAccessNtNtB2U_4read7StrReadEEBd_
FN:23,_RINvXs0_NvXNvNtCskuhifYCSucK_8scanners15optimistic_scans_1__NtBb_17EstimateTimestampNtNtCsi2zptu4QhLv_5serde2de11Deserialize11deserializeNtB6_9___VisitorNtB1m_7Visitor9visit_mapINtNtCslSvSW0ZHiud_10serde_json2de9MapAccessNtNtB2U_4read7StrReadEEBd_
FN:92,_RINvXNvXNvNtCskuhifYCSucK_8scanners15optimistic_scans0_1__NtB8_13EstimateBlockNtNtCsi2zptu4QhLv_5serde2de11Deserialize11deserializeNtB3_14___FieldVisitorNtB1g_7Visitor9visit_strNtNtCslSvSW0ZHiud_10serde_json5error5ErrorEBa_
FN:92,_RINvXs_NvXNvNtCskuhifYCSucK_8scanners15optimistic_scans0_1__NtBa_13EstimateBlockNtNtCsi2zptu4QhLv_5serde2de11Deserialize11deserializeNtB5_7___FieldB1g_11deserializeINtNtCslSvSW0ZHiud_10serde_json2de6MapKeyNtNtB2H_4read7StrReadEEBc_
FN:92,_RINvXs0_NvXNvNtCskuhifYCSucK_8scanners15optimistic_scans0_1__NtBb_13EstimateBlockNtNtCsi2zptu4QhLv_5serde2de11Deserialize11deserializeNtB6_9___VisitorNtB1j_7Visitor9visit_seqINtNtCslSvSW0ZHiud_10serde_json2de9SeqAccessNtNtB2R_4read7StrReadEEBd_
FN:92,_RINvXs0_NvXNvNtCskuhifYCSucK_8scanners15optimistic_scans0_1__NtBb_13EstimateBlockNtNtCsi2zptu4QhLv_5serde2de11Deserialize11deserializeNtB6_9___VisitorNtB1j_7Visitor9visit_mapINtNtCslSvSW0ZHiud_10serde_json2de9MapAccessNtNtB2R_4read7StrReadEEBd_
FN:30,_RNvNtCskuhifYCSucK_8scanners15optimistic_scan18estimate_timestamp
FN:99,_RNvNtCskuhifYCSucK_8scanners15optimistic_scan14estimate_block
FN:11,_RNvXs0_NvXNvNtCskuhifYCSucK_8scanners15optimistic_scan1__NtBa_23EstimateTimestampResultNtNtCsi2zptu4QhLv_5serde2de11Deserialize11deserializeNtB5_9___VisitorNtB1p_7Visitor9expecting
FN:23,_RNvXs0_NvXNvNtCskuhifYCSucK_8scanners15optimistic_scans_1__NtBa_17EstimateTimestampNtNtCsi2zptu4QhLv_5serde2de11Deserialize11deserializeNtB5_9___VisitorNtB1l_7Visitor9expecting
FN:92,_RNvXs0_NvXNvNtCskuhifYCSucK_8scanners15optimistic_scans0_1__NtBa_13EstimateBlockNtNtCsi2zptu4QhLv_5serde2de11Deserialize11deserializeNtB5_9___VisitorNtB1i_7Visitor9expecting
FN:154,_RNvNtNtCskuhifYCSucK_8scanners15optimistic_scan20optimisticscan_testss_34test_estimate_timestamp_past_block
FN:169,_RNvNtNtCskuhifYCSucK_8scanners15optimistic_scan20optimisticscan_testss_36test_estimate_timestamp_future_block
FN:188,_RNvNtNtCskuhifYCSucK_8scanners15optimistic_scan20optimisticscan_testss_19test_estimate_block
FN:202,_RNvNtNtCskuhifYCSucK_8scanners15optimistic_scan20optimisticscan_testss_21test_estimate_block_2
FN:154,_RNCNvNtNtCskuhifYCSucK_8scanners15optimistic_scan20optimisticscan_testss_34test_estimate_timestamp_past_block0B7_
FN:169,_RNCNvNtNtCskuhifYCSucK_8scanners15optimistic_scan20optimisticscan_testss_36test_estimate_timestamp_future_block0B7_
FN:188,_RNCNvNtNtCskuhifYCSucK_8scanners15optimistic_scan20optimisticscan_testss_19test_estimate_block0B7_
FN:202,_RNCNvNtNtCskuhifYCSucK_8scanners15optimistic_scan20optimisticscan_testss_21test_estimate_block_20B7_
FNDA:0,_RINvXNvXNvNtCsgm4kcKIXEMR_8scanners15optimistic_scan1__NtB8_23EstimateTimestampResultNtNtCsi2zptu4QhLv_5serde2de11Deserialize11deserializeNtB3_14___FieldVisitorNtB1n_7Visitor9visit_strNtNtCslSvSW0ZHiud_10serde_json5error5ErrorECsmdD2PK2ogL_9detective
FNDA:0,_RINvXNvXNvNtCsgm4kcKIXEMR_8scanners15optimistic_scans_1__NtB8_17EstimateTimestampNtNtCsi2zptu4QhLv_5serde2de11Deserialize11deserializeNtB3_14___FieldVisitorNtB1j_7Visitor9visit_strNtNtCslSvSW0ZHiud_10serde_json5error5ErrorECsmdD2PK2ogL_9detective
FNDA:0,_RINvXs0_NvXNvNtCsgm4kcKIXEMR_8scanners15optimistic_scan1__NtBb_23EstimateTimestampResultNtNtCsi2zptu4QhLv_5serde2de11Deserialize11deserializeNtB6_9___VisitorNtB1q_7Visitor9visit_mapINtNtCslSvSW0ZHiud_10serde_json2de9MapAccessNtNtB2Y_4read7StrReadEECsmdD2PK2ogL_9detective
FNDA:0,_RINvXs0_NvXNvNtCsgm4kcKIXEMR_8scanners15optimistic_scan1__NtBb_23EstimateTimestampResultNtNtCsi2zptu4QhLv_5serde2de11Deserialize11deserializeNtB6_9___VisitorNtB1q_7Visitor9visit_seqINtNtCslSvSW0ZHiud_10serde_json2de9SeqAccessNtNtB2Y_4read7StrReadEECsmdD2PK2ogL_9detective
FNDA:0,_RINvXs0_NvXNvNtCsgm4kcKIXEMR_8scanners15optimistic_scans_1__NtBb_17EstimateTimestampNtNtCsi2zptu4QhLv_5serde2de11Deserialize11deserializeNtB6_9___VisitorNtB1m_7Visitor9visit_mapINtNtCslSvSW0ZHiud_10serde_json2de9MapAccessNtNtB2U_4read7StrReadEECsmdD2PK2ogL_9detective
FNDA:0,_RINvXs0_NvXNvNtCsgm4kcKIXEMR_8scanners15optimistic_scans_1__NtBb_17EstimateTimestampNtNtCsi2zptu4QhLv_5serde2de11Deserialize11deserializeNtB6_9___VisitorNtB1m_7Visitor9visit_seqINtNtCslSvSW0ZHiud_10serde_json2de9SeqAccessNtNtB2U_4read7StrReadEECsmdD2PK2ogL_9detective
FNDA:0,_RINvXs_NvXNvNtCsgm4kcKIXEMR_8scanners15optimistic_scan1__NtBa_23EstimateTimestampResultNtNtCsi2zptu4QhLv_5serde2de11Deserialize11deserializeNtB5_7___FieldB1n_11deserializeINtNtCslSvSW0ZHiud_10serde_json2de6MapKeyNtNtB2O_4read7StrReadEECsmdD2PK2ogL_9detective
FNDA:0,_RINvXs_NvXNvNtCsgm4kcKIXEMR_8scanners15optimistic_scans_1__NtBa_17EstimateTimestampNtNtCsi2zptu4QhLv_5serde2de11Deserialize11deserializeNtB5_7___FieldB1j_11deserializeINtNtCslSvSW0ZHiud_10serde_json2de6MapKeyNtNtB2K_4read7StrReadEECsmdD2PK2ogL_9detective
FNDA:0,_RNCNCNvNtCsgm4kcKIXEMR_8scanners15optimistic_scan18estimate_timestamp00CsmdD2PK2ogL_9detective
FNDA:22,_RNCNvNtCsgm4kcKIXEMR_8scanners15optimistic_scan18estimate_timestamp0CsmdD2PK2ogL_9detective
FNDA:22,_RNvNtCsgm4kcKIXEMR_8scanners15optimistic_scan18estimate_timestamp
FNDA:0,_RNvNtCsgm4kcKIXEMR_8scanners15optimistic_scan14estimate_block
FNDA:0,_RNvXNvXNvNtCsgm4kcKIXEMR_8scanners15optimistic_scan1__NtB7_23EstimateTimestampResultNtNtCsi2zptu4QhLv_5serde2de11Deserialize11deserializeNtB2_14___FieldVisitorNtB1m_7Visitor9expecting
FNDA:0,_RNvXs0_NvXNvNtCsgm4kcKIXEMR_8scanners15optimistic_scan1__NtBa_23EstimateTimestampResultNtNtCsi2zptu4QhLv_5serde2de11Deserialize11deserializeNtB5_9___VisitorNtB1p_7Visitor9expecting
FNDA:0,_RNvXNvXNvNtCsgm4kcKIXEMR_8scanners15optimistic_scans_1__NtB7_17EstimateTimestampNtNtCsi2zptu4QhLv_5serde2de11Deserialize11deserializeNtB2_14___FieldVisitorNtB1i_7Visitor9expecting
FNDA:0,_RNvXs0_NvXNvNtCsgm4kcKIXEMR_8scanners15optimistic_scans_1__NtBa_17EstimateTimestampNtNtCsi2zptu4QhLv_5serde2de11Deserialize11deserializeNtB5_9___VisitorNtB1l_7Visitor9expecting
FNDA:0,_RNvXNvXNvNtCsgm4kcKIXEMR_8scanners15optimistic_scans0_1__NtB7_13EstimateBlockNtNtCsi2zptu4QhLv_5serde2de11Deserialize11deserializeNtB2_14___FieldVisitorNtB1f_7Visitor9expecting
FNDA:0,_RNvXs0_NvXNvNtCsgm4kcKIXEMR_8scanners15optimistic_scans0_1__NtBa_13EstimateBlockNtNtCsi2zptu4QhLv_5serde2de11Deserialize11deserializeNtB5_9___VisitorNtB1i_7Visitor9expecting
FNDA:0,_RNvXNvXNvNtCskuhifYCSucK_8scanners15optimistic_scan1__NtB7_23EstimateTimestampResultNtNtCsi2zptu4QhLv_5serde2de11Deserialize11deserializeNtB2_14___FieldVisitorNtB1m_7Visitor9expecting
FNDA:0,_RINvXNvXNvNtCskuhifYCSucK_8scanners15optimistic_scan1__NtB8_23EstimateTimestampResultNtNtCsi2zptu4QhLv_5serde2de11Deserialize11deserializeNtB3_14___FieldVisitorNtB1n_7Visitor9visit_u64pEBa_
FNDA:0,_RINvXNvXNvNtCskuhifYCSucK_8scanners15optimistic_scan1__NtB8_23EstimateTimestampResultNtNtCsi2zptu4QhLv_5serde2de11Deserialize11deserializeNtB3_14___FieldVisitorNtB1n_7Visitor11visit_bytespEBa_
FNDA:0,_RNvXNvXNvNtCskuhifYCSucK_8scanners15optimistic_scans_1__NtB7_17EstimateTimestampNtNtCsi2zptu4QhLv_5serde2de11Deserialize11deserializeNtB2_14___FieldVisitorNtB1i_7Visitor9expecting
FNDA:0,_RINvXNvXNvNtCskuhifYCSucK_8scanners15optimistic_scans_1__NtB8_17EstimateTimestampNtNtCsi2zptu4QhLv_5serde2de11Deserialize11deserializeNtB3_14___FieldVisitorNtB1j_7Visitor9visit_u64pEBa_
FNDA:0,_RINvXNvXNvNtCskuhifYCSucK_8scanners15optimistic_scans_1__NtB8_17EstimateTimestampNtNtCsi2zptu4QhLv_5serde2de11Deserialize11deserializeNtB3_14___FieldVisitorNtB1j_7Visitor11visit_bytespEBa_
FNDA:0,_RNvXNvXNvNtCskuhifYCSucK_8scanners15optimistic_scans0_1__NtB7_13EstimateBlockNtNtCsi2zptu4QhLv_5serde2de11Deserialize11deserializeNtB2_14___FieldVisitorNtB1f_7Visitor9expecting
FNDA:0,_RINvXNvXNvNtCskuhifYCSucK_8scanners15optimistic_scans0_1__NtB8_13EstimateBlockNtNtCsi2zptu4QhLv_5serde2de11Deserialize11deserializeNtB3_14___FieldVisitorNtB1g_7Visitor9visit_u64pEBa_
FNDA:0,_RINvXNvXNvNtCskuhifYCSucK_8scanners15optimistic_scans0_1__NtB8_13EstimateBlockNtNtCsi2zptu4QhLv_5serde2de11Deserialize11deserializeNtB3_14___FieldVisitorNtB1g_7Visitor11visit_bytespEBa_
FNDA:2,_RNCNvNtCskuhifYCSucK_8scanners15optimistic_scan18estimate_timestamp0B5_
FNDA:0,_RNCNCNvNtCskuhifYCSucK_8scanners15optimistic_scan18estimate_timestamp00B7_
FNDA:2,_RNCNvNtCskuhifYCSucK_8scanners15optimistic_scan14estimate_block0B5_
FNDA:4,_RINvXNvXNvNtCskuhifYCSucK_8scanners15optimistic_scan1__NtB8_23EstimateTimestampResultNtNtCsi2zptu4QhLv_5serde2de11Deserialize11deserializeNtB3_14___FieldVisitorNtB1n_7Visitor9visit_strNtNtCslSvSW0ZHiud_10serde_json5error5ErrorEBa_
FNDA:4,_RINvXs_NvXNvNtCskuhifYCSucK_8scanners15optimistic_scan1__NtBa_23EstimateTimestampResultNtNtCsi2zptu4QhLv_5serde2de11Deserialize11deserializeNtB5_7___FieldB1n_11deserializeINtNtCslSvSW0ZHiud_10serde_json2de6MapKeyNtNtB2O_4read7StrReadEEBc_
FNDA:0,_RINvXs0_NvXNvNtCskuhifYCSucK_8scanners15optimistic_scan1__NtBb_23EstimateTimestampResultNtNtCsi2zptu4QhLv_5serde2de11Deserialize11deserializeNtB6_9___VisitorNtB1q_7Visitor9visit_seqINtNtCslSvSW0ZHiud_10serde_json2de9SeqAccessNtNtB2Y_4read7StrReadEEBd_
FNDA:1,_RINvXs0_NvXNvNtCskuhifYCSucK_8scanners15optimistic_scan1__NtBb_23EstimateTimestampResultNtNtCsi2zptu4QhLv_5serde2de11Deserialize11deserializeNtB6_9___VisitorNtB1q_7Visitor9visit_mapINtNtCslSvSW0ZHiud_10serde_json2de9MapAccessNtNtB2Y_4read7StrReadEEBd_
FNDA:3,_RINvXNvXNvNtCskuhifYCSucK_8scanners15optimistic_scans_1__NtB8_17EstimateTimestampNtNtCsi2zptu4QhLv_5serde2de11Deserialize11deserializeNtB3_14___FieldVisitorNtB1j_7Visitor9visit_strNtNtCslSvSW0ZHiud_10serde_json5error5ErrorEBa_
FNDA:3,_RINvXs_NvXNvNtCskuhifYCSucK_8scanners15optimistic_scans_1__NtBa_17EstimateTimestampNtNtCsi2zptu4QhLv_5serde2de11Deserialize11deserializeNtB5_7___FieldB1j_11deserializeINtNtCslSvSW0ZHiud_10serde_json2de6MapKeyNtNtB2K_4read7StrReadEEBc_
FNDA:0,_RINvXs0_NvXNvNtCskuhifYCSucK_8scanners15optimistic_scans_1__NtBb_17EstimateTimestampNtNtCsi2zptu4QhLv_5serde2de11Deserialize11deserializeNtB6_9___VisitorNtB1m_7Visitor9visit_seqINtNtCslSvSW0ZHiud_10serde_json2de9SeqAccessNtNtB2U_4read7StrReadEEBd_
FNDA:1,_RINvXs0_NvXNvNtCskuhifYCSucK_8scanners15optimistic_scans_1__NtBb_17EstimateTimestampNtNtCsi2zptu4QhLv_5serde2de11Deserialize11deserializeNtB6_9___VisitorNtB1m_7Visitor9visit_mapINtNtCslSvSW0ZHiud_10serde_json2de9MapAccessNtNtB2U_4read7StrReadEEBd_
FNDA:6,_RINvXNvXNvNtCskuhifYCSucK_8scanners15optimistic_scans0_1__NtB8_13EstimateBlockNtNtCsi2zptu4QhLv_5serde2de11Deserialize11deserializeNtB3_14___FieldVisitorNtB1g_7Visitor9visit_strNtNtCslSvSW0ZHiud_10serde_json5error5ErrorEBa_
FNDA:6,_RINvXs_NvXNvNtCskuhifYCSucK_8scanners15optimistic_scans0_1__NtBa_13EstimateBlockNtNtCsi2zptu4QhLv_5serde2de11Deserialize11deserializeNtB5_7___FieldB1g_11deserializeINtNtCslSvSW0ZHiud_10serde_json2de6MapKeyNtNtB2H_4read7StrReadEEBc_
FNDA:0,_RINvXs0_NvXNvNtCskuhifYCSucK_8scanners15optimistic_scans0_1__NtBb_13EstimateBlockNtNtCsi2zptu4QhLv_5serde2de11Deserialize11deserializeNtB6_9___VisitorNtB1j_7Visitor9visit_seqINtNtCslSvSW0ZHiud_10serde_json2de9SeqAccessNtNtB2R_4read7StrReadEEBd_
FNDA:2,_RINvXs0_NvXNvNtCskuhifYCSucK_8scanners15optimistic_scans0_1__NtBb_13EstimateBlockNtNtCsi2zptu4QhLv_5serde2de11Deserialize11deserializeNtB6_9___VisitorNtB1j_7Visitor9visit_mapINtNtCslSvSW0ZHiud_10serde_json2de9MapAccessNtNtB2R_4read7StrReadEEBd_
FNDA:2,_RNvNtCskuhifYCSucK_8scanners15optimistic_scan18estimate_timestamp
FNDA:2,_RNvNtCskuhifYCSucK_8scanners15optimistic_scan14estimate_block
FNDA:0,_RNvXs0_NvXNvNtCskuhifYCSucK_8scanners15optimistic_scan1__NtBa_23EstimateTimestampResultNtNtCsi2zptu4QhLv_5serde2de11Deserialize11deserializeNtB5_9___VisitorNtB1p_7Visitor9expecting
FNDA:0,_RNvXs0_NvXNvNtCskuhifYCSucK_8scanners15optimistic_scans_1__NtBa_17EstimateTimestampNtNtCsi2zptu4QhLv_5serde2de11Deserialize11deserializeNtB5_9___VisitorNtB1l_7Visitor9expecting
FNDA:0,_RNvXs0_NvXNvNtCskuhifYCSucK_8scanners15optimistic_scans0_1__NtBa_13EstimateBlockNtNtCsi2zptu4QhLv_5serde2de11Deserialize11deserializeNtB5_9___VisitorNtB1i_7Visitor9expecting
FNDA:1,_RNvNtNtCskuhifYCSucK_8scanners15optimistic_scan20optimisticscan_testss_34test_estimate_timestamp_past_block
FNDA:1,_RNvNtNtCskuhifYCSucK_8scanners15optimistic_scan20optimisticscan_testss_36test_estimate_timestamp_future_block
FNDA:1,_RNvNtNtCskuhifYCSucK_8scanners15optimistic_scan20optimisticscan_testss_19test_estimate_block
FNDA:1,_RNvNtNtCskuhifYCSucK_8scanners15optimistic_scan20optimisticscan_testss_21test_estimate_block_2
FNDA:1,_RNCNvNtNtCskuhifYCSucK_8scanners15optimistic_scan20optimisticscan_testss_34test_estimate_timestamp_past_block0B7_
FNDA:1,_RNCNvNtNtCskuhifYCSucK_8scanners15optimistic_scan20optimisticscan_testss_36test_estimate_timestamp_future_block0B7_
FNDA:1,_RNCNvNtNtCskuhifYCSucK_8scanners15optimistic_scan20optimisticscan_testss_19test_estimate_block0B7_
FNDA:1,_RNCNvNtNtCskuhifYCSucK_8scanners15optimistic_scan20optimisticscan_testss_21test_estimate_block_20B7_
FNF:16
FNH:15
DA:11,5
DA:23,4
DA:30,24
DA:31,24
DA:32,24
DA:33,24
DA:34,24
DA:36,145
DA:38,24
DA:39,23
DA:40,23
DA:41,397
DA:42,23
DA:44,23
DA:45,23
DA:46,23
DA:47,1
DA:48,1
DA:49,1
DA:50,1
DA:51,1
DA:52,1
DA:53,1
DA:54,1
DA:56,1
DA:57,1
DA:58,1
DA:59,1
DA:60,1
DA:61,1
DA:62,1
DA:63,6
DA:65,0
DA:66,1
DA:67,1
DA:68,1
DA:69,1
DA:71,1
DA:72,1
DA:74,1
DA:75,1
DA:76,1
DA:78,0
DA:79,0
DA:80,0
DA:81,0
DA:84,0
DA:85,0
DA:86,0
DA:90,24
DA:92,8
DA:99,2
DA:100,2
DA:101,2
DA:102,2
DA:103,2
DA:104,2
DA:105,2
DA:106,2
DA:107,2
DA:108,2
DA:110,2
DA:111,2
DA:112,2
DA:113,2
DA:114,2
DA:115,2
DA:116,2
DA:117,12
DA:119,0
DA:120,2
DA:121,2
DA:122,2
DA:123,2
DA:125,2
DA:126,2
DA:127,2
DA:128,2
DA:130,0
DA:131,0
DA:132,0
DA:133,0
DA:136,0
DA:137,0
DA:139,0
DA:141,0
DA:145,2
DA:154,1
DA:155,1
DA:156,1
DA:157,1
DA:158,1
DA:159,11
DA:160,1
DA:161,1
DA:162,1
DA:163,1
DA:164,1
DA:165,1
DA:166,1
DA:169,1
DA:170,1
DA:171,1
DA:172,1
DA:173,1
DA:174,1
DA:175,6
DA:176,1
DA:177,1
DA:178,14
DA:179,1
DA:180,1
DA:181,1
DA:182,1
DA:183,1
DA:184,1
DA:185,1
DA:188,1
DA:189,1
DA:190,1
DA:191,1
DA:192,1
DA:193,7
DA:194,1
DA:195,1
DA:196,1
DA:197,1
DA:198,1
DA:199,1
DA:202,1
DA:203,1
DA:204,1
DA:205,1
DA:206,1
DA:207,1
DA:208,7
DA:209,1
DA:210,1
DA:211,1
DA:212,1
DA:213,1
DA:214,1
DA:215,1
DA:216,1
DA:217,1
BRF:0
BRH:0
LF:197
LH:176
end_of_record
SF:/Users/andrei/git/proposalsapp/libs/rust/seaorm/src/dao.rs
FN:10,_RNvXNtCshdZFMozNxrb_6seaorm3daoNtB2_6EntityNtNtNtCsjYlr2Bj3iq_7sea_orm6entity11base_entity10EntityName10table_name
FN:44,_RNvXs_NtCshdZFMozNxrb_6seaorm3daoNtB4_10PrimaryKeyNtNtNtCsjYlr2Bj3iq_7sea_orm6entity11primary_key15PrimaryKeyTrait14auto_increment
FN:60,_RNvXs0_NtCshdZFMozNxrb_6seaorm3daoNtB5_6ColumnNtNtNtCsjYlr2Bj3iq_7sea_orm6entity6column11ColumnTrait3def
FN:74,_RNvXs1_NtCshdZFMozNxrb_6seaorm3daoNtB5_8RelationNtNtNtCsjYlr2Bj3iq_7sea_orm6entity8relation13RelationTrait3def
FN:86,_RNvXs2_NtCshdZFMozNxrb_6seaorm3daoNtB5_6EntityINtNtNtCsjYlr2Bj3iq_7sea_orm6entity8relation7RelatedNtNtB7_13dao_discourse6EntityE2to
FN:92,_RNvXs3_NtCshdZFMozNxrb_6seaorm3daoNtB5_6EntityINtNtNtCsjYlr2Bj3iq_7sea_orm6entity8relation7RelatedNtNtB7_11dao_indexer6EntityE2to
FN:98,_RNvXs4_NtCshdZFMozNxrb_6seaorm3daoNtB5_6EntityINtNtNtCsjYlr2Bj3iq_7sea_orm6entity8relation7RelatedNtNtB7_8proposal6EntityE2to
FN:104,_RNvXs5_NtCshdZFMozNxrb_6seaorm3daoNtB5_6EntityINtNtNtCsjYlr2Bj3iq_7sea_orm6entity8relation7RelatedNtNtB7_12subscription6EntityE2to
FN:110,_RNvXs6_NtCshdZFMozNxrb_6seaorm3daoNtB5_6EntityINtNtNtCsjYlr2Bj3iq_7sea_orm6entity8relation7RelatedNtNtB7_4vote6EntityE2to
FN:15,_RNvXNvXNvNtCshdZFMozNxrb_6seaorm3daos_1__NtB7_5ModelNtNtCsi2zptu4QhLv_5serde2de11Deserialize11deserializeNtB2_14___FieldVisitorNtBQ_7Visitor9expecting
FN:15,_RNvXs0_NvXNvNtCshdZFMozNxrb_6seaorm3daos_1__NtBa_5ModelNtNtCsi2zptu4QhLv_5serde2de11Deserialize11deserializeNtB5_9___VisitorNtBT_7Visitor9expecting
FN:26,_RNvXsz_NtCshdZFMozNxrb_6seaorm3daoNtB5_10ColumnIterNtNtCsliVzVx4luf9_4core3fmt5Debug3fmt
FN:26,_RNvMsA_NtCshdZFMozNxrb_6seaorm3daoNtB5_10ColumnIter3get
FN:26,_RNvXsB_NtCshdZFMozNxrb_6seaorm3daoNtB5_6ColumnNtCs2R46ZWsohtG_5strum16IntoEnumIterator4iter
FN:26,_RNvXsC_NtCshdZFMozNxrb_6seaorm3daoNtB5_10ColumnIterNtNtNtNtCsliVzVx4luf9_4core4iter6traits8iterator8Iterator4next
FN:26,_RNvXsC_NtCshdZFMozNxrb_6seaorm3daoNtB5_10ColumnIterNtNtNtNtCsliVzVx4luf9_4core4iter6traits8iterator8Iterator9size_hint
FN:26,_RNvXsC_NtCshdZFMozNxrb_6seaorm3daoNtB5_10ColumnIterNtNtNtNtCsliVzVx4luf9_4core4iter6traits8iterator8Iterator3nth
FN:26,_RNvXsD_NtCshdZFMozNxrb_6seaorm3daoNtB5_10ColumnIterNtNtNtNtCsliVzVx4luf9_4core4iter6traits10exact_size17ExactSizeIterator3len
FN:26,_RNvXsE_NtCshdZFMozNxrb_6seaorm3daoNtB5_10ColumnIterNtNtNtNtCsliVzVx4luf9_4core4iter6traits12double_ended19DoubleEndedIterator9next_back
FN:26,_RNvXsG_NtCshdZFMozNxrb_6seaorm3daoNtB5_10ColumnIterNtNtCsliVzVx4luf9_4core5clone5Clone5clone
FN:37,_RNvXsO_NtCshdZFMozNxrb_6seaorm3daoNtB5_14PrimaryKeyIterNtNtCsliVzVx4luf9_4core3fmt5Debug3fmt
FN:37,_RNvMsP_NtCshdZFMozNxrb_6seaorm3daoNtB5_14PrimaryKeyIter3get
FN:37,_RNvXsQ_NtCshdZFMozNxrb_6seaorm3daoNtB5_10PrimaryKeyNtCs2R46ZWsohtG_5strum16IntoEnumIterator4iter
FN:37,_RNvXsR_NtCshdZFMozNxrb_6seaorm3daoNtB5_14PrimaryKeyIterNtNtNtNtCsliVzVx4luf9_4core4iter6traits8iterator8Iterator4next
FN:37,_RNvXsR_NtCshdZFMozNxrb_6seaorm3daoNtB5_14PrimaryKeyIterNtNtNtNtCsliVzVx4luf9_4core4iter6traits8iterator8Iterator9size_hint
FN:37,_RNvXsR_NtCshdZFMozNxrb_6seaorm3daoNtB5_14PrimaryKeyIterNtNtNtNtCsliVzVx4luf9_4core4iter6traits8iterator8Iterator3nth
FN:37,_RNvXsS_NtCshdZFMozNxrb_6seaorm3daoNtB5_14PrimaryKeyIterNtNtNtNtCsliVzVx4luf9_4core4iter6traits10exact_size17ExactSizeIterator3len
FN:37,_RNvXsT_NtCshdZFMozNxrb_6seaorm3daoNtB5_14PrimaryKeyIterNtNtNtNtCsliVzVx4luf9_4core4iter6traits12double_ended19DoubleEndedIterator9next_back
FN:37,_RNvXsV_NtCshdZFMozNxrb_6seaorm3daoNtB5_14PrimaryKeyIterNtNtCsliVzVx4luf9_4core5clone5Clone5clone
FN:49,_RNvXs12_NtCshdZFMozNxrb_6seaorm3daoNtB6_12RelationIterNtNtCsliVzVx4luf9_4core3fmt5Debug3fmt
FN:49,_RNvMs13_NtCshdZFMozNxrb_6seaorm3daoNtB6_12RelationIter3get
FN:49,_RNvXs14_NtCshdZFMozNxrb_6seaorm3daoNtB6_8RelationNtCs2R46ZWsohtG_5strum16IntoEnumIterator4iter
FN:49,_RNvXs15_NtCshdZFMozNxrb_6seaorm3daoNtB6_12RelationIterNtNtNtNtCsliVzVx4luf9_4core4iter6traits8iterator8Iterator4next
FN:49,_RNvXs15_NtCshdZFMozNxrb_6seaorm3daoNtB6_12RelationIterNtNtNtNtCsliVzVx4luf9_4core4iter6traits8iterator8Iterator9size_hint
FN:49,_RNvXs15_NtCshdZFMozNxrb_6seaorm3daoNtB6_12RelationIterNtNtNtNtCsliVzVx4luf9_4core4iter6traits8iterator8Iterator3nth
FN:49,_RNvXs16_NtCshdZFMozNxrb_6seaorm3daoNtB6_12RelationIterNtNtNtNtCsliVzVx4luf9_4core4iter6traits10exact_size17ExactSizeIterator3len
FN:49,_RNvXs17_NtCshdZFMozNxrb_6seaorm3daoNtB6_12RelationIterNtNtNtNtCsliVzVx4luf9_4core4iter6traits12double_ended19DoubleEndedIterator9next_back
FN:49,_RNvXs19_NtCshdZFMozNxrb_6seaorm3daoNtB6_12RelationIterNtNtCsliVzVx4luf9_4core5clone5Clone5clone
FN:15,_RINvXNvXNvNtCshdZFMozNxrb_6seaorm3daos_1__NtB8_5ModelNtNtCsi2zptu4QhLv_5serde2de11Deserialize11deserializeNtB3_14___FieldVisitorNtBR_7Visitor9visit_u64pEBa_
FN:15,_RINvXNvXNvNtCshdZFMozNxrb_6seaorm3daos_1__NtB8_5ModelNtNtCsi2zptu4QhLv_5serde2de11Deserialize11deserializeNtB3_14___FieldVisitorNtBR_7Visitor9visit_strpEBa_
FN:15,_RINvXNvXNvNtCshdZFMozNxrb_6seaorm3daos_1__NtB8_5ModelNtNtCsi2zptu4QhLv_5serde2de11Deserialize11deserializeNtB3_14___FieldVisitorNtBR_7Visitor11visit_bytespEBa_
FN:15,_RINvXs_NvXNvNtCshdZFMozNxrb_6seaorm3daos_1__NtBa_5ModelNtNtCsi2zptu4QhLv_5serde2de11Deserialize11deserializeNtB5_7___FieldBR_11deserializepEBc_
FN:15,_RINvXs0_NvXNvNtCshdZFMozNxrb_6seaorm3daos_1__NtBb_5ModelNtNtCsi2zptu4QhLv_5serde2de11Deserialize11deserializeNtB6_9___VisitorNtBU_7Visitor9visit_seqpEBd_
FN:15,_RINvXs0_NvXNvNtCshdZFMozNxrb_6seaorm3daos_1__NtBb_5ModelNtNtCsi2zptu4QhLv_5serde2de11Deserialize11deserializeNtB6_9___VisitorNtBU_7Visitor9visit_mappEBd_
FN:10,_RNvXNtCs1QoIgR6d7ey_6seaorm3daoNtB2_6EntityNtNtNtCsjYlr2Bj3iq_7sea_orm6entity11base_entity10EntityName10table_name
FN:15,_RNvXNvXNvNtCs1QoIgR6d7ey_6seaorm3daos_1__NtB7_5ModelNtNtCsi2zptu4QhLv_5serde2de11Deserialize11deserializeNtB2_14___FieldVisitorNtBQ_7Visitor9expecting
FN:15,_RINvXNvXNvNtCs1QoIgR6d7ey_6seaorm3daos_1__NtB8_5ModelNtNtCsi2zptu4QhLv_5serde2de11Deserialize11deserializeNtB3_14___FieldVisitorNtBR_7Visitor9visit_u64pEBa_
FN:15,_RINvXNvXNvNtCs1QoIgR6d7ey_6seaorm3daos_1__NtB8_5ModelNtNtCsi2zptu4QhLv_5serde2de11Deserialize11deserializeNtB3_14___FieldVisitorNtBR_7Visitor9visit_strpEBa_
FN:15,_RINvXNvXNvNtCs1QoIgR6d7ey_6seaorm3daos_1__NtB8_5ModelNtNtCsi2zptu4QhLv_5serde2de11Deserialize11deserializeNtB3_14___FieldVisitorNtBR_7Visitor11visit_bytespEBa_
FN:15,_RINvXs_NvXNvNtCs1QoIgR6d7ey_6seaorm3daos_1__NtBa_5ModelNtNtCsi2zptu4QhLv_5serde2de11Deserialize11deserializeNtB5_7___FieldBR_11deserializepEBc_
FN:15,_RNvXs0_NvXNvNtCs1QoIgR6d7ey_6seaorm3daos_1__NtBa_5ModelNtNtCsi2zptu4QhLv_5serde2de11Deserialize11deserializeNtB5_9___VisitorNtBT_7Visitor9expecting
FN:15,_RINvXs0_NvXNvNtCs1QoIgR6d7ey_6seaorm3daos_1__NtBb_5ModelNtNtCsi2zptu4QhLv_5serde2de11Deserialize11deserializeNtB6_9___VisitorNtBU_7Visitor9visit_seqpEBd_
FN:15,_RINvXs0_NvXNvNtCs1QoIgR6d7ey_6seaorm3daos_1__NtBb_5ModelNtNtCsi2zptu4QhLv_5serde2de11Deserialize11deserializeNtB6_9___VisitorNtBU_7Visitor9visit_mappEBd_
FN:26,_RNvXsz_NtCs1QoIgR6d7ey_6seaorm3daoNtB5_10ColumnIterNtNtCsliVzVx4luf9_4core3fmt5Debug3fmt
FN:26,_RNvMsA_NtCs1QoIgR6d7ey_6seaorm3daoNtB5_10ColumnIter3get
FN:26,_RNvXsB_NtCs1QoIgR6d7ey_6seaorm3daoNtB5_6ColumnNtCs2R46ZWsohtG_5strum16IntoEnumIterator4iter
FN:26,_RNvXsC_NtCs1QoIgR6d7ey_6seaorm3daoNtB5_10ColumnIterNtNtNtNtCsliVzVx4luf9_4core4iter6traits8iterator8Iterator4next
FN:26,_RNvXsC_NtCs1QoIgR6d7ey_6seaorm3daoNtB5_10ColumnIterNtNtNtNtCsliVzVx4luf9_4core4iter6traits8iterator8Iterator9size_hint
FN:26,_RNvXsC_NtCs1QoIgR6d7ey_6seaorm3daoNtB5_10ColumnIterNtNtNtNtCsliVzVx4luf9_4core4iter6traits8iterator8Iterator3nth
FN:26,_RNvXsD_NtCs1QoIgR6d7ey_6seaorm3daoNtB5_10ColumnIterNtNtNtNtCsliVzVx4luf9_4core4iter6traits10exact_size17ExactSizeIterator3len
FN:26,_RNvXsE_NtCs1QoIgR6d7ey_6seaorm3daoNtB5_10ColumnIterNtNtNtNtCsliVzVx4luf9_4core4iter6traits12double_ended19DoubleEndedIterator9next_back
FN:26,_RNvXsG_NtCs1QoIgR6d7ey_6seaorm3daoNtB5_10ColumnIterNtNtCsliVzVx4luf9_4core5clone5Clone5clone
FN:37,_RNvXsO_NtCs1QoIgR6d7ey_6seaorm3daoNtB5_14PrimaryKeyIterNtNtCsliVzVx4luf9_4core3fmt5Debug3fmt
FN:37,_RNvMsP_NtCs1QoIgR6d7ey_6seaorm3daoNtB5_14PrimaryKeyIter3get
FN:37,_RNvXsQ_NtCs1QoIgR6d7ey_6seaorm3daoNtB5_10PrimaryKeyNtCs2R46ZWsohtG_5strum16IntoEnumIterator4iter
FN:37,_RNvXsR_NtCs1QoIgR6d7ey_6seaorm3daoNtB5_14PrimaryKeyIterNtNtNtNtCsliVzVx4luf9_4core4iter6traits8iterator8Iterator4next
FN:37,_RNvXsR_NtCs1QoIgR6d7ey_6seaorm3daoNtB5_14PrimaryKeyIterNtNtNtNtCsliVzVx4luf9_4core4iter6traits8iterator8Iterator9size_hint
FN:37,_RNvXsR_NtCs1QoIgR6d7ey_6seaorm3daoNtB5_14PrimaryKeyIterNtNtNtNtCsliVzVx4luf9_4core4iter6traits8iterator8Iterator3nth
FN:37,_RNvXsS_NtCs1QoIgR6d7ey_6seaorm3daoNtB5_14PrimaryKeyIterNtNtNtNtCsliVzVx4luf9_4core4iter6traits10exact_size17ExactSizeIterator3len
FN:37,_RNvXsT_NtCs1QoIgR6d7ey_6seaorm3daoNtB5_14PrimaryKeyIterNtNtNtNtCsliVzVx4luf9_4core4iter6traits12double_ended19DoubleEndedIterator9next_back
FN:37,_RNvXsV_NtCs1QoIgR6d7ey_6seaorm3daoNtB5_14PrimaryKeyIterNtNtCsliVzVx4luf9_4core5clone5Clone5clone
FN:44,_RNvXs_NtCs1QoIgR6d7ey_6seaorm3daoNtB4_10PrimaryKeyNtNtNtCsjYlr2Bj3iq_7sea_orm6entity11primary_key15PrimaryKeyTrait14auto_increment
FN:49,_RNvXs12_NtCs1QoIgR6d7ey_6seaorm3daoNtB6_12RelationIterNtNtCsliVzVx4luf9_4core3fmt5Debug3fmt
FN:49,_RNvMs13_NtCs1QoIgR6d7ey_6seaorm3daoNtB6_12RelationIter3get
FN:49,_RNvXs14_NtCs1QoIgR6d7ey_6seaorm3daoNtB6_8RelationNtCs2R46ZWsohtG_5strum16IntoEnumIterator4iter
FN:49,_RNvXs15_NtCs1QoIgR6d7ey_6seaorm3daoNtB6_12RelationIterNtNtNtNtCsliVzVx4luf9_4core4iter6traits8iterator8Iterator4next
FN:49,_RNvXs15_NtCs1QoIgR6d7ey_6seaorm3daoNtB6_12RelationIterNtNtNtNtCsliVzVx4luf9_4core4iter6traits8iterator8Iterator9size_hint
FN:49,_RNvXs15_NtCs1QoIgR6d7ey_6seaorm3daoNtB6_12RelationIterNtNtNtNtCsliVzVx4luf9_4core4iter6traits8iterator8Iterator3nth
FN:49,_RNvXs16_NtCs1QoIgR6d7ey_6seaorm3daoNtB6_12RelationIterNtNtNtNtCsliVzVx4luf9_4core4iter6traits10exact_size17ExactSizeIterator3len
FN:49,_RNvXs17_NtCs1QoIgR6d7ey_6seaorm3daoNtB6_12RelationIterNtNtNtNtCsliVzVx4luf9_4core4iter6traits12double_ended19DoubleEndedIterator9next_back
FN:49,_RNvXs19_NtCs1QoIgR6d7ey_6seaorm3daoNtB6_12RelationIterNtNtCsliVzVx4luf9_4core5clone5Clone5clone
FN:60,_RNvXs0_NtCs1QoIgR6d7ey_6seaorm3daoNtB5_6ColumnNtNtNtCsjYlr2Bj3iq_7sea_orm6entity6column11ColumnTrait3def
FN:74,_RNvXs1_NtCs1QoIgR6d7ey_6seaorm3daoNtB5_8RelationNtNtNtCsjYlr2Bj3iq_7sea_orm6entity8relation13RelationTrait3def
FN:86,_RNvXs2_NtCs1QoIgR6d7ey_6seaorm3daoNtB5_6EntityINtNtNtCsjYlr2Bj3iq_7sea_orm6entity8relation7RelatedNtNtB7_13dao_discourse6EntityE2to
FN:92,_RNvXs3_NtCs1QoIgR6d7ey_6seaorm3daoNtB5_6EntityINtNtNtCsjYlr2Bj3iq_7sea_orm6entity8relation7RelatedNtNtB7_11dao_indexer6EntityE2to
FN:98,_RNvXs4_NtCs1QoIgR6d7ey_6seaorm3daoNtB5_6EntityINtNtNtCsjYlr2Bj3iq_7sea_orm6entity8relation7RelatedNtNtB7_8proposal6EntityE2to
FN:104,_RNvXs5_NtCs1QoIgR6d7ey_6seaorm3daoNtB5_6EntityINtNtNtCsjYlr2Bj3iq_7sea_orm6entity8relation7RelatedNtNtB7_12subscription6EntityE2to
FN:110,_RNvXs6_NtCs1QoIgR6d7ey_6seaorm3daoNtB5_6EntityINtNtNtCsjYlr2Bj3iq_7sea_orm6entity8relation7RelatedNtNtB7_4vote6EntityE2to
FNDA:0,_RNvXNtCshdZFMozNxrb_6seaorm3daoNtB2_6EntityNtNtNtCsjYlr2Bj3iq_7sea_orm6entity11base_entity10EntityName10table_name
FNDA:0,_RNvXs_NtCshdZFMozNxrb_6seaorm3daoNtB4_10PrimaryKeyNtNtNtCsjYlr2Bj3iq_7sea_orm6entity11primary_key15PrimaryKeyTrait14auto_increment
FNDA:0,_RNvXs0_NtCshdZFMozNxrb_6seaorm3daoNtB5_6ColumnNtNtNtCsjYlr2Bj3iq_7sea_orm6entity6column11ColumnTrait3def
FNDA:0,_RNvXs1_NtCshdZFMozNxrb_6seaorm3daoNtB5_8RelationNtNtNtCsjYlr2Bj3iq_7sea_orm6entity8relation13RelationTrait3def
FNDA:0,_RNvXs2_NtCshdZFMozNxrb_6seaorm3daoNtB5_6EntityINtNtNtCsjYlr2Bj3iq_7sea_orm6entity8relation7RelatedNtNtB7_13dao_discourse6EntityE2to
FNDA:0,_RNvXs3_NtCshdZFMozNxrb_6seaorm3daoNtB5_6EntityINtNtNtCsjYlr2Bj3iq_7sea_orm6entity8relation7RelatedNtNtB7_11dao_indexer6EntityE2to
FNDA:0,_RNvXs4_NtCshdZFMozNxrb_6seaorm3daoNtB5_6EntityINtNtNtCsjYlr2Bj3iq_7sea_orm6entity8relation7RelatedNtNtB7_8proposal6EntityE2to
FNDA:0,_RNvXs5_NtCshdZFMozNxrb_6seaorm3daoNtB5_6EntityINtNtNtCsjYlr2Bj3iq_7sea_orm6entity8relation7RelatedNtNtB7_12subscription6EntityE2to
FNDA:0,_RNvXs6_NtCshdZFMozNxrb_6seaorm3daoNtB5_6EntityINtNtNtCsjYlr2Bj3iq_7sea_orm6entity8relation7RelatedNtNtB7_4vote6EntityE2to
FNDA:0,_RNvXNvXNvNtCshdZFMozNxrb_6seaorm3daos_1__NtB7_5ModelNtNtCsi2zptu4QhLv_5serde2de11Deserialize11deserializeNtB2_14___FieldVisitorNtBQ_7Visitor9expecting
FNDA:0,_RNvXs0_NvXNvNtCshdZFMozNxrb_6seaorm3daos_1__NtBa_5ModelNtNtCsi2zptu4QhLv_5serde2de11Deserialize11deserializeNtB5_9___VisitorNtBT_7Visitor9expecting
FNDA:0,_RNvXsz_NtCshdZFMozNxrb_6seaorm3daoNtB5_10ColumnIterNtNtCsliVzVx4luf9_4core3fmt5Debug3fmt
FNDA:0,_RNvMsA_NtCshdZFMozNxrb_6seaorm3daoNtB5_10ColumnIter3get
FNDA:0,_RNvXsB_NtCshdZFMozNxrb_6seaorm3daoNtB5_6ColumnNtCs2R46ZWsohtG_5strum16IntoEnumIterator4iter
FNDA:0,_RNvXsC_NtCshdZFMozNxrb_6seaorm3daoNtB5_10ColumnIterNtNtNtNtCsliVzVx4luf9_4core4iter6traits8iterator8Iterator4next
FNDA:0,_RNvXsC_NtCshdZFMozNxrb_6seaorm3daoNtB5_10ColumnIterNtNtNtNtCsliVzVx4luf9_4core4iter6traits8iterator8Iterator9size_hint
FNDA:0,_RNvXsC_NtCshdZFMozNxrb_6seaorm3daoNtB5_10ColumnIterNtNtNtNtCsliVzVx4luf9_4core4iter6traits8iterator8Iterator3nth
FNDA:0,_RNvXsD_NtCshdZFMozNxrb_6seaorm3daoNtB5_10ColumnIterNtNtNtNtCsliVzVx4luf9_4core4iter6traits10exact_size17ExactSizeIterator3len
FNDA:0,_RNvXsE_NtCshdZFMozNxrb_6seaorm3daoNtB5_10ColumnIterNtNtNtNtCsliVzVx4luf9_4core4iter6traits12double_ended19DoubleEndedIterator9next_back
FNDA:0,_RNvXsG_NtCshdZFMozNxrb_6seaorm3daoNtB5_10ColumnIterNtNtCsliVzVx4luf9_4core5clone5Clone5clone
FNDA:0,_RNvXsO_NtCshdZFMozNxrb_6seaorm3daoNtB5_14PrimaryKeyIterNtNtCsliVzVx4luf9_4core3fmt5Debug3fmt
FNDA:0,_RNvMsP_NtCshdZFMozNxrb_6seaorm3daoNtB5_14PrimaryKeyIter3get
FNDA:0,_RNvXsQ_NtCshdZFMozNxrb_6seaorm3daoNtB5_10PrimaryKeyNtCs2R46ZWsohtG_5strum16IntoEnumIterator4iter
FNDA:0,_RNvXsR_NtCshdZFMozNxrb_6seaorm3daoNtB5_14PrimaryKeyIterNtNtNtNtCsliVzVx4luf9_4core4iter6traits8iterator8Iterator4next
FNDA:0,_RNvXsR_NtCshdZFMozNxrb_6seaorm3daoNtB5_14PrimaryKeyIterNtNtNtNtCsliVzVx4luf9_4core4iter6traits8iterator8Iterator9size_hint
FNDA:0,_RNvXsR_NtCshdZFMozNxrb_6seaorm3daoNtB5_14PrimaryKeyIterNtNtNtNtCsliVzVx4luf9_4core4iter6traits8iterator8Iterator3nth
FNDA:0,_RNvXsS_NtCshdZFMozNxrb_6seaorm3daoNtB5_14PrimaryKeyIterNtNtNtNtCsliVzVx4luf9_4core4iter6traits10exact_size17ExactSizeIterator3len
FNDA:0,_RNvXsT_NtCshdZFMozNxrb_6seaorm3daoNtB5_14PrimaryKeyIterNtNtNtNtCsliVzVx4luf9_4core4iter6traits12double_ended19DoubleEndedIterator9next_back
FNDA:0,_RNvXsV_NtCshdZFMozNxrb_6seaorm3daoNtB5_14PrimaryKeyIterNtNtCsliVzVx4luf9_4core5clone5Clone5clone
FNDA:0,_RNvXs12_NtCshdZFMozNxrb_6seaorm3daoNtB6_12RelationIterNtNtCsliVzVx4luf9_4core3fmt5Debug3fmt
FNDA:0,_RNvMs13_NtCshdZFMozNxrb_6seaorm3daoNtB6_12RelationIter3get
FNDA:0,_RNvXs14_NtCshdZFMozNxrb_6seaorm3daoNtB6_8RelationNtCs2R46ZWsohtG_5strum16IntoEnumIterator4iter
FNDA:0,_RNvXs15_NtCshdZFMozNxrb_6seaorm3daoNtB6_12RelationIterNtNtNtNtCsliVzVx4luf9_4core4iter6traits8iterator8Iterator4next
FNDA:0,_RNvXs15_NtCshdZFMozNxrb_6seaorm3daoNtB6_12RelationIterNtNtNtNtCsliVzVx4luf9_4core4iter6traits8iterator8Iterator9size_hint
FNDA:0,_RNvXs15_NtCshdZFMozNxrb_6seaorm3daoNtB6_12RelationIterNtNtNtNtCsliVzVx4luf9_4core4iter6traits8iterator8Iterator3nth
FNDA:0,_RNvXs16_NtCshdZFMozNxrb_6seaorm3daoNtB6_12RelationIterNtNtNtNtCsliVzVx4luf9_4core4iter6traits10exact_size17ExactSizeIterator3len
FNDA:0,_RNvXs17_NtCshdZFMozNxrb_6seaorm3daoNtB6_12RelationIterNtNtNtNtCsliVzVx4luf9_4core4iter6traits12double_ended19DoubleEndedIterator9next_back
FNDA:0,_RNvXs19_NtCshdZFMozNxrb_6seaorm3daoNtB6_12RelationIterNtNtCsliVzVx4luf9_4core5clone5Clone5clone
FNDA:0,_RINvXNvXNvNtCshdZFMozNxrb_6seaorm3daos_1__NtB8_5ModelNtNtCsi2zptu4QhLv_5serde2de11Deserialize11deserializeNtB3_14___FieldVisitorNtBR_7Visitor9visit_u64pEBa_
FNDA:0,_RINvXNvXNvNtCshdZFMozNxrb_6seaorm3daos_1__NtB8_5ModelNtNtCsi2zptu4QhLv_5serde2de11Deserialize11deserializeNtB3_14___FieldVisitorNtBR_7Visitor9visit_strpEBa_
FNDA:0,_RINvXNvXNvNtCshdZFMozNxrb_6seaorm3daos_1__NtB8_5ModelNtNtCsi2zptu4QhLv_5serde2de11Deserialize11deserializeNtB3_14___FieldVisitorNtBR_7Visitor11visit_bytespEBa_
FNDA:0,_RINvXs_NvXNvNtCshdZFMozNxrb_6seaorm3daos_1__NtBa_5ModelNtNtCsi2zptu4QhLv_5serde2de11Deserialize11deserializeNtB5_7___FieldBR_11deserializepEBc_
FNDA:0,_RINvXs0_NvXNvNtCshdZFMozNxrb_6seaorm3daos_1__NtBb_5ModelNtNtCsi2zptu4QhLv_5serde2de11Deserialize11deserializeNtB6_9___VisitorNtBU_7Visitor9visit_seqpEBd_
FNDA:0,_RINvXs0_NvXNvNtCshdZFMozNxrb_6seaorm3daos_1__NtBb_5ModelNtNtCsi2zptu4QhLv_5serde2de11Deserialize11deserializeNtB6_9___VisitorNtBU_7Visitor9visit_mappEBd_
FNDA:0,_RNvXNtCs1QoIgR6d7ey_6seaorm3daoNtB2_6EntityNtNtNtCsjYlr2Bj3iq_7sea_orm6entity11base_entity10EntityName10table_name
FNDA:0,_RNvXNvXNvNtCs1QoIgR6d7ey_6seaorm3daos_1__NtB7_5ModelNtNtCsi2zptu4QhLv_5serde2de11Deserialize11deserializeNtB2_14___FieldVisitorNtBQ_7Visitor9expecting
FNDA:0,_RINvXNvXNvNtCs1QoIgR6d7ey_6seaorm3daos_1__NtB8_5ModelNtNtCsi2zptu4QhLv_5serde2de11Deserialize11deserializeNtB3_14___FieldVisitorNtBR_7Visitor9visit_u64pEBa_
FNDA:0,_RINvXNvXNvNtCs1QoIgR6d7ey_6seaorm3daos_1__NtB8_5ModelNtNtCsi2zptu4QhLv_5serde2de11Deserialize11deserializeNtB3_14___FieldVisitorNtBR_7Visitor9visit_strpEBa_
FNDA:0,_RINvXNvXNvNtCs1QoIgR6d7ey_6seaorm3daos_1__NtB8_5ModelNtNtCsi2zptu4QhLv_5serde2de11Deserialize11deserializeNtB3_14___FieldVisitorNtBR_7Visitor11visit_bytespEBa_
FNDA:0,_RINvXs_NvXNvNtCs1QoIgR6d7ey_6seaorm3daos_1__NtBa_5ModelNtNtCsi2zptu4QhLv_5serde2de11Deserialize11deserializeNtB5_7___FieldBR_11deserializepEBc_
FNDA:0,_RNvXs0_NvXNvNtCs1QoIgR6d7ey_6seaorm3daos_1__NtBa_5ModelNtNtCsi2zptu4QhLv_5serde2de11Deserialize11deserializeNtB5_9___VisitorNtBT_7Visitor9expecting
FNDA:0,_RINvXs0_NvXNvNtCs1QoIgR6d7ey_6seaorm3daos_1__NtBb_5ModelNtNtCsi2zptu4QhLv_5serde2de11Deserialize11deserializeNtB6_9___VisitorNtBU_7Visitor9visit_seqpEBd_
FNDA:0,_RINvXs0_NvXNvNtCs1QoIgR6d7ey_6seaorm3daos_1__NtBb_5ModelNtNtCsi2zptu4QhLv_5serde2de11Deserialize11deserializeNtB6_9___VisitorNtBU_7Visitor9visit_mappEBd_
FNDA:0,_RNvXsz_NtCs1QoIgR6d7ey_6seaorm3daoNtB5_10ColumnIterNtNtCsliVzVx4luf9_4core3fmt5Debug3fmt
FNDA:0,_RNvMsA_NtCs1QoIgR6d7ey_6seaorm3daoNtB5_10ColumnIter3get
FNDA:0,_RNvXsB_NtCs1QoIgR6d7ey_6seaorm3daoNtB5_6ColumnNtCs2R46ZWsohtG_5strum16IntoEnumIterator4iter
FNDA:0,_RNvXsC_NtCs1QoIgR6d7ey_6seaorm3daoNtB5_10ColumnIterNtNtNtNtCsliVzVx4luf9_4core4iter6traits8iterator8Iterator4next
FNDA:0,_RNvXsC_NtCs1QoIgR6d7ey_6seaorm3daoNtB5_10ColumnIterNtNtNtNtCsliVzVx4luf9_4core4iter6traits8iterator8Iterator9size_hint
FNDA:0,_RNvXsC_NtCs1QoIgR6d7ey_6seaorm3daoNtB5_10ColumnIterNtNtNtNtCsliVzVx4luf9_4core4iter6traits8iterator8Iterator3nth
FNDA:0,_RNvXsD_NtCs1QoIgR6d7ey_6seaorm3daoNtB5_10ColumnIterNtNtNtNtCsliVzVx4luf9_4core4iter6traits10exact_size17ExactSizeIterator3len
FNDA:0,_RNvXsE_NtCs1QoIgR6d7ey_6seaorm3daoNtB5_10ColumnIterNtNtNtNtCsliVzVx4luf9_4core4iter6traits12double_ended19DoubleEndedIterator9next_back
FNDA:0,_RNvXsG_NtCs1QoIgR6d7ey_6seaorm3daoNtB5_10ColumnIterNtNtCsliVzVx4luf9_4core5clone5Clone5clone
FNDA:0,_RNvXsO_NtCs1QoIgR6d7ey_6seaorm3daoNtB5_14PrimaryKeyIterNtNtCsliVzVx4luf9_4core3fmt5Debug3fmt
FNDA:0,_RNvMsP_NtCs1QoIgR6d7ey_6seaorm3daoNtB5_14PrimaryKeyIter3get
FNDA:0,_RNvXsQ_NtCs1QoIgR6d7ey_6seaorm3daoNtB5_10PrimaryKeyNtCs2R46ZWsohtG_5strum16IntoEnumIterator4iter
FNDA:0,_RNvXsR_NtCs1QoIgR6d7ey_6seaorm3daoNtB5_14PrimaryKeyIterNtNtNtNtCsliVzVx4luf9_4core4iter6traits8iterator8Iterator4next
FNDA:0,_RNvXsR_NtCs1QoIgR6d7ey_6seaorm3daoNtB5_14PrimaryKeyIterNtNtNtNtCsliVzVx4luf9_4core4iter6traits8iterator8Iterator9size_hint
FNDA:0,_RNvXsR_NtCs1QoIgR6d7ey_6seaorm3daoNtB5_14PrimaryKeyIterNtNtNtNtCsliVzVx4luf9_4core4iter6traits8iterator8Iterator3nth
FNDA:0,_RNvXsS_NtCs1QoIgR6d7ey_6seaorm3daoNtB5_14PrimaryKeyIterNtNtNtNtCsliVzVx4luf9_4core4iter6traits10exact_size17ExactSizeIterator3len
FNDA:0,_RNvXsT_NtCs1QoIgR6d7ey_6seaorm3daoNtB5_14PrimaryKeyIterNtNtNtNtCsliVzVx4luf9_4core4iter6traits12double_ended19DoubleEndedIterator9next_back
FNDA:0,_RNvXsV_NtCs1QoIgR6d7ey_6seaorm3daoNtB5_14PrimaryKeyIterNtNtCsliVzVx4luf9_4core5clone5Clone5clone
FNDA:0,_RNvXs_NtCs1QoIgR6d7ey_6seaorm3daoNtB4_10PrimaryKeyNtNtNtCsjYlr2Bj3iq_7sea_orm6entity11primary_key15PrimaryKeyTrait14auto_increment
FNDA:0,_RNvXs12_NtCs1QoIgR6d7ey_6seaorm3daoNtB6_12RelationIterNtNtCsliVzVx4luf9_4core3fmt5Debug3fmt
FNDA:0,_RNvMs13_NtCs1QoIgR6d7ey_6seaorm3daoNtB6_12RelationIter3get
FNDA:0,_RNvXs14_NtCs1QoIgR6d7ey_6seaorm3daoNtB6_8RelationNtCs2R46ZWsohtG_5strum16IntoEnumIterator4iter
FNDA:0,_RNvXs15_NtCs1QoIgR6d7ey_6seaorm3daoNtB6_12RelationIterNtNtNtNtCsliVzVx4luf9_4core4iter6traits8iterator8Iterator4next
FNDA:0,_RNvXs15_NtCs1QoIgR6d7ey_6seaorm3daoNtB6_12RelationIterNtNtNtNtCsliVzVx4luf9_4core4iter6traits8iterator8Iterator9size_hint
FNDA:0,_RNvXs15_NtCs1QoIgR6d7ey_6seaorm3daoNtB6_12RelationIterNtNtNtNtCsliVzVx4luf9_4core4iter6traits8iterator8Iterator3nth
FNDA:0,_RNvXs16_NtCs1QoIgR6d7ey_6seaorm3daoNtB6_12RelationIterNtNtNtNtCsliVzVx4luf9_4core4iter6traits10exact_size17ExactSizeIterator3len
FNDA:0,_RNvXs17_NtCs1QoIgR6d7ey_6seaorm3daoNtB6_12RelationIterNtNtNtNtCsliVzVx4luf9_4core4iter6traits12double_ended19DoubleEndedIterator9next_back
FNDA:0,_RNvXs19_NtCs1QoIgR6d7ey_6seaorm3daoNtB6_12RelationIterNtNtCsliVzVx4luf9_4core5clone5Clone5clone
FNDA:0,_RNvXs0_NtCs1QoIgR6d7ey_6seaorm3daoNtB5_6ColumnNtNtNtCsjYlr2Bj3iq_7sea_orm6entity6column11ColumnTrait3def
FNDA:0,_RNvXs1_NtCs1QoIgR6d7ey_6seaorm3daoNtB5_8RelationNtNtNtCsjYlr2Bj3iq_7sea_orm6entity8relation13RelationTrait3def
FNDA:0,_RNvXs2_NtCs1QoIgR6d7ey_6seaorm3daoNtB5_6EntityINtNtNtCsjYlr2Bj3iq_7sea_orm6entity8relation7RelatedNtNtB7_13dao_discourse6EntityE2to
FNDA:0,_RNvXs3_NtCs1QoIgR6d7ey_6seaorm3daoNtB5_6EntityINtNtNtCsjYlr2Bj3iq_7sea_orm6entity8relation7RelatedNtNtB7_11dao_indexer6EntityE2to
FNDA:0,_RNvXs4_NtCs1QoIgR6d7ey_6seaorm3daoNtB5_6EntityINtNtNtCsjYlr2Bj3iq_7sea_orm6entity8relation7RelatedNtNtB7_8proposal6EntityE2to
FNDA:0,_RNvXs5_NtCs1QoIgR6d7ey_6seaorm3daoNtB5_6EntityINtNtNtCsjYlr2Bj3iq_7sea_orm6entity8relation7RelatedNtNtB7_12subscription6EntityE2to
FNDA:0,_RNvXs6_NtCs1QoIgR6d7ey_6seaorm3daoNtB5_6EntityINtNtNtCsjYlr2Bj3iq_7sea_orm6entity8relation7RelatedNtNtB7_4vote6EntityE2to
FNF:13
FNH:0
DA:10,0
DA:11,0
DA:12,0
DA:15,0
DA:26,0
DA:37,0
DA:44,0
DA:45,0
DA:46,0
DA:49,0
DA:60,0
DA:61,0
DA:62,0
DA:63,0
DA:64,0
DA:65,0
DA:66,0
DA:67,0
DA:68,0
DA:70,0
DA:74,0
DA:75,0
DA:76,0
DA:77,0
DA:78,0
DA:79,0
DA:80,0
DA:82,0
DA:86,0
DA:87,0
DA:88,0
DA:92,0
DA:93,0
DA:94,0
DA:98,0
DA:99,0
DA:100,0
DA:104,0
DA:105,0
DA:106,0
DA:110,0
DA:111,0
DA:112,0
BRF:0
BRH:0
LF:43
LH:0
end_of_record
SF:/Users/andrei/git/proposalsapp/libs/rust/seaorm/src/dao_discourse.rs
FN:15,_RINvXNvXNvNtCshdZFMozNxrb_6seaorm13dao_discourses_1__NtB8_5ModelNtNtCsi2zptu4QhLv_5serde2de11Deserialize11deserializeNtB3_14___FieldVisitorNtB12_7Visitor9visit_u64pEBa_
FN:15,_RINvXNvXNvNtCshdZFMozNxrb_6seaorm13dao_discourses_1__NtB8_5ModelNtNtCsi2zptu4QhLv_5serde2de11Deserialize11deserializeNtB3_14___FieldVisitorNtB12_7Visitor9visit_strpEBa_
FN:15,_RINvXNvXNvNtCshdZFMozNxrb_6seaorm13dao_discourses_1__NtB8_5ModelNtNtCsi2zptu4QhLv_5serde2de11Deserialize11deserializeNtB3_14___FieldVisitorNtB12_7Visitor11visit_bytespEBa_
FN:15,_RINvXs_NvXNvNtCshdZFMozNxrb_6seaorm13dao_discourses_1__NtBa_5ModelNtNtCsi2zptu4QhLv_5serde2de11Deserialize11deserializeNtB5_7___FieldB12_11deserializepEBc_
FN:15,_RINvXs0_NvXNvNtCshdZFMozNxrb_6seaorm13dao_discourses_1__NtBb_5ModelNtNtCsi2zptu4QhLv_5serde2de11Deserialize11deserializeNtB6_9___VisitorNtB15_7Visitor9visit_seqpEBd_
FN:15,_RINvXs0_NvXNvNtCshdZFMozNxrb_6seaorm13dao_discourses_1__NtBb_5ModelNtNtCsi2zptu4QhLv_5serde2de11Deserialize11deserializeNtB6_9___VisitorNtB15_7Visitor9visit_mappEBd_
FN:10,_RNvXNtCshdZFMozNxrb_6seaorm13dao_discourseNtB2_6EntityNtNtNtCsjYlr2Bj3iq_7sea_orm6entity11base_entity10EntityName10table_name
FN:38,_RNvXs_NtCshdZFMozNxrb_6seaorm13dao_discourseNtB4_10PrimaryKeyNtNtNtCsjYlr2Bj3iq_7sea_orm6entity11primary_key15PrimaryKeyTrait14auto_increment
FN:54,_RNvXs0_NtCshdZFMozNxrb_6seaorm13dao_discourseNtB5_6ColumnNtNtNtCsjYlr2Bj3iq_7sea_orm6entity6column11ColumnTrait3def
FN:65,_RNvXs1_NtCshdZFMozNxrb_6seaorm13dao_discourseNtB5_8RelationNtNtNtCsjYlr2Bj3iq_7sea_orm6entity8relation13RelationTrait3def
FN:80,_RNvXs2_NtCshdZFMozNxrb_6seaorm13dao_discourseNtB5_6EntityINtNtNtCsjYlr2Bj3iq_7sea_orm6entity8relation7RelatedNtNtB7_3dao6EntityE2to
FN:86,_RNvXs3_NtCshdZFMozNxrb_6seaorm13dao_discourseNtB5_6EntityINtNtNtCsjYlr2Bj3iq_7sea_orm6entity8relation7RelatedNtNtB7_18discourse_category6EntityE2to
FN:92,_RNvXs4_NtCshdZFMozNxrb_6seaorm13dao_discourseNtB5_6EntityINtNtNtCsjYlr2Bj3iq_7sea_orm6entity8relation7RelatedNtNtB7_14discourse_post6EntityE2to
FN:98,_RNvXs5_NtCshdZFMozNxrb_6seaorm13dao_discourseNtB5_6EntityINtNtNtCsjYlr2Bj3iq_7sea_orm6entity8relation7RelatedNtNtB7_15discourse_topic6EntityE2to
FN:104,_RNvXs6_NtCshdZFMozNxrb_6seaorm13dao_discourseNtB5_6EntityINtNtNtCsjYlr2Bj3iq_7sea_orm6entity8relation7RelatedNtNtB7_14discourse_user6EntityE2to
FN:15,_RNvXNvXNvNtCshdZFMozNxrb_6seaorm13dao_discourses_1__NtB7_5ModelNtNtCsi2zptu4QhLv_5serde2de11Deserialize11deserializeNtB2_14___FieldVisitorNtB11_7Visitor9expecting
FN:15,_RNvXs0_NvXNvNtCshdZFMozNxrb_6seaorm13dao_discourses_1__NtBa_5ModelNtNtCsi2zptu4QhLv_5serde2de11Deserialize11deserializeNtB5_9___VisitorNtB14_7Visitor9expecting
FN:23,_RNvXsz_NtCshdZFMozNxrb_6seaorm13dao_discourseNtB5_10ColumnIterNtNtCsliVzVx4luf9_4core3fmt5Debug3fmt
FN:23,_RNvMsA_NtCshdZFMozNxrb_6seaorm13dao_discourseNtB5_10ColumnIter3get
FN:23,_RNvXsB_NtCshdZFMozNxrb_6seaorm13dao_discourseNtB5_6ColumnNtCs2R46ZWsohtG_5strum16IntoEnumIterator4iter
FN:23,_RNvXsC_NtCshdZFMozNxrb_6seaorm13dao_discourseNtB5_10ColumnIterNtNtNtNtCsliVzVx4luf9_4core4iter6traits8iterator8Iterator4next
FN:23,_RNvXsC_NtCshdZFMozNxrb_6seaorm13dao_discourseNtB5_10ColumnIterNtNtNtNtCsliVzVx4luf9_4core4iter6traits8iterator8Iterator9size_hint
FN:23,_RNvXsC_NtCshdZFMozNxrb_6seaorm13dao_discourseNtB5_10ColumnIterNtNtNtNtCsliVzVx4luf9_4core4iter6traits8iterator8Iterator3nth
FN:23,_RNvXsD_NtCshdZFMozNxrb_6seaorm13dao_discourseNtB5_10ColumnIterNtNtNtNtCsliVzVx4luf9_4core4iter6traits10exact_size17ExactSizeIterator3len
FN:23,_RNvXsE_NtCshdZFMozNxrb_6seaorm13dao_discourseNtB5_10ColumnIterNtNtNtNtCsliVzVx4luf9_4core4iter6traits12double_ended19DoubleEndedIterator9next_back
FN:23,_RNvXsG_NtCshdZFMozNxrb_6seaorm13dao_discourseNtB5_10ColumnIterNtNtCsliVzVx4luf9_4core5clone5Clone5clone
FN:31,_RNvXsO_NtCshdZFMozNxrb_6seaorm13dao_discourseNtB5_14PrimaryKeyIterNtNtCsliVzVx4luf9_4core3fmt5Debug3fmt
FN:31,_RNvMsP_NtCshdZFMozNxrb_6seaorm13dao_discourseNtB5_14PrimaryKeyIter3get
FN:31,_RNvXsQ_NtCshdZFMozNxrb_6seaorm13dao_discourseNtB5_10PrimaryKeyNtCs2R46ZWsohtG_5strum16IntoEnumIterator4iter
FN:31,_RNvXsR_NtCshdZFMozNxrb_6seaorm13dao_discourseNtB5_14PrimaryKeyIterNtNtNtNtCsliVzVx4luf9_4core4iter6traits8iterator8Iterator4next
FN:31,_RNvXsR_NtCshdZFMozNxrb_6seaorm13dao_discourseNtB5_14PrimaryKeyIterNtNtNtNtCsliVzVx4luf9_4core4iter6traits8iterator8Iterator9size_hint
FN:31,_RNvXsR_NtCshdZFMozNxrb_6seaorm13dao_discourseNtB5_14PrimaryKeyIterNtNtNtNtCsliVzVx4luf9_4core4iter6traits8iterator8Iterator3nth
FN:31,_RNvXsS_NtCshdZFMozNxrb_6seaorm13dao_discourseNtB5_14PrimaryKeyIterNtNtNtNtCsliVzVx4luf9_4core4iter6traits10exact_size17ExactSizeIterator3len
FN:31,_RNvXsT_NtCshdZFMozNxrb_6seaorm13dao_discourseNtB5_14PrimaryKeyIterNtNtNtNtCsliVzVx4luf9_4core4iter6traits12double_ended19DoubleEndedIterator9next_back
FN:31,_RNvXsV_NtCshdZFMozNxrb_6seaorm13dao_discourseNtB5_14PrimaryKeyIterNtNtCsliVzVx4luf9_4core5clone5Clone5clone
FN:43,_RNvXs12_NtCshdZFMozNxrb_6seaorm13dao_discourseNtB6_12RelationIterNtNtCsliVzVx4luf9_4core3fmt5Debug3fmt
FN:43,_RNvMs13_NtCshdZFMozNxrb_6seaorm13dao_discourseNtB6_12RelationIter3get
FN:43,_RNvXs14_NtCshdZFMozNxrb_6seaorm13dao_discourseNtB6_8RelationNtCs2R46ZWsohtG_5strum16IntoEnumIterator4iter
FN:43,_RNvXs15_NtCshdZFMozNxrb_6seaorm13dao_discourseNtB6_12RelationIterNtNtNtNtCsliVzVx4luf9_4core4iter6traits8iterator8Iterator4next
FN:43,_RNvXs15_NtCshdZFMozNxrb_6seaorm13dao_discourseNtB6_12RelationIterNtNtNtNtCsliVzVx4luf9_4core4iter6traits8iterator8Iterator9size_hint
FN:43,_RNvXs15_NtCshdZFMozNxrb_6seaorm13dao_discourseNtB6_12RelationIterNtNtNtNtCsliVzVx4luf9_4core4iter6traits8iterator8Iterator3nth
FN:43,_RNvXs16_NtCshdZFMozNxrb_6seaorm13dao_discourseNtB6_12RelationIterNtNtNtNtCsliVzVx4luf9_4core4iter6traits10exact_size17ExactSizeIterator3len
FN:43,_RNvXs17_NtCshdZFMozNxrb_6seaorm13dao_discourseNtB6_12RelationIterNtNtNtNtCsliVzVx4luf9_4core4iter6traits12double_ended19DoubleEndedIterator9next_back
FN:43,_RNvXs19_NtCshdZFMozNxrb_6seaorm13dao_discourseNtB6_12RelationIterNtNtCsliVzVx4luf9_4core5clone5Clone5clone
FN:10,_RNvXNtCs1QoIgR6d7ey_6seaorm13dao_discourseNtB2_6EntityNtNtNtCsjYlr2Bj3iq_7sea_orm6entity11base_entity10EntityName10table_name
FN:15,_RNvXNvXNvNtCs1QoIgR6d7ey_6seaorm13dao_discourses_1__NtB7_5ModelNtNtCsi2zptu4QhLv_5serde2de11Deserialize11deserializeNtB2_14___FieldVisitorNtB11_7Visitor9expecting
FN:15,_RINvXNvXNvNtCs1QoIgR6d7ey_6seaorm13dao_discourses_1__NtB8_5ModelNtNtCsi2zptu4QhLv_5serde2de11Deserialize11deserializeNtB3_14___FieldVisitorNtB12_7Visitor9visit_u64pEBa_
FN:15,_RINvXNvXNvNtCs1QoIgR6d7ey_6seaorm13dao_discourses_1__NtB8_5ModelNtNtCsi2zptu4QhLv_5serde2de11Deserialize11deserializeNtB3_14___FieldVisitorNtB12_7Visitor9visit_strpEBa_
FN:15,_RINvXNvXNvNtCs1QoIgR6d7ey_6seaorm13dao_discourses_1__NtB8_5ModelNtNtCsi2zptu4QhLv_5serde2de11Deserialize11deserializeNtB3_14___FieldVisitorNtB12_7Visitor11visit_bytespEBa_
FN:15,_RINvXs_NvXNvNtCs1QoIgR6d7ey_6seaorm13dao_discourses_1__NtBa_5ModelNtNtCsi2zptu4QhLv_5serde2de11Deserialize11deserializeNtB5_7___FieldB12_11deserializepEBc_
FN:15,_RNvXs0_NvXNvNtCs1QoIgR6d7ey_6seaorm13dao_discourses_1__NtBa_5ModelNtNtCsi2zptu4QhLv_5serde2de11Deserialize11deserializeNtB5_9___VisitorNtB14_7Visitor9expecting
FN:15,_RINvXs0_NvXNvNtCs1QoIgR6d7ey_6seaorm13dao_discourses_1__NtBb_5ModelNtNtCsi2zptu4QhLv_5serde2de11Deserialize11deserializeNtB6_9___VisitorNtB15_7Visitor9visit_seqpEBd_
FN:15,_RINvXs0_NvXNvNtCs1QoIgR6d7ey_6seaorm13dao_discourses_1__NtBb_5ModelNtNtCsi2zptu4QhLv_5serde2de11Deserialize11deserializeNtB6_9___VisitorNtB15_7Visitor9visit_mappEBd_
FN:23,_RNvXsz_NtCs1QoIgR6d7ey_6seaorm13dao_discourseNtB5_10ColumnIterNtNtCsliVzVx4luf9_4core3fmt5Debug3fmt
FN:23,_RNvMsA_NtCs1QoIgR6d7ey_6seaorm13dao_discourseNtB5_10ColumnIter3get
FN:23,_RNvXsB_NtCs1QoIgR6d7ey_6seaorm13dao_discourseNtB5_6ColumnNtCs2R46ZWsohtG_5strum16IntoEnumIterator4iter
FN:23,_RNvXsC_NtCs1QoIgR6d7ey_6seaorm13dao_discourseNtB5_10ColumnIterNtNtNtNtCsliVzVx4luf9_4core4iter6traits8iterator8Iterator4next
FN:23,_RNvXsC_NtCs1QoIgR6d7ey_6seaorm13dao_discourseNtB5_10ColumnIterNtNtNtNtCsliVzVx4luf9_4core4iter6traits8iterator8Iterator9size_hint
FN:23,_RNvXsC_NtCs1QoIgR6d7ey_6seaorm13dao_discourseNtB5_10ColumnIterNtNtNtNtCsliVzVx4luf9_4core4iter6traits8iterator8Iterator3nth
FN:23,_RNvXsD_NtCs1QoIgR6d7ey_6seaorm13dao_discourseNtB5_10ColumnIterNtNtNtNtCsliVzVx4luf9_4core4iter6traits10exact_size17ExactSizeIterator3len
FN:23,_RNvXsE_NtCs1QoIgR6d7ey_6seaorm13dao_discourseNtB5_10ColumnIterNtNtNtNtCsliVzVx4luf9_4core4iter6traits12double_ended19DoubleEndedIterator9next_back
FN:23,_RNvXsG_NtCs1QoIgR6d7ey_6seaorm13dao_discourseNtB5_10ColumnIterNtNtCsliVzVx4luf9_4core5clone5Clone5clone
FN:31,_RNvXsO_NtCs1QoIgR6d7ey_6seaorm13dao_discourseNtB5_14PrimaryKeyIterNtNtCsliVzVx4luf9_4core3fmt5Debug3fmt
FN:31,_RNvMsP_NtCs1QoIgR6d7ey_6seaorm13dao_discourseNtB5_14PrimaryKeyIter3get
FN:31,_RNvXsQ_NtCs1QoIgR6d7ey_6seaorm13dao_discourseNtB5_10PrimaryKeyNtCs2R46ZWsohtG_5strum16IntoEnumIterator4iter
FN:31,_RNvXsR_NtCs1QoIgR6d7ey_6seaorm13dao_discourseNtB5_14PrimaryKeyIterNtNtNtNtCsliVzVx4luf9_4core4iter6traits8iterator8Iterator4next
FN:31,_RNvXsR_NtCs1QoIgR6d7ey_6seaorm13dao_discourseNtB5_14PrimaryKeyIterNtNtNtNtCsliVzVx4luf9_4core4iter6traits8iterator8Iterator9size_hint
FN:31,_RNvXsR_NtCs1QoIgR6d7ey_6seaorm13dao_discourseNtB5_14PrimaryKeyIterNtNtNtNtCsliVzVx4luf9_4core4iter6traits8iterator8Iterator3nth
FN:31,_RNvXsS_NtCs1QoIgR6d7ey_6seaorm13dao_discourseNtB5_14PrimaryKeyIterNtNtNtNtCsliVzVx4luf9_4core4iter6traits10exact_size17ExactSizeIterator3len
FN:31,_RNvXsT_NtCs1QoIgR6d7ey_6seaorm13dao_discourseNtB5_14PrimaryKeyIterNtNtNtNtCsliVzVx4luf9_4core4iter6traits12double_ended19DoubleEndedIterator9next_back
FN:31,_RNvXsV_NtCs1QoIgR6d7ey_6seaorm13dao_discourseNtB5_14PrimaryKeyIterNtNtCsliVzVx4luf9_4core5clone5Clone5clone
FN:38,_RNvXs_NtCs1QoIgR6d7ey_6seaorm13dao_discourseNtB4_10PrimaryKeyNtNtNtCsjYlr2Bj3iq_7sea_orm6entity11primary_key15PrimaryKeyTrait14auto_increment
FN:43,_RNvXs12_NtCs1QoIgR6d7ey_6seaorm13dao_discourseNtB6_12RelationIterNtNtCsliVzVx4luf9_4core3fmt5Debug3fmt
FN:43,_RNvMs13_NtCs1QoIgR6d7ey_6seaorm13dao_discourseNtB6_12RelationIter3get
FN:43,_RNvXs14_NtCs1QoIgR6d7ey_6seaorm13dao_discourseNtB6_8RelationNtCs2R46ZWsohtG_5strum16IntoEnumIterator4iter
FN:43,_RNvXs15_NtCs1QoIgR6d7ey_6seaorm13dao_discourseNtB6_12RelationIterNtNtNtNtCsliVzVx4luf9_4core4iter6traits8iterator8Iterator4next
FN:43,_RNvXs15_NtCs1QoIgR6d7ey_6seaorm13dao_discourseNtB6_12RelationIterNtNtNtNtCsliVzVx4luf9_4core4iter6traits8iterator8Iterator9size_hint
FN:43,_RNvXs15_NtCs1QoIgR6d7ey_6seaorm13dao_discourseNtB6_12RelationIterNtNtNtNtCsliVzVx4luf9_4core4iter6traits8iterator8Iterator3nth
FN:43,_RNvXs16_NtCs1QoIgR6d7ey_6seaorm13dao_discourseNtB6_12RelationIterNtNtNtNtCsliVzVx4luf9_4core4iter6traits10exact_size17ExactSizeIterator3len
FN:43,_RNvXs17_NtCs1QoIgR6d7ey_6seaorm13dao_discourseNtB6_12RelationIterNtNtNtNtCsliVzVx4luf9_4core4iter6traits12double_ended19DoubleEndedIterator9next_back
FN:43,_RNvXs19_NtCs1QoIgR6d7ey_6seaorm13dao_discourseNtB6_12RelationIterNtNtCsliVzVx4luf9_4core5clone5Clone5clone
FN:54,_RNvXs0_NtCs1QoIgR6d7ey_6seaorm13dao_discourseNtB5_6ColumnNtNtNtCsjYlr2Bj3iq_7sea_orm6entity6column11ColumnTrait3def
FN:65,_RNvXs1_NtCs1QoIgR6d7ey_6seaorm13dao_discourseNtB5_8RelationNtNtNtCsjYlr2Bj3iq_7sea_orm6entity8relation13RelationTrait3def
FN:80,_RNvXs2_NtCs1QoIgR6d7ey_6seaorm13dao_discourseNtB5_6EntityINtNtNtCsjYlr2Bj3iq_7sea_orm6entity8relation7RelatedNtNtB7_3dao6EntityE2to
FN:86,_RNvXs3_NtCs1QoIgR6d7ey_6seaorm13dao_discourseNtB5_6EntityINtNtNtCsjYlr2Bj3iq_7sea_orm6entity8relation7RelatedNtNtB7_18discourse_category6EntityE2to
FN:92,_RNvXs4_NtCs1QoIgR6d7ey_6seaorm13dao_discourseNtB5_6EntityINtNtNtCsjYlr2Bj3iq_7sea_orm6entity8relation7RelatedNtNtB7_14discourse_post6EntityE2to
FN:98,_RNvXs5_NtCs1QoIgR6d7ey_6seaorm13dao_discourseNtB5_6EntityINtNtNtCsjYlr2Bj3iq_7sea_orm6entity8relation7RelatedNtNtB7_15discourse_topic6EntityE2to
FN:104,_RNvXs6_NtCs1QoIgR6d7ey_6seaorm13dao_discourseNtB5_6EntityINtNtNtCsjYlr2Bj3iq_7sea_orm6entity8relation7RelatedNtNtB7_14discourse_user6EntityE2to
FNDA:0,_RINvXNvXNvNtCshdZFMozNxrb_6seaorm13dao_discourses_1__NtB8_5ModelNtNtCsi2zptu4QhLv_5serde2de11Deserialize11deserializeNtB3_14___FieldVisitorNtB12_7Visitor9visit_u64pEBa_
FNDA:0,_RINvXNvXNvNtCshdZFMozNxrb_6seaorm13dao_discourses_1__NtB8_5ModelNtNtCsi2zptu4QhLv_5serde2de11Deserialize11deserializeNtB3_14___FieldVisitorNtB12_7Visitor9visit_strpEBa_
FNDA:0,_RINvXNvXNvNtCshdZFMozNxrb_6seaorm13dao_discourses_1__NtB8_5ModelNtNtCsi2zptu4QhLv_5serde2de11Deserialize11deserializeNtB3_14___FieldVisitorNtB12_7Visitor11visit_bytespEBa_
FNDA:0,_RINvXs_NvXNvNtCshdZFMozNxrb_6seaorm13dao_discourses_1__NtBa_5ModelNtNtCsi2zptu4QhLv_5serde2de11Deserialize11deserializeNtB5_7___FieldB12_11deserializepEBc_
FNDA:0,_RINvXs0_NvXNvNtCshdZFMozNxrb_6seaorm13dao_discourses_1__NtBb_5ModelNtNtCsi2zptu4QhLv_5serde2de11Deserialize11deserializeNtB6_9___VisitorNtB15_7Visitor9visit_seqpEBd_
FNDA:0,_RINvXs0_NvXNvNtCshdZFMozNxrb_6seaorm13dao_discourses_1__NtBb_5ModelNtNtCsi2zptu4QhLv_5serde2de11Deserialize11deserializeNtB6_9___VisitorNtB15_7Visitor9visit_mappEBd_
FNDA:0,_RNvXNtCshdZFMozNxrb_6seaorm13dao_discourseNtB2_6EntityNtNtNtCsjYlr2Bj3iq_7sea_orm6entity11base_entity10EntityName10table_name
FNDA:0,_RNvXs_NtCshdZFMozNxrb_6seaorm13dao_discourseNtB4_10PrimaryKeyNtNtNtCsjYlr2Bj3iq_7sea_orm6entity11primary_key15PrimaryKeyTrait14auto_increment
FNDA:0,_RNvXs0_NtCshdZFMozNxrb_6seaorm13dao_discourseNtB5_6ColumnNtNtNtCsjYlr2Bj3iq_7sea_orm6entity6column11ColumnTrait3def
FNDA:0,_RNvXs1_NtCshdZFMozNxrb_6seaorm13dao_discourseNtB5_8RelationNtNtNtCsjYlr2Bj3iq_7sea_orm6entity8relation13RelationTrait3def
FNDA:0,_RNvXs2_NtCshdZFMozNxrb_6seaorm13dao_discourseNtB5_6EntityINtNtNtCsjYlr2Bj3iq_7sea_orm6entity8relation7RelatedNtNtB7_3dao6EntityE2to
FNDA:0,_RNvXs3_NtCshdZFMozNxrb_6seaorm13dao_discourseNtB5_6EntityINtNtNtCsjYlr2Bj3iq_7sea_orm6entity8relation7RelatedNtNtB7_18discourse_category6EntityE2to
FNDA:0,_RNvXs4_NtCshdZFMozNxrb_6seaorm13dao_discourseNtB5_6EntityINtNtNtCsjYlr2Bj3iq_7sea_orm6entity8relation7RelatedNtNtB7_14discourse_post6EntityE2to
FNDA:0,_RNvXs5_NtCshdZFMozNxrb_6seaorm13dao_discourseNtB5_6EntityINtNtNtCsjYlr2Bj3iq_7sea_orm6entity8relation7RelatedNtNtB7_15discourse_topic6EntityE2to
FNDA:0,_RNvXs6_NtCshdZFMozNxrb_6seaorm13dao_discourseNtB5_6EntityINtNtNtCsjYlr2Bj3iq_7sea_orm6entity8relation7RelatedNtNtB7_14discourse_user6EntityE2to
FNDA:0,_RNvXNvXNvNtCshdZFMozNxrb_6seaorm13dao_discourses_1__NtB7_5ModelNtNtCsi2zptu4QhLv_5serde2de11Deserialize11deserializeNtB2_14___FieldVisitorNtB11_7Visitor9expecting
FNDA:0,_RNvXs0_NvXNvNtCshdZFMozNxrb_6seaorm13dao_discourses_1__NtBa_5ModelNtNtCsi2zptu4QhLv_5serde2de11Deserialize11deserializeNtB5_9___VisitorNtB14_7Visitor9expecting
FNDA:0,_RNvXsz_NtCshdZFMozNxrb_6seaorm13dao_discourseNtB5_10ColumnIterNtNtCsliVzVx4luf9_4core3fmt5Debug3fmt
FNDA:0,_RNvMsA_NtCshdZFMozNxrb_6seaorm13dao_discourseNtB5_10ColumnIter3get
FNDA:0,_RNvXsB_NtCshdZFMozNxrb_6seaorm13dao_discourseNtB5_6ColumnNtCs2R46ZWsohtG_5strum16IntoEnumIterator4iter
FNDA:0,_RNvXsC_NtCshdZFMozNxrb_6seaorm13dao_discourseNtB5_10ColumnIterNtNtNtNtCsliVzVx4luf9_4core4iter6traits8iterator8Iterator4next
FNDA:0,_RNvXsC_NtCshdZFMozNxrb_6seaorm13dao_discourseNtB5_10ColumnIterNtNtNtNtCsliVzVx4luf9_4core4iter6traits8iterator8Iterator9size_hint
FNDA:0,_RNvXsC_NtCshdZFMozNxrb_6seaorm13dao_discourseNtB5_10ColumnIterNtNtNtNtCsliVzVx4luf9_4core4iter6traits8iterator8Iterator3nth
FNDA:0,_RNvXsD_NtCshdZFMozNxrb_6seaorm13dao_discourseNtB5_10ColumnIterNtNtNtNtCsliVzVx4luf9_4core4iter6traits10exact_size17ExactSizeIterator3len
FNDA:0,_RNvXsE_NtCshdZFMozNxrb_6seaorm13dao_discourseNtB5_10ColumnIterNtNtNtNtCsliVzVx4luf9_4core4iter6traits12double_ended19DoubleEndedIterator9next_back
FNDA:0,_RNvXsG_NtCshdZFMozNxrb_6seaorm13dao_discourseNtB5_10ColumnIterNtNtCsliVzVx4luf9_4core5clone5Clone5clone
FNDA:0,_RNvXsO_NtCshdZFMozNxrb_6seaorm13dao_discourseNtB5_14PrimaryKeyIterNtNtCsliVzVx4luf9_4core3fmt5Debug3fmt
FNDA:0,_RNvMsP_NtCshdZFMozNxrb_6seaorm13dao_discourseNtB5_14PrimaryKeyIter3get
FNDA:0,_RNvXsQ_NtCshdZFMozNxrb_6seaorm13dao_discourseNtB5_10PrimaryKeyNtCs2R46ZWsohtG_5strum16IntoEnumIterator4iter
FNDA:0,_RNvXsR_NtCshdZFMozNxrb_6seaorm13dao_discourseNtB5_14PrimaryKeyIterNtNtNtNtCsliVzVx4luf9_4core4iter6traits8iterator8Iterator4next
FNDA:0,_RNvXsR_NtCshdZFMozNxrb_6seaorm13dao_discourseNtB5_14PrimaryKeyIterNtNtNtNtCsliVzVx4luf9_4core4iter6traits8iterator8Iterator9size_hint
FNDA:0,_RNvXsR_NtCshdZFMozNxrb_6seaorm13dao_discourseNtB5_14PrimaryKeyIterNtNtNtNtCsliVzVx4luf9_4core4iter6traits8iterator8Iterator3nth
FNDA:0,_RNvXsS_NtCshdZFMozNxrb_6seaorm13dao_discourseNtB5_14PrimaryKeyIterNtNtNtNtCsliVzVx4luf9_4core4iter6traits10exact_size17ExactSizeIterator3len
FNDA:0,_RNvXsT_NtCshdZFMozNxrb_6seaorm13dao_discourseNtB5_14PrimaryKeyIterNtNtNtNtCsliVzVx4luf9_4core4iter6traits12double_ended19DoubleEndedIterator9next_back
FNDA:0,_RNvXsV_NtCshdZFMozNxrb_6seaorm13dao_discourseNtB5_14PrimaryKeyIterNtNtCsliVzVx4luf9_4core5clone5Clone5clone
FNDA:0,_RNvXs12_NtCshdZFMozNxrb_6seaorm13dao_discourseNtB6_12RelationIterNtNtCsliVzVx4luf9_4core3fmt5Debug3fmt
FNDA:0,_RNvMs13_NtCshdZFMozNxrb_6seaorm13dao_discourseNtB6_12RelationIter3get
FNDA:0,_RNvXs14_NtCshdZFMozNxrb_6seaorm13dao_discourseNtB6_8RelationNtCs2R46ZWsohtG_5strum16IntoEnumIterator4iter
FNDA:0,_RNvXs15_NtCshdZFMozNxrb_6seaorm13dao_discourseNtB6_12RelationIterNtNtNtNtCsliVzVx4luf9_4core4iter6traits8iterator8Iterator4next
FNDA:0,_RNvXs15_NtCshdZFMozNxrb_6seaorm13dao_discourseNtB6_12RelationIterNtNtNtNtCsliVzVx4luf9_4core4iter6traits8iterator8Iterator9size_hint
FNDA:0,_RNvXs15_NtCshdZFMozNxrb_6seaorm13dao_discourseNtB6_12RelationIterNtNtNtNtCsliVzVx4luf9_4core4iter6traits8iterator8Iterator3nth
FNDA:0,_RNvXs16_NtCshdZFMozNxrb_6seaorm13dao_discourseNtB6_12RelationIterNtNtNtNtCsliVzVx4luf9_4core4iter6traits10exact_size17ExactSizeIterator3len
FNDA:0,_RNvXs17_NtCshdZFMozNxrb_6seaorm13dao_discourseNtB6_12RelationIterNtNtNtNtCsliVzVx4luf9_4core4iter6traits12double_ended19DoubleEndedIterator9next_back
FNDA:0,_RNvXs19_NtCshdZFMozNxrb_6seaorm13dao_discourseNtB6_12RelationIterNtNtCsliVzVx4luf9_4core5clone5Clone5clone
FNDA:0,_RNvXNtCs1QoIgR6d7ey_6seaorm13dao_discourseNtB2_6EntityNtNtNtCsjYlr2Bj3iq_7sea_orm6entity11base_entity10EntityName10table_name
FNDA:0,_RNvXNvXNvNtCs1QoIgR6d7ey_6seaorm13dao_discourses_1__NtB7_5ModelNtNtCsi2zptu4QhLv_5serde2de11Deserialize11deserializeNtB2_14___FieldVisitorNtB11_7Visitor9expecting
FNDA:0,_RINvXNvXNvNtCs1QoIgR6d7ey_6seaorm13dao_discourses_1__NtB8_5ModelNtNtCsi2zptu4QhLv_5serde2de11Deserialize11deserializeNtB3_14___FieldVisitorNtB12_7Visitor9visit_u64pEBa_
FNDA:0,_RINvXNvXNvNtCs1QoIgR6d7ey_6seaorm13dao_discourses_1__NtB8_5ModelNtNtCsi2zptu4QhLv_5serde2de11Deserialize11deserializeNtB3_14___FieldVisitorNtB12_7Visitor9visit_strpEBa_
FNDA:0,_RINvXNvXNvNtCs1QoIgR6d7ey_6seaorm13dao_discourses_1__NtB8_5ModelNtNtCsi2zptu4QhLv_5serde2de11Deserialize11deserializeNtB3_14___FieldVisitorNtB12_7Visitor11visit_bytespEBa_
FNDA:0,_RINvXs_NvXNvNtCs1QoIgR6d7ey_6seaorm13dao_discourses_1__NtBa_5ModelNtNtCsi2zptu4QhLv_5serde2de11Deserialize11deserializeNtB5_7___FieldB12_11deserializepEBc_
FNDA:0,_RNvXs0_NvXNvNtCs1QoIgR6d7ey_6seaorm13dao_discourses_1__NtBa_5ModelNtNtCsi2zptu4QhLv_5serde2de11Deserialize11deserializeNtB5_9___VisitorNtB14_7Visitor9expecting
FNDA:0,_RINvXs0_NvXNvNtCs1QoIgR6d7ey_6seaorm13dao_discourses_1__NtBb_5ModelNtNtCsi2zptu4QhLv_5serde2de11Deserialize11deserializeNtB6_9___VisitorNtB15_7Visitor9visit_seqpEBd_
FNDA:0,_RINvXs0_NvXNvNtCs1QoIgR6d7ey_6seaorm13dao_discourses_1__NtBb_5ModelNtNtCsi2zptu4QhLv_5serde2de11Deserialize11deserializeNtB6_9___VisitorNtB15_7Visitor9visit_mappEBd_
FNDA:0,_RNvXsz_NtCs1QoIgR6d7ey_6seaorm13dao_discourseNtB5_10ColumnIterNtNtCsliVzVx4luf9_4core3fmt5Debug3fmt
FNDA:0,_RNvMsA_NtCs1QoIgR6d7ey_6seaorm13dao_discourseNtB5_10ColumnIter3get
FNDA:0,_RNvXsB_NtCs1QoIgR6d7ey_6seaorm13dao_discourseNtB5_6ColumnNtCs2R46ZWsohtG_5strum16IntoEnumIterator4iter
FNDA:0,_RNvXsC_NtCs1QoIgR6d7ey_6seaorm13dao_discourseNtB5_10ColumnIterNtNtNtNtCsliVzVx4luf9_4core4iter6traits8iterator8Iterator4next
FNDA:0,_RNvXsC_NtCs1QoIgR6d7ey_6seaorm13dao_discourseNtB5_10ColumnIterNtNtNtNtCsliVzVx4luf9_4core4iter6traits8iterator8Iterator9size_hint
FNDA:0,_RNvXsC_NtCs1QoIgR6d7ey_6seaorm13dao_discourseNtB5_10ColumnIterNtNtNtNtCsliVzVx4luf9_4core4iter6traits8iterator8Iterator3nth
FNDA:0,_RNvXsD_NtCs1QoIgR6d7ey_6seaorm13dao_discourseNtB5_10ColumnIterNtNtNtNtCsliVzVx4luf9_4core4iter6traits10exact_size17ExactSizeIterator3len
FNDA:0,_RNvXsE_NtCs1QoIgR6d7ey_6seaorm13dao_discourseNtB5_10ColumnIterNtNtNtNtCsliVzVx4luf9_4core4iter6traits12double_ended19DoubleEndedIterator9next_back
FNDA:0,_RNvXsG_NtCs1QoIgR6d7ey_6seaorm13dao_discourseNtB5_10ColumnIterNtNtCsliVzVx4luf9_4core5clone5Clone5clone
FNDA:0,_RNvXsO_NtCs1QoIgR6d7ey_6seaorm13dao_discourseNtB5_14PrimaryKeyIterNtNtCsliVzVx4luf9_4core3fmt5Debug3fmt
FNDA:0,_RNvMsP_NtCs1QoIgR6d7ey_6seaorm13dao_discourseNtB5_14PrimaryKeyIter3get
FNDA:0,_RNvXsQ_NtCs1QoIgR6d7ey_6seaorm13dao_discourseNtB5_10PrimaryKeyNtCs2R46ZWsohtG_5strum16IntoEnumIterator4iter
FNDA:0,_RNvXsR_NtCs1QoIgR6d7ey_6seaorm13dao_discourseNtB5_14PrimaryKeyIterNtNtNtNtCsliVzVx4luf9_4core4iter6traits8iterator8Iterator4next
FNDA:0,_RNvXsR_NtCs1QoIgR6d7ey_6seaorm13dao_discourseNtB5_14PrimaryKeyIterNtNtNtNtCsliVzVx4luf9_4core4iter6traits8iterator8Iterator9size_hint
FNDA:0,_RNvXsR_NtCs1QoIgR6d7ey_6seaorm13dao_discourseNtB5_14PrimaryKeyIterNtNtNtNtCsliVzVx4luf9_4core4iter6traits8iterator8Iterator3nth
FNDA:0,_RNvXsS_NtCs1QoIgR6d7ey_6seaorm13dao_discourseNtB5_14PrimaryKeyIterNtNtNtNtCsliVzVx4luf9_4core4iter6traits10exact_size17ExactSizeIterator3len
FNDA:0,_RNvXsT_NtCs1QoIgR6d7ey_6seaorm13dao_discourseNtB5_14PrimaryKeyIterNtNtNtNtCsliVzVx4luf9_4core4iter6traits12double_ended19DoubleEndedIterator9next_back
FNDA:0,_RNvXsV_NtCs1QoIgR6d7ey_6seaorm13dao_discourseNtB5_14PrimaryKeyIterNtNtCsliVzVx4luf9_4core5clone5Clone5clone
FNDA:0,_RNvXs_NtCs1QoIgR6d7ey_6seaorm13dao_discourseNtB4_10PrimaryKeyNtNtNtCsjYlr2Bj3iq_7sea_orm6entity11primary_key15PrimaryKeyTrait14auto_increment
FNDA:0,_RNvXs12_NtCs1QoIgR6d7ey_6seaorm13dao_discourseNtB6_12RelationIterNtNtCsliVzVx4luf9_4core3fmt5Debug3fmt
FNDA:0,_RNvMs13_NtCs1QoIgR6d7ey_6seaorm13dao_discourseNtB6_12RelationIter3get
FNDA:0,_RNvXs14_NtCs1QoIgR6d7ey_6seaorm13dao_discourseNtB6_8RelationNtCs2R46ZWsohtG_5strum16IntoEnumIterator4iter
FNDA:0,_RNvXs15_NtCs1QoIgR6d7ey_6seaorm13dao_discourseNtB6_12RelationIterNtNtNtNtCsliVzVx4luf9_4core4iter6traits8iterator8Iterator4next
FNDA:0,_RNvXs15_NtCs1QoIgR6d7ey_6seaorm13dao_discourseNtB6_12RelationIterNtNtNtNtCsliVzVx4luf9_4core4iter6traits8iterator8Iterator9size_hint
FNDA:0,_RNvXs15_NtCs1QoIgR6d7ey_6seaorm13dao_discourseNtB6_12RelationIterNtNtNtNtCsliVzVx4luf9_4core4iter6traits8iterator8Iterator3nth
FNDA:0,_RNvXs16_NtCs1QoIgR6d7ey_6seaorm13dao_discourseNtB6_12RelationIterNtNtNtNtCsliVzVx4luf9_4core4iter6traits10exact_size17ExactSizeIterator3len
FNDA:0,_RNvXs17_NtCs1QoIgR6d7ey_6seaorm13dao_discourseNtB6_12RelationIterNtNtNtNtCsliVzVx4luf9_4core4iter6traits12double_ended19DoubleEndedIterator9next_back
FNDA:0,_RNvXs19_NtCs1QoIgR6d7ey_6seaorm13dao_discourseNtB6_12RelationIterNtNtCsliVzVx4luf9_4core5clone5Clone5clone
FNDA:0,_RNvXs0_NtCs1QoIgR6d7ey_6seaorm13dao_discourseNtB5_6ColumnNtNtNtCsjYlr2Bj3iq_7sea_orm6entity6column11ColumnTrait3def
FNDA:0,_RNvXs1_NtCs1QoIgR6d7ey_6seaorm13dao_discourseNtB5_8RelationNtNtNtCsjYlr2Bj3iq_7sea_orm6entity8relation13RelationTrait3def
FNDA:0,_RNvXs2_NtCs1QoIgR6d7ey_6seaorm13dao_discourseNtB5_6EntityINtNtNtCsjYlr2Bj3iq_7sea_orm6entity8relation7RelatedNtNtB7_3dao6EntityE2to
FNDA:0,_RNvXs3_NtCs1QoIgR6d7ey_6seaorm13dao_discourseNtB5_6EntityINtNtNtCsjYlr2Bj3iq_7sea_orm6entity8relation7RelatedNtNtB7_18discourse_category6EntityE2to
FNDA:0,_RNvXs4_NtCs1QoIgR6d7ey_6seaorm13dao_discourseNtB5_6EntityINtNtNtCsjYlr2Bj3iq_7sea_orm6entity8relation7RelatedNtNtB7_14discourse_post6EntityE2to
FNDA:0,_RNvXs5_NtCs1QoIgR6d7ey_6seaorm13dao_discourseNtB5_6EntityINtNtNtCsjYlr2Bj3iq_7sea_orm6entity8relation7RelatedNtNtB7_15discourse_topic6EntityE2to
FNDA:0,_RNvXs6_NtCs1QoIgR6d7ey_6seaorm13dao_discourseNtB5_6EntityINtNtNtCsjYlr2Bj3iq_7sea_orm6entity8relation7RelatedNtNtB7_14discourse_user6EntityE2to
FNF:13
FNH:0
DA:10,0
DA:11,0
DA:12,0
DA:15,0
DA:23,0
DA:31,0
DA:38,0
DA:39,0
DA:40,0
DA:43,0
DA:54,0
DA:55,0
DA:56,0
DA:57,0
DA:58,0
DA:59,0
DA:61,0
DA:65,0
DA:66,0
DA:67,0
DA:68,0
DA:69,0
DA:70,0
DA:71,0
DA:72,0
DA:73,0
DA:74,0
DA:76,0
DA:80,0
DA:81,0
DA:82,0
DA:86,0
DA:87,0
DA:88,0
DA:92,0
DA:93,0
DA:94,0
DA:98,0
DA:99,0
DA:100,0
DA:104,0
DA:105,0
DA:106,0
BRF:0
BRH:0
LF:43
LH:0
end_of_record
SF:/Users/andrei/git/proposalsapp/libs/rust/seaorm/src/dao_indexer.rs
FN:12,_RNvXNtCshdZFMozNxrb_6seaorm11dao_indexerNtB2_6EntityNtNtNtCsjYlr2Bj3iq_7sea_orm6entity11base_entity10EntityName10table_name
FN:48,_RNvXs_NtCshdZFMozNxrb_6seaorm11dao_indexerNtB4_10PrimaryKeyNtNtNtCsjYlr2Bj3iq_7sea_orm6entity11primary_key15PrimaryKeyTrait14auto_increment
FN:62,_RNvXs0_NtCshdZFMozNxrb_6seaorm11dao_indexerNtB5_6ColumnNtNtNtCsjYlr2Bj3iq_7sea_orm6entity6column11ColumnTrait3def
FN:77,_RNvXs1_NtCshdZFMozNxrb_6seaorm11dao_indexerNtB5_8RelationNtNtNtCsjYlr2Bj3iq_7sea_orm6entity8relation13RelationTrait3def
FN:90,_RNvXs2_NtCshdZFMozNxrb_6seaorm11dao_indexerNtB5_6EntityINtNtNtCsjYlr2Bj3iq_7sea_orm6entity8relation7RelatedNtNtB7_3dao6EntityE2to
FN:96,_RNvXs3_NtCshdZFMozNxrb_6seaorm11dao_indexerNtB5_6EntityINtNtNtCsjYlr2Bj3iq_7sea_orm6entity8relation7RelatedNtNtB7_8proposal6EntityE2to
FN:102,_RNvXs4_NtCshdZFMozNxrb_6seaorm11dao_indexerNtB5_6EntityINtNtNtCsjYlr2Bj3iq_7sea_orm6entity8relation7RelatedNtNtB7_4vote6EntityE2to
FN:17,_RNvXNvXNvNtCshdZFMozNxrb_6seaorm11dao_indexers_1__NtB7_5ModelNtNtCsi2zptu4QhLv_5serde2de11Deserialize11deserializeNtB2_14___FieldVisitorNtBZ_7Visitor9expecting
FN:17,_RNvXs0_NvXNvNtCshdZFMozNxrb_6seaorm11dao_indexers_1__NtBa_5ModelNtNtCsi2zptu4QhLv_5serde2de11Deserialize11deserializeNtB5_9___VisitorNtB12_7Visitor9expecting
FN:29,_RNvXsx_NtCshdZFMozNxrb_6seaorm11dao_indexerNtB5_10ColumnIterNtNtCsliVzVx4luf9_4core3fmt5Debug3fmt
FN:29,_RNvMsy_NtCshdZFMozNxrb_6seaorm11dao_indexerNtB5_10ColumnIter3get
FN:29,_RNvXsz_NtCshdZFMozNxrb_6seaorm11dao_indexerNtB5_6ColumnNtCs2R46ZWsohtG_5strum16IntoEnumIterator4iter
FN:29,_RNvXsA_NtCshdZFMozNxrb_6seaorm11dao_indexerNtB5_10ColumnIterNtNtNtNtCsliVzVx4luf9_4core4iter6traits8iterator8Iterator4next
FN:29,_RNvXsA_NtCshdZFMozNxrb_6seaorm11dao_indexerNtB5_10ColumnIterNtNtNtNtCsliVzVx4luf9_4core4iter6traits8iterator8Iterator9size_hint
FN:29,_RNvXsA_NtCshdZFMozNxrb_6seaorm11dao_indexerNtB5_10ColumnIterNtNtNtNtCsliVzVx4luf9_4core4iter6traits8iterator8Iterator3nth
FN:29,_RNvXsB_NtCshdZFMozNxrb_6seaorm11dao_indexerNtB5_10ColumnIterNtNtNtNtCsliVzVx4luf9_4core4iter6traits10exact_size17ExactSizeIterator3len
FN:29,_RNvXsC_NtCshdZFMozNxrb_6seaorm11dao_indexerNtB5_10ColumnIterNtNtNtNtCsliVzVx4luf9_4core4iter6traits12double_ended19DoubleEndedIterator9next_back
FN:29,_RNvXsE_NtCshdZFMozNxrb_6seaorm11dao_indexerNtB5_10ColumnIterNtNtCsliVzVx4luf9_4core5clone5Clone5clone
FN:41,_RNvXsM_NtCshdZFMozNxrb_6seaorm11dao_indexerNtB5_14PrimaryKeyIterNtNtCsliVzVx4luf9_4core3fmt5Debug3fmt
FN:41,_RNvMsN_NtCshdZFMozNxrb_6seaorm11dao_indexerNtB5_14PrimaryKeyIter3get
FN:41,_RNvXsO_NtCshdZFMozNxrb_6seaorm11dao_indexerNtB5_10PrimaryKeyNtCs2R46ZWsohtG_5strum16IntoEnumIterator4iter
FN:41,_RNvXsP_NtCshdZFMozNxrb_6seaorm11dao_indexerNtB5_14PrimaryKeyIterNtNtNtNtCsliVzVx4luf9_4core4iter6traits8iterator8Iterator4next
FN:41,_RNvXsP_NtCshdZFMozNxrb_6seaorm11dao_indexerNtB5_14PrimaryKeyIterNtNtNtNtCsliVzVx4luf9_4core4iter6traits8iterator8Iterator9size_hint
FN:41,_RNvXsP_NtCshdZFMozNxrb_6seaorm11dao_indexerNtB5_14PrimaryKeyIterNtNtNtNtCsliVzVx4luf9_4core4iter6traits8iterator8Iterator3nth
FN:41,_RNvXsQ_NtCshdZFMozNxrb_6seaorm11dao_indexerNtB5_14PrimaryKeyIterNtNtNtNtCsliVzVx4luf9_4core4iter6traits10exact_size17ExactSizeIterator3len
FN:41,_RNvXsR_NtCshdZFMozNxrb_6seaorm11dao_indexerNtB5_14PrimaryKeyIterNtNtNtNtCsliVzVx4luf9_4core4iter6traits12double_ended19DoubleEndedIterator9next_back
FN:41,_RNvXsT_NtCshdZFMozNxrb_6seaorm11dao_indexerNtB5_14PrimaryKeyIterNtNtCsliVzVx4luf9_4core5clone5Clone5clone
FN:53,_RNvXs10_NtCshdZFMozNxrb_6seaorm11dao_indexerNtB6_12RelationIterNtNtCsliVzVx4luf9_4core3fmt5Debug3fmt
FN:53,_RNvMs11_NtCshdZFMozNxrb_6seaorm11dao_indexerNtB6_12RelationIter3get
FN:53,_RNvXs12_NtCshdZFMozNxrb_6seaorm11dao_indexerNtB6_8RelationNtCs2R46ZWsohtG_5strum16IntoEnumIterator4iter
FN:53,_RNvXs13_NtCshdZFMozNxrb_6seaorm11dao_indexerNtB6_12RelationIterNtNtNtNtCsliVzVx4luf9_4core4iter6traits8iterator8Iterator4next
FN:53,_RNvXs13_NtCshdZFMozNxrb_6seaorm11dao_indexerNtB6_12RelationIterNtNtNtNtCsliVzVx4luf9_4core4iter6traits8iterator8Iterator9size_hint
FN:53,_RNvXs13_NtCshdZFMozNxrb_6seaorm11dao_indexerNtB6_12RelationIterNtNtNtNtCsliVzVx4luf9_4core4iter6traits8iterator8Iterator3nth
FN:53,_RNvXs14_NtCshdZFMozNxrb_6seaorm11dao_indexerNtB6_12RelationIterNtNtNtNtCsliVzVx4luf9_4core4iter6traits10exact_size17ExactSizeIterator3len
FN:53,_RNvXs15_NtCshdZFMozNxrb_6seaorm11dao_indexerNtB6_12RelationIterNtNtNtNtCsliVzVx4luf9_4core4iter6traits12double_ended19DoubleEndedIterator9next_back
FN:53,_RNvXs17_NtCshdZFMozNxrb_6seaorm11dao_indexerNtB6_12RelationIterNtNtCsliVzVx4luf9_4core5clone5Clone5clone
FN:17,_RINvXNvXNvNtCshdZFMozNxrb_6seaorm11dao_indexers_1__NtB8_5ModelNtNtCsi2zptu4QhLv_5serde2de11Deserialize11deserializeNtB3_14___FieldVisitorNtB10_7Visitor9visit_u64pEBa_
FN:17,_RINvXNvXNvNtCshdZFMozNxrb_6seaorm11dao_indexers_1__NtB8_5ModelNtNtCsi2zptu4QhLv_5serde2de11Deserialize11deserializeNtB3_14___FieldVisitorNtB10_7Visitor9visit_strpEBa_
FN:17,_RINvXNvXNvNtCshdZFMozNxrb_6seaorm11dao_indexers_1__NtB8_5ModelNtNtCsi2zptu4QhLv_5serde2de11Deserialize11deserializeNtB3_14___FieldVisitorNtB10_7Visitor11visit_bytespEBa_
FN:17,_RINvXs_NvXNvNtCshdZFMozNxrb_6seaorm11dao_indexers_1__NtBa_5ModelNtNtCsi2zptu4QhLv_5serde2de11Deserialize11deserializeNtB5_7___FieldB10_11deserializepEBc_
FN:17,_RINvXs0_NvXNvNtCshdZFMozNxrb_6seaorm11dao_indexers_1__NtBb_5ModelNtNtCsi2zptu4QhLv_5serde2de11Deserialize11deserializeNtB6_9___VisitorNtB13_7Visitor9visit_seqpEBd_
FN:17,_RINvXs0_NvXNvNtCshdZFMozNxrb_6seaorm11dao_indexers_1__NtBb_5ModelNtNtCsi2zptu4QhLv_5serde2de11Deserialize11deserializeNtB6_9___VisitorNtB13_7Visitor9visit_mappEBd_
FN:12,_RNvXNtCs1QoIgR6d7ey_6seaorm11dao_indexerNtB2_6EntityNtNtNtCsjYlr2Bj3iq_7sea_orm6entity11base_entity10EntityName10table_name
FN:17,_RNvXNvXNvNtCs1QoIgR6d7ey_6seaorm11dao_indexers_1__NtB7_5ModelNtNtCsi2zptu4QhLv_5serde2de11Deserialize11deserializeNtB2_14___FieldVisitorNtBZ_7Visitor9expecting
FN:17,_RINvXNvXNvNtCs1QoIgR6d7ey_6seaorm11dao_indexers_1__NtB8_5ModelNtNtCsi2zptu4QhLv_5serde2de11Deserialize11deserializeNtB3_14___FieldVisitorNtB10_7Visitor9visit_u64pEBa_
FN:17,_RINvXNvXNvNtCs1QoIgR6d7ey_6seaorm11dao_indexers_1__NtB8_5ModelNtNtCsi2zptu4QhLv_5serde2de11Deserialize11deserializeNtB3_14___FieldVisitorNtB10_7Visitor9visit_strpEBa_
FN:17,_RINvXNvXNvNtCs1QoIgR6d7ey_6seaorm11dao_indexers_1__NtB8_5ModelNtNtCsi2zptu4QhLv_5serde2de11Deserialize11deserializeNtB3_14___FieldVisitorNtB10_7Visitor11visit_bytespEBa_
FN:17,_RINvXs_NvXNvNtCs1QoIgR6d7ey_6seaorm11dao_indexers_1__NtBa_5ModelNtNtCsi2zptu4QhLv_5serde2de11Deserialize11deserializeNtB5_7___FieldB10_11deserializepEBc_
FN:17,_RNvXs0_NvXNvNtCs1QoIgR6d7ey_6seaorm11dao_indexers_1__NtBa_5ModelNtNtCsi2zptu4QhLv_5serde2de11Deserialize11deserializeNtB5_9___VisitorNtB12_7Visitor9expecting
FN:17,_RINvXs0_NvXNvNtCs1QoIgR6d7ey_6seaorm11dao_indexers_1__NtBb_5ModelNtNtCsi2zptu4QhLv_5serde2de11Deserialize11deserializeNtB6_9___VisitorNtB13_7Visitor9visit_seqpEBd_
FN:17,_RINvXs0_NvXNvNtCs1QoIgR6d7ey_6seaorm11dao_indexers_1__NtBb_5ModelNtNtCsi2zptu4QhLv_5serde2de11Deserialize11deserializeNtB6_9___VisitorNtB13_7Visitor9visit_mappEBd_
FN:29,_RNvXsx_NtCs1QoIgR6d7ey_6seaorm11dao_indexerNtB5_10ColumnIterNtNtCsliVzVx4luf9_4core3fmt5Debug3fmt
FN:29,_RNvMsy_NtCs1QoIgR6d7ey_6seaorm11dao_indexerNtB5_10ColumnIter3get
FN:29,_RNvXsz_NtCs1QoIgR6d7ey_6seaorm11dao_indexerNtB5_6ColumnNtCs2R46ZWsohtG_5strum16IntoEnumIterator4iter
FN:29,_RNvXsA_NtCs1QoIgR6d7ey_6seaorm11dao_indexerNtB5_10ColumnIterNtNtNtNtCsliVzVx4luf9_4core4iter6traits8iterator8Iterator4next
FN:29,_RNvXsA_NtCs1QoIgR6d7ey_6seaorm11dao_indexerNtB5_10ColumnIterNtNtNtNtCsliVzVx4luf9_4core4iter6traits8iterator8Iterator9size_hint
FN:29,_RNvXsA_NtCs1QoIgR6d7ey_6seaorm11dao_indexerNtB5_10ColumnIterNtNtNtNtCsliVzVx4luf9_4core4iter6traits8iterator8Iterator3nth
FN:29,_RNvXsB_NtCs1QoIgR6d7ey_6seaorm11dao_indexerNtB5_10ColumnIterNtNtNtNtCsliVzVx4luf9_4core4iter6traits10exact_size17ExactSizeIterator3len
FN:29,_RNvXsC_NtCs1QoIgR6d7ey_6seaorm11dao_indexerNtB5_10ColumnIterNtNtNtNtCsliVzVx4luf9_4core4iter6traits12double_ended19DoubleEndedIterator9next_back
FN:29,_RNvXsE_NtCs1QoIgR6d7ey_6seaorm11dao_indexerNtB5_10ColumnIterNtNtCsliVzVx4luf9_4core5clone5Clone5clone
FN:41,_RNvXsM_NtCs1QoIgR6d7ey_6seaorm11dao_indexerNtB5_14PrimaryKeyIterNtNtCsliVzVx4luf9_4core3fmt5Debug3fmt
FN:41,_RNvMsN_NtCs1QoIgR6d7ey_6seaorm11dao_indexerNtB5_14PrimaryKeyIter3get
FN:41,_RNvXsO_NtCs1QoIgR6d7ey_6seaorm11dao_indexerNtB5_10PrimaryKeyNtCs2R46ZWsohtG_5strum16IntoEnumIterator4iter
FN:41,_RNvXsP_NtCs1QoIgR6d7ey_6seaorm11dao_indexerNtB5_14PrimaryKeyIterNtNtNtNtCsliVzVx4luf9_4core4iter6traits8iterator8Iterator4next
FN:41,_RNvXsP_NtCs1QoIgR6d7ey_6seaorm11dao_indexerNtB5_14PrimaryKeyIterNtNtNtNtCsliVzVx4luf9_4core4iter6traits8iterator8Iterator9size_hint
FN:41,_RNvXsP_NtCs1QoIgR6d7ey_6seaorm11dao_indexerNtB5_14PrimaryKeyIterNtNtNtNtCsliVzVx4luf9_4core4iter6traits8iterator8Iterator3nth
FN:41,_RNvXsQ_NtCs1QoIgR6d7ey_6seaorm11dao_indexerNtB5_14PrimaryKeyIterNtNtNtNtCsliVzVx4luf9_4core4iter6traits10exact_size17ExactSizeIterator3len
FN:41,_RNvXsR_NtCs1QoIgR6d7ey_6seaorm11dao_indexerNtB5_14PrimaryKeyIterNtNtNtNtCsliVzVx4luf9_4core4iter6traits12double_ended19DoubleEndedIterator9next_back
FN:41,_RNvXsT_NtCs1QoIgR6d7ey_6seaorm11dao_indexerNtB5_14PrimaryKeyIterNtNtCsliVzVx4luf9_4core5clone5Clone5clone
FN:48,_RNvXs_NtCs1QoIgR6d7ey_6seaorm11dao_indexerNtB4_10PrimaryKeyNtNtNtCsjYlr2Bj3iq_7sea_orm6entity11primary_key15PrimaryKeyTrait14auto_increment
FN:53,_RNvXs10_NtCs1QoIgR6d7ey_6seaorm11dao_indexerNtB6_12RelationIterNtNtCsliVzVx4luf9_4core3fmt5Debug3fmt
FN:53,_RNvMs11_NtCs1QoIgR6d7ey_6seaorm11dao_indexerNtB6_12RelationIter3get
FN:53,_RNvXs12_NtCs1QoIgR6d7ey_6seaorm11dao_indexerNtB6_8RelationNtCs2R46ZWsohtG_5strum16IntoEnumIterator4iter
FN:53,_RNvXs13_NtCs1QoIgR6d7ey_6seaorm11dao_indexerNtB6_12RelationIterNtNtNtNtCsliVzVx4luf9_4core4iter6traits8iterator8Iterator4next
FN:53,_RNvXs13_NtCs1QoIgR6d7ey_6seaorm11dao_indexerNtB6_12RelationIterNtNtNtNtCsliVzVx4luf9_4core4iter6traits8iterator8Iterator9size_hint
FN:53,_RNvXs13_NtCs1QoIgR6d7ey_6seaorm11dao_indexerNtB6_12RelationIterNtNtNtNtCsliVzVx4luf9_4core4iter6traits8iterator8Iterator3nth
FN:53,_RNvXs14_NtCs1QoIgR6d7ey_6seaorm11dao_indexerNtB6_12RelationIterNtNtNtNtCsliVzVx4luf9_4core4iter6traits10exact_size17ExactSizeIterator3len
FN:53,_RNvXs15_NtCs1QoIgR6d7ey_6seaorm11dao_indexerNtB6_12RelationIterNtNtNtNtCsliVzVx4luf9_4core4iter6traits12double_ended19DoubleEndedIterator9next_back
FN:53,_RNvXs17_NtCs1QoIgR6d7ey_6seaorm11dao_indexerNtB6_12RelationIterNtNtCsliVzVx4luf9_4core5clone5Clone5clone
FN:62,_RNvXs0_NtCs1QoIgR6d7ey_6seaorm11dao_indexerNtB5_6ColumnNtNtNtCsjYlr2Bj3iq_7sea_orm6entity6column11ColumnTrait3def
FN:77,_RNvXs1_NtCs1QoIgR6d7ey_6seaorm11dao_indexerNtB5_8RelationNtNtNtCsjYlr2Bj3iq_7sea_orm6entity8relation13RelationTrait3def
FN:90,_RNvXs2_NtCs1QoIgR6d7ey_6seaorm11dao_indexerNtB5_6EntityINtNtNtCsjYlr2Bj3iq_7sea_orm6entity8relation7RelatedNtNtB7_3dao6EntityE2to
FN:96,_RNvXs3_NtCs1QoIgR6d7ey_6seaorm11dao_indexerNtB5_6EntityINtNtNtCsjYlr2Bj3iq_7sea_orm6entity8relation7RelatedNtNtB7_8proposal6EntityE2to
FN:102,_RNvXs4_NtCs1QoIgR6d7ey_6seaorm11dao_indexerNtB5_6EntityINtNtNtCsjYlr2Bj3iq_7sea_orm6entity8relation7RelatedNtNtB7_4vote6EntityE2to
FNDA:0,_RNvXNtCshdZFMozNxrb_6seaorm11dao_indexerNtB2_6EntityNtNtNtCsjYlr2Bj3iq_7sea_orm6entity11base_entity10EntityName10table_name
FNDA:0,_RNvXs_NtCshdZFMozNxrb_6seaorm11dao_indexerNtB4_10PrimaryKeyNtNtNtCsjYlr2Bj3iq_7sea_orm6entity11primary_key15PrimaryKeyTrait14auto_increment
FNDA:0,_RNvXs0_NtCshdZFMozNxrb_6seaorm11dao_indexerNtB5_6ColumnNtNtNtCsjYlr2Bj3iq_7sea_orm6entity6column11ColumnTrait3def
FNDA:0,_RNvXs1_NtCshdZFMozNxrb_6seaorm11dao_indexerNtB5_8RelationNtNtNtCsjYlr2Bj3iq_7sea_orm6entity8relation13RelationTrait3def
FNDA:0,_RNvXs2_NtCshdZFMozNxrb_6seaorm11dao_indexerNtB5_6EntityINtNtNtCsjYlr2Bj3iq_7sea_orm6entity8relation7RelatedNtNtB7_3dao6EntityE2to
FNDA:0,_RNvXs3_NtCshdZFMozNxrb_6seaorm11dao_indexerNtB5_6EntityINtNtNtCsjYlr2Bj3iq_7sea_orm6entity8relation7RelatedNtNtB7_8proposal6EntityE2to
FNDA:0,_RNvXs4_NtCshdZFMozNxrb_6seaorm11dao_indexerNtB5_6EntityINtNtNtCsjYlr2Bj3iq_7sea_orm6entity8relation7RelatedNtNtB7_4vote6EntityE2to
FNDA:0,_RNvXNvXNvNtCshdZFMozNxrb_6seaorm11dao_indexers_1__NtB7_5ModelNtNtCsi2zptu4QhLv_5serde2de11Deserialize11deserializeNtB2_14___FieldVisitorNtBZ_7Visitor9expecting
FNDA:0,_RNvXs0_NvXNvNtCshdZFMozNxrb_6seaorm11dao_indexers_1__NtBa_5ModelNtNtCsi2zptu4QhLv_5serde2de11Deserialize11deserializeNtB5_9___VisitorNtB12_7Visitor9expecting
FNDA:0,_RNvXsx_NtCshdZFMozNxrb_6seaorm11dao_indexerNtB5_10ColumnIterNtNtCsliVzVx4luf9_4core3fmt5Debug3fmt
FNDA:0,_RNvMsy_NtCshdZFMozNxrb_6seaorm11dao_indexerNtB5_10ColumnIter3get
FNDA:0,_RNvXsz_NtCshdZFMozNxrb_6seaorm11dao_indexerNtB5_6ColumnNtCs2R46ZWsohtG_5strum16IntoEnumIterator4iter
FNDA:0,_RNvXsA_NtCshdZFMozNxrb_6seaorm11dao_indexerNtB5_10ColumnIterNtNtNtNtCsliVzVx4luf9_4core4iter6traits8iterator8Iterator4next
FNDA:0,_RNvXsA_NtCshdZFMozNxrb_6seaorm11dao_indexerNtB5_10ColumnIterNtNtNtNtCsliVzVx4luf9_4core4iter6traits8iterator8Iterator9size_hint
FNDA:0,_RNvXsA_NtCshdZFMozNxrb_6seaorm11dao_indexerNtB5_10ColumnIterNtNtNtNtCsliVzVx4luf9_4core4iter6traits8iterator8Iterator3nth
FNDA:0,_RNvXsB_NtCshdZFMozNxrb_6seaorm11dao_indexerNtB5_10ColumnIterNtNtNtNtCsliVzVx4luf9_4core4iter6traits10exact_size17ExactSizeIterator3len
FNDA:0,_RNvXsC_NtCshdZFMozNxrb_6seaorm11dao_indexerNtB5_10ColumnIterNtNtNtNtCsliVzVx4luf9_4core4iter6traits12double_ended19DoubleEndedIterator9next_back
FNDA:0,_RNvXsE_NtCshdZFMozNxrb_6seaorm11dao_indexerNtB5_10ColumnIterNtNtCsliVzVx4luf9_4core5clone5Clone5clone
FNDA:0,_RNvXsM_NtCshdZFMozNxrb_6seaorm11dao_indexerNtB5_14PrimaryKeyIterNtNtCsliVzVx4luf9_4core3fmt5Debug3fmt
FNDA:0,_RNvMsN_NtCshdZFMozNxrb_6seaorm11dao_indexerNtB5_14PrimaryKeyIter3get
FNDA:0,_RNvXsO_NtCshdZFMozNxrb_6seaorm11dao_indexerNtB5_10PrimaryKeyNtCs2R46ZWsohtG_5strum16IntoEnumIterator4iter
FNDA:0,_RNvXsP_NtCshdZFMozNxrb_6seaorm11dao_indexerNtB5_14PrimaryKeyIterNtNtNtNtCsliVzVx4luf9_4core4iter6traits8iterator8Iterator4next
FNDA:0,_RNvXsP_NtCshdZFMozNxrb_6seaorm11dao_indexerNtB5_14PrimaryKeyIterNtNtNtNtCsliVzVx4luf9_4core4iter6traits8iterator8Iterator9size_hint
FNDA:0,_RNvXsP_NtCshdZFMozNxrb_6seaorm11dao_indexerNtB5_14PrimaryKeyIterNtNtNtNtCsliVzVx4luf9_4core4iter6traits8iterator8Iterator3nth
FNDA:0,_RNvXsQ_NtCshdZFMozNxrb_6seaorm11dao_indexerNtB5_14PrimaryKeyIterNtNtNtNtCsliVzVx4luf9_4core4iter6traits10exact_size17ExactSizeIterator3len
FNDA:0,_RNvXsR_NtCshdZFMozNxrb_6seaorm11dao_indexerNtB5_14PrimaryKeyIterNtNtNtNtCsliVzVx4luf9_4core4iter6traits12double_ended19DoubleEndedIterator9next_back
FNDA:0,_RNvXsT_NtCshdZFMozNxrb_6seaorm11dao_indexerNtB5_14PrimaryKeyIterNtNtCsliVzVx4luf9_4core5clone5Clone5clone
FNDA:0,_RNvXs10_NtCshdZFMozNxrb_6seaorm11dao_indexerNtB6_12RelationIterNtNtCsliVzVx4luf9_4core3fmt5Debug3fmt
FNDA:0,_RNvMs11_NtCshdZFMozNxrb_6seaorm11dao_indexerNtB6_12RelationIter3get
FNDA:0,_RNvXs12_NtCshdZFMozNxrb_6seaorm11dao_indexerNtB6_8RelationNtCs2R46ZWsohtG_5strum16IntoEnumIterator4iter
FNDA:0,_RNvXs13_NtCshdZFMozNxrb_6seaorm11dao_indexerNtB6_12RelationIterNtNtNtNtCsliVzVx4luf9_4core4iter6traits8iterator8Iterator4next
FNDA:0,_RNvXs13_NtCshdZFMozNxrb_6seaorm11dao_indexerNtB6_12RelationIterNtNtNtNtCsliVzVx4luf9_4core4iter6traits8iterator8Iterator9size_hint
FNDA:0,_RNvXs13_NtCshdZFMozNxrb_6seaorm11dao_indexerNtB6_12RelationIterNtNtNtNtCsliVzVx4luf9_4core4iter6traits8iterator8Iterator3nth
FNDA:0,_RNvXs14_NtCshdZFMozNxrb_6seaorm11dao_indexerNtB6_12RelationIterNtNtNtNtCsliVzVx4luf9_4core4iter6traits10exact_size17ExactSizeIterator3len
FNDA:0,_RNvXs15_NtCshdZFMozNxrb_6seaorm11dao_indexerNtB6_12RelationIterNtNtNtNtCsliVzVx4luf9_4core4iter6traits12double_ended19DoubleEndedIterator9next_back
FNDA:0,_RNvXs17_NtCshdZFMozNxrb_6seaorm11dao_indexerNtB6_12RelationIterNtNtCsliVzVx4luf9_4core5clone5Clone5clone
FNDA:0,_RINvXNvXNvNtCshdZFMozNxrb_6seaorm11dao_indexers_1__NtB8_5ModelNtNtCsi2zptu4QhLv_5serde2de11Deserialize11deserializeNtB3_14___FieldVisitorNtB10_7Visitor9visit_u64pEBa_
FNDA:0,_RINvXNvXNvNtCshdZFMozNxrb_6seaorm11dao_indexers_1__NtB8_5ModelNtNtCsi2zptu4QhLv_5serde2de11Deserialize11deserializeNtB3_14___FieldVisitorNtB10_7Visitor9visit_strpEBa_
FNDA:0,_RINvXNvXNvNtCshdZFMozNxrb_6seaorm11dao_indexers_1__NtB8_5ModelNtNtCsi2zptu4QhLv_5serde2de11Deserialize11deserializeNtB3_14___FieldVisitorNtB10_7Visitor11visit_bytespEBa_
FNDA:0,_RINvXs_NvXNvNtCshdZFMozNxrb_6seaorm11dao_indexers_1__NtBa_5ModelNtNtCsi2zptu4QhLv_5serde2de11Deserialize11deserializeNtB5_7___FieldB10_11deserializepEBc_
FNDA:0,_RINvXs0_NvXNvNtCshdZFMozNxrb_6seaorm11dao_indexers_1__NtBb_5ModelNtNtCsi2zptu4QhLv_5serde2de11Deserialize11deserializeNtB6_9___VisitorNtB13_7Visitor9visit_seqpEBd_
FNDA:0,_RINvXs0_NvXNvNtCshdZFMozNxrb_6seaorm11dao_indexers_1__NtBb_5ModelNtNtCsi2zptu4QhLv_5serde2de11Deserialize11deserializeNtB6_9___VisitorNtB13_7Visitor9visit_mappEBd_
FNDA:0,_RNvXNtCs1QoIgR6d7ey_6seaorm11dao_indexerNtB2_6EntityNtNtNtCsjYlr2Bj3iq_7sea_orm6entity11base_entity10EntityName10table_name
FNDA:0,_RNvXNvXNvNtCs1QoIgR6d7ey_6seaorm11dao_indexers_1__NtB7_5ModelNtNtCsi2zptu4QhLv_5serde2de11Deserialize11deserializeNtB2_14___FieldVisitorNtBZ_7Visitor9expecting
FNDA:0,_RINvXNvXNvNtCs1QoIgR6d7ey_6seaorm11dao_indexers_1__NtB8_5ModelNtNtCsi2zptu4QhLv_5serde2de11Deserialize11deserializeNtB3_14___FieldVisitorNtB10_7Visitor9visit_u64pEBa_
FNDA:0,_RINvXNvXNvNtCs1QoIgR6d7ey_6seaorm11dao_indexers_1__NtB8_5ModelNtNtCsi2zptu4QhLv_5serde2de11Deserialize11deserializeNtB3_14___FieldVisitorNtB10_7Visitor9visit_strpEBa_
FNDA:0,_RINvXNvXNvNtCs1QoIgR6d7ey_6seaorm11dao_indexers_1__NtB8_5ModelNtNtCsi2zptu4QhLv_5serde2de11Deserialize11deserializeNtB3_14___FieldVisitorNtB10_7Visitor11visit_bytespEBa_
FNDA:0,_RINvXs_NvXNvNtCs1QoIgR6d7ey_6seaorm11dao_indexers_1__NtBa_5ModelNtNtCsi2zptu4QhLv_5serde2de11Deserialize11deserializeNtB5_7___FieldB10_11deserializepEBc_
FNDA:0,_RNvXs0_NvXNvNtCs1QoIgR6d7ey_6seaorm11dao_indexers_1__NtBa_5ModelNtNtCsi2zptu4QhLv_5serde2de11Deserialize11deserializeNtB5_9___VisitorNtB12_7Visitor9expecting
FNDA:0,_RINvXs0_NvXNvNtCs1QoIgR6d7ey_6seaorm11dao_indexers_1__NtBb_5ModelNtNtCsi2zptu4QhLv_5serde2de11Deserialize11deserializeNtB6_9___VisitorNtB13_7Visitor9visit_seqpEBd_
FNDA:0,_RINvXs0_NvXNvNtCs1QoIgR6d7ey_6seaorm11dao_indexers_1__NtBb_5ModelNtNtCsi2zptu4QhLv_5serde2de11Deserialize11deserializeNtB6_9___VisitorNtB13_7Visitor9visit_mappEBd_
FNDA:0,_RNvXsx_NtCs1QoIgR6d7ey_6seaorm11dao_indexerNtB5_10ColumnIterNtNtCsliVzVx4luf9_4core3fmt5Debug3fmt
FNDA:0,_RNvMsy_NtCs1QoIgR6d7ey_6seaorm11dao_indexerNtB5_10ColumnIter3get
FNDA:0,_RNvXsz_NtCs1QoIgR6d7ey_6seaorm11dao_indexerNtB5_6ColumnNtCs2R46ZWsohtG_5strum16IntoEnumIterator4iter
FNDA:0,_RNvXsA_NtCs1QoIgR6d7ey_6seaorm11dao_indexerNtB5_10ColumnIterNtNtNtNtCsliVzVx4luf9_4core4iter6traits8iterator8Iterator4next
FNDA:0,_RNvXsA_NtCs1QoIgR6d7ey_6seaorm11dao_indexerNtB5_10ColumnIterNtNtNtNtCsliVzVx4luf9_4core4iter6traits8iterator8Iterator9size_hint
FNDA:0,_RNvXsA_NtCs1QoIgR6d7ey_6seaorm11dao_indexerNtB5_10ColumnIterNtNtNtNtCsliVzVx4luf9_4core4iter6traits8iterator8Iterator3nth
FNDA:0,_RNvXsB_NtCs1QoIgR6d7ey_6seaorm11dao_indexerNtB5_10ColumnIterNtNtNtNtCsliVzVx4luf9_4core4iter6traits10exact_size17ExactSizeIterator3len
FNDA:0,_RNvXsC_NtCs1QoIgR6d7ey_6seaorm11dao_indexerNtB5_10ColumnIterNtNtNtNtCsliVzVx4luf9_4core4iter6traits12double_ended19DoubleEndedIterator9next_back
FNDA:0,_RNvXsE_NtCs1QoIgR6d7ey_6seaorm11dao_indexerNtB5_10ColumnIterNtNtCsliVzVx4luf9_4core5clone5Clone5clone
FNDA:0,_RNvXsM_NtCs1QoIgR6d7ey_6seaorm11dao_indexerNtB5_14PrimaryKeyIterNtNtCsliVzVx4luf9_4core3fmt5Debug3fmt
FNDA:0,_RNvMsN_NtCs1QoIgR6d7ey_6seaorm11dao_indexerNtB5_14PrimaryKeyIter3get
FNDA:0,_RNvXsO_NtCs1QoIgR6d7ey_6seaorm11dao_indexerNtB5_10PrimaryKeyNtCs2R46ZWsohtG_5strum16IntoEnumIterator4iter
FNDA:0,_RNvXsP_NtCs1QoIgR6d7ey_6seaorm11dao_indexerNtB5_14PrimaryKeyIterNtNtNtNtCsliVzVx4luf9_4core4iter6traits8iterator8Iterator4next
FNDA:0,_RNvXsP_NtCs1QoIgR6d7ey_6seaorm11dao_indexerNtB5_14PrimaryKeyIterNtNtNtNtCsliVzVx4luf9_4core4iter6traits8iterator8Iterator9size_hint
FNDA:0,_RNvXsP_NtCs1QoIgR6d7ey_6seaorm11dao_indexerNtB5_14PrimaryKeyIterNtNtNtNtCsliVzVx4luf9_4core4iter6traits8iterator8Iterator3nth
FNDA:0,_RNvXsQ_NtCs1QoIgR6d7ey_6seaorm11dao_indexerNtB5_14PrimaryKeyIterNtNtNtNtCsliVzVx4luf9_4core4iter6traits10exact_size17ExactSizeIterator3len
FNDA:0,_RNvXsR_NtCs1QoIgR6d7ey_6seaorm11dao_indexerNtB5_14PrimaryKeyIterNtNtNtNtCsliVzVx4luf9_4core4iter6traits12double_ended19DoubleEndedIterator9next_back
FNDA:0,_RNvXsT_NtCs1QoIgR6d7ey_6seaorm11dao_indexerNtB5_14PrimaryKeyIterNtNtCsliVzVx4luf9_4core5clone5Clone5clone
FNDA:0,_RNvXs_NtCs1QoIgR6d7ey_6seaorm11dao_indexerNtB4_10PrimaryKeyNtNtNtCsjYlr2Bj3iq_7sea_orm6entity11primary_key15PrimaryKeyTrait14auto_increment
FNDA:0,_RNvXs10_NtCs1QoIgR6d7ey_6seaorm11dao_indexerNtB6_12RelationIterNtNtCsliVzVx4luf9_4core3fmt5Debug3fmt
FNDA:0,_RNvMs11_NtCs1QoIgR6d7ey_6seaorm11dao_indexerNtB6_12RelationIter3get
FNDA:0,_RNvXs12_NtCs1QoIgR6d7ey_6seaorm11dao_indexerNtB6_8RelationNtCs2R46ZWsohtG_5strum16IntoEnumIterator4iter
FNDA:0,_RNvXs13_NtCs1QoIgR6d7ey_6seaorm11dao_indexerNtB6_12RelationIterNtNtNtNtCsliVzVx4luf9_4core4iter6traits8iterator8Iterator4next
FNDA:0,_RNvXs13_NtCs1QoIgR6d7ey_6seaorm11dao_indexerNtB6_12RelationIterNtNtNtNtCsliVzVx4luf9_4core4iter6traits8iterator8Iterator9size_hint
FNDA:0,_RNvXs13_NtCs1QoIgR6d7ey_6seaorm11dao_indexerNtB6_12RelationIterNtNtNtNtCsliVzVx4luf9_4core4iter6traits8iterator8Iterator3nth
FNDA:0,_RNvXs14_NtCs1QoIgR6d7ey_6seaorm11dao_indexerNtB6_12RelationIterNtNtNtNtCsliVzVx4luf9_4core4iter6traits10exact_size17ExactSizeIterator3len
FNDA:0,_RNvXs15_NtCs1QoIgR6d7ey_6seaorm11dao_indexerNtB6_12RelationIterNtNtNtNtCsliVzVx4luf9_4core4iter6traits12double_ended19DoubleEndedIterator9next_back
FNDA:0,_RNvXs17_NtCs1QoIgR6d7ey_6seaorm11dao_indexerNtB6_12RelationIterNtNtCsliVzVx4luf9_4core5clone5Clone5clone
FNDA:0,_RNvXs0_NtCs1QoIgR6d7ey_6seaorm11dao_indexerNtB5_6ColumnNtNtNtCsjYlr2Bj3iq_7sea_orm6entity6column11ColumnTrait3def
FNDA:0,_RNvXs1_NtCs1QoIgR6d7ey_6seaorm11dao_indexerNtB5_8RelationNtNtNtCsjYlr2Bj3iq_7sea_orm6entity8relation13RelationTrait3def
FNDA:0,_RNvXs2_NtCs1QoIgR6d7ey_6seaorm11dao_indexerNtB5_6EntityINtNtNtCsjYlr2Bj3iq_7sea_orm6entity8relation7RelatedNtNtB7_3dao6EntityE2to
FNDA:0,_RNvXs3_NtCs1QoIgR6d7ey_6seaorm11dao_indexerNtB5_6EntityINtNtNtCsjYlr2Bj3iq_7sea_orm6entity8relation7RelatedNtNtB7_8proposal6EntityE2to
FNDA:0,_RNvXs4_NtCs1QoIgR6d7ey_6seaorm11dao_indexerNtB5_6EntityINtNtNtCsjYlr2Bj3iq_7sea_orm6entity8relation7RelatedNtNtB7_4vote6EntityE2to
FNF:11
FNH:0
DA:12,0
DA:13,0
DA:14,0
DA:17,0
DA:29,0
DA:41,0
DA:48,0
DA:49,0
DA:50,0
DA:53,0
DA:62,0
DA:63,0
DA:64,0
DA:65,0
DA:66,0
DA:67,0
DA:68,0
DA:69,0
DA:70,0
DA:71,0
DA:73,0
DA:77,0
DA:78,0
DA:79,0
DA:80,0
DA:81,0
DA:82,0
DA:83,0
DA:84,0
DA:86,0
DA:90,0
DA:91,0
DA:92,0
DA:96,0
DA:97,0
DA:98,0
DA:102,0
DA:103,0
DA:104,0
BRF:0
BRH:0
LF:39
LH:0
end_of_record
SF:/Users/andrei/git/proposalsapp/libs/rust/seaorm/src/discourse_category.rs
FN:15,_RINvXNvXNvNtCshdZFMozNxrb_6seaorm18discourse_categorys_1__NtB8_5ModelNtNtCsi2zptu4QhLv_5serde2de11Deserialize11deserializeNtB3_14___FieldVisitorNtB17_7Visitor9visit_u64pEBa_
FN:15,_RINvXNvXNvNtCshdZFMozNxrb_6seaorm18discourse_categorys_1__NtB8_5ModelNtNtCsi2zptu4QhLv_5serde2de11Deserialize11deserializeNtB3_14___FieldVisitorNtB17_7Visitor9visit_strpEBa_
FN:15,_RINvXNvXNvNtCshdZFMozNxrb_6seaorm18discourse_categorys_1__NtB8_5ModelNtNtCsi2zptu4QhLv_5serde2de11Deserialize11deserializeNtB3_14___FieldVisitorNtB17_7Visitor11visit_bytespEBa_
FN:15,_RINvXs_NvXNvNtCshdZFMozNxrb_6seaorm18discourse_categorys_1__NtBa_5ModelNtNtCsi2zptu4QhLv_5serde2de11Deserialize11deserializeNtB5_7___FieldB17_11deserializepEBc_
FN:15,_RINvXs0_NvXNvNtCshdZFMozNxrb_6seaorm18discourse_categorys_1__NtBb_5ModelNtNtCsi2zptu4QhLv_5serde2de11Deserialize11deserializeNtB6_9___VisitorNtB1a_7Visitor9visit_seqpEBd_
FN:15,_RINvXs0_NvXNvNtCshdZFMozNxrb_6seaorm18discourse_categorys_1__NtBb_5ModelNtNtCsi2zptu4QhLv_5serde2de11Deserialize11deserializeNtB6_9___VisitorNtB1a_7Visitor9visit_mappEBd_
FN:10,_RNvXNtCshdZFMozNxrb_6seaorm18discourse_categoryNtB2_6EntityNtNtNtCsjYlr2Bj3iq_7sea_orm6entity11base_entity10EntityName10table_name
FN:62,_RNvXs_NtCshdZFMozNxrb_6seaorm18discourse_categoryNtB4_10PrimaryKeyNtNtNtCsjYlr2Bj3iq_7sea_orm6entity11primary_key15PrimaryKeyTrait14auto_increment
FN:75,_RNvXs0_NtCshdZFMozNxrb_6seaorm18discourse_categoryNtB5_6ColumnNtNtNtCsjYlr2Bj3iq_7sea_orm6entity6column11ColumnTrait3def
FN:98,_RNvXs1_NtCshdZFMozNxrb_6seaorm18discourse_categoryNtB5_8RelationNtNtNtCsjYlr2Bj3iq_7sea_orm6entity8relation13RelationTrait3def
FN:110,_RNvXs2_NtCshdZFMozNxrb_6seaorm18discourse_categoryNtB5_6EntityINtNtNtCsjYlr2Bj3iq_7sea_orm6entity8relation7RelatedNtNtB7_13dao_discourse6EntityE2to
FN:116,_RNvXs3_NtCshdZFMozNxrb_6seaorm18discourse_categoryNtB5_6EntityINtNtNtCsjYlr2Bj3iq_7sea_orm6entity8relation7RelatedNtNtB7_15discourse_topic6EntityE2to
FN:15,_RNvXNvXNvNtCshdZFMozNxrb_6seaorm18discourse_categorys_1__NtB7_5ModelNtNtCsi2zptu4QhLv_5serde2de11Deserialize11deserializeNtB2_14___FieldVisitorNtB16_7Visitor9expecting
FN:15,_RNvXs0_NvXNvNtCshdZFMozNxrb_6seaorm18discourse_categorys_1__NtBa_5ModelNtNtCsi2zptu4QhLv_5serde2de11Deserialize11deserializeNtB5_9___VisitorNtB19_7Visitor9expecting
FN:35,_RNvXsw_NtCshdZFMozNxrb_6seaorm18discourse_categoryNtB5_10ColumnIterNtNtCsliVzVx4luf9_4core3fmt5Debug3fmt
FN:35,_RNvMsx_NtCshdZFMozNxrb_6seaorm18discourse_categoryNtB5_10ColumnIter3get
FN:35,_RNvXsy_NtCshdZFMozNxrb_6seaorm18discourse_categoryNtB5_6ColumnNtCs2R46ZWsohtG_5strum16IntoEnumIterator4iter
FN:35,_RNvXsz_NtCshdZFMozNxrb_6seaorm18discourse_categoryNtB5_10ColumnIterNtNtNtNtCsliVzVx4luf9_4core4iter6traits8iterator8Iterator4next
FN:35,_RNvXsz_NtCshdZFMozNxrb_6seaorm18discourse_categoryNtB5_10ColumnIterNtNtNtNtCsliVzVx4luf9_4core4iter6traits8iterator8Iterator9size_hint
FN:35,_RNvXsz_NtCshdZFMozNxrb_6seaorm18discourse_categoryNtB5_10ColumnIterNtNtNtNtCsliVzVx4luf9_4core4iter6traits8iterator8Iterator3nth
FN:35,_RNvXsA_NtCshdZFMozNxrb_6seaorm18discourse_categoryNtB5_10ColumnIterNtNtNtNtCsliVzVx4luf9_4core4iter6traits10exact_size17ExactSizeIterator3len
FN:35,_RNvXsB_NtCshdZFMozNxrb_6seaorm18discourse_categoryNtB5_10ColumnIterNtNtNtNtCsliVzVx4luf9_4core4iter6traits12double_ended19DoubleEndedIterator9next_back
FN:35,_RNvXsD_NtCshdZFMozNxrb_6seaorm18discourse_categoryNtB5_10ColumnIterNtNtCsliVzVx4luf9_4core5clone5Clone5clone
FN:55,_RNvXsL_NtCshdZFMozNxrb_6seaorm18discourse_categoryNtB5_14PrimaryKeyIterNtNtCsliVzVx4luf9_4core3fmt5Debug3fmt
FN:55,_RNvMsM_NtCshdZFMozNxrb_6seaorm18discourse_categoryNtB5_14PrimaryKeyIter3get
FN:55,_RNvXsN_NtCshdZFMozNxrb_6seaorm18discourse_categoryNtB5_10PrimaryKeyNtCs2R46ZWsohtG_5strum16IntoEnumIterator4iter
FN:55,_RNvXsO_NtCshdZFMozNxrb_6seaorm18discourse_categoryNtB5_14PrimaryKeyIterNtNtNtNtCsliVzVx4luf9_4core4iter6traits8iterator8Iterator4next
FN:55,_RNvXsO_NtCshdZFMozNxrb_6seaorm18discourse_categoryNtB5_14PrimaryKeyIterNtNtNtNtCsliVzVx4luf9_4core4iter6traits8iterator8Iterator9size_hint
FN:55,_RNvXsO_NtCshdZFMozNxrb_6seaorm18discourse_categoryNtB5_14PrimaryKeyIterNtNtNtNtCsliVzVx4luf9_4core4iter6traits8iterator8Iterator3nth
FN:55,_RNvXsP_NtCshdZFMozNxrb_6seaorm18discourse_categoryNtB5_14PrimaryKeyIterNtNtNtNtCsliVzVx4luf9_4core4iter6traits10exact_size17ExactSizeIterator3len
FN:55,_RNvXsQ_NtCshdZFMozNxrb_6seaorm18discourse_categoryNtB5_14PrimaryKeyIterNtNtNtNtCsliVzVx4luf9_4core4iter6traits12double_ended19DoubleEndedIterator9next_back
FN:55,_RNvXsS_NtCshdZFMozNxrb_6seaorm18discourse_categoryNtB5_14PrimaryKeyIterNtNtCsliVzVx4luf9_4core5clone5Clone5clone
FN:67,_RNvXsZ_NtCshdZFMozNxrb_6seaorm18discourse_categoryNtB5_12RelationIterNtNtCsliVzVx4luf9_4core3fmt5Debug3fmt
FN:67,_RNvMs10_NtCshdZFMozNxrb_6seaorm18discourse_categoryNtB6_12RelationIter3get
FN:67,_RNvXs11_NtCshdZFMozNxrb_6seaorm18discourse_categoryNtB6_8RelationNtCs2R46ZWsohtG_5strum16IntoEnumIterator4iter
FN:67,_RNvXs12_NtCshdZFMozNxrb_6seaorm18discourse_categoryNtB6_12RelationIterNtNtNtNtCsliVzVx4luf9_4core4iter6traits8iterator8Iterator4next
FN:67,_RNvXs12_NtCshdZFMozNxrb_6seaorm18discourse_categoryNtB6_12RelationIterNtNtNtNtCsliVzVx4luf9_4core4iter6traits8iterator8Iterator9size_hint
FN:67,_RNvXs12_NtCshdZFMozNxrb_6seaorm18discourse_categoryNtB6_12RelationIterNtNtNtNtCsliVzVx4luf9_4core4iter6traits8iterator8Iterator3nth
FN:67,_RNvXs13_NtCshdZFMozNxrb_6seaorm18discourse_categoryNtB6_12RelationIterNtNtNtNtCsliVzVx4luf9_4core4iter6traits10exact_size17ExactSizeIterator3len
FN:67,_RNvXs14_NtCshdZFMozNxrb_6seaorm18discourse_categoryNtB6_12RelationIterNtNtNtNtCsliVzVx4luf9_4core4iter6traits12double_ended19DoubleEndedIterator9next_back
FN:67,_RNvXs16_NtCshdZFMozNxrb_6seaorm18discourse_categoryNtB6_12RelationIterNtNtCsliVzVx4luf9_4core5clone5Clone5clone
FN:10,_RNvXNtCs1QoIgR6d7ey_6seaorm18discourse_categoryNtB2_6EntityNtNtNtCsjYlr2Bj3iq_7sea_orm6entity11base_entity10EntityName10table_name
FN:15,_RNvXNvXNvNtCs1QoIgR6d7ey_6seaorm18discourse_categorys_1__NtB7_5ModelNtNtCsi2zptu4QhLv_5serde2de11Deserialize11deserializeNtB2_14___FieldVisitorNtB16_7Visitor9expecting
FN:15,_RINvXNvXNvNtCs1QoIgR6d7ey_6seaorm18discourse_categorys_1__NtB8_5ModelNtNtCsi2zptu4QhLv_5serde2de11Deserialize11deserializeNtB3_14___FieldVisitorNtB17_7Visitor9visit_u64pEBa_
FN:15,_RINvXNvXNvNtCs1QoIgR6d7ey_6seaorm18discourse_categorys_1__NtB8_5ModelNtNtCsi2zptu4QhLv_5serde2de11Deserialize11deserializeNtB3_14___FieldVisitorNtB17_7Visitor9visit_strpEBa_
FN:15,_RINvXNvXNvNtCs1QoIgR6d7ey_6seaorm18discourse_categorys_1__NtB8_5ModelNtNtCsi2zptu4QhLv_5serde2de11Deserialize11deserializeNtB3_14___FieldVisitorNtB17_7Visitor11visit_bytespEBa_
FN:15,_RINvXs_NvXNvNtCs1QoIgR6d7ey_6seaorm18discourse_categorys_1__NtBa_5ModelNtNtCsi2zptu4QhLv_5serde2de11Deserialize11deserializeNtB5_7___FieldB17_11deserializepEBc_
FN:15,_RNvXs0_NvXNvNtCs1QoIgR6d7ey_6seaorm18discourse_categorys_1__NtBa_5ModelNtNtCsi2zptu4QhLv_5serde2de11Deserialize11deserializeNtB5_9___VisitorNtB19_7Visitor9expecting
FN:15,_RINvXs0_NvXNvNtCs1QoIgR6d7ey_6seaorm18discourse_categorys_1__NtBb_5ModelNtNtCsi2zptu4QhLv_5serde2de11Deserialize11deserializeNtB6_9___VisitorNtB1a_7Visitor9visit_seqpEBd_
FN:15,_RINvXs0_NvXNvNtCs1QoIgR6d7ey_6seaorm18discourse_categorys_1__NtBb_5ModelNtNtCsi2zptu4QhLv_5serde2de11Deserialize11deserializeNtB6_9___VisitorNtB1a_7Visitor9visit_mappEBd_
FN:35,_RNvXsw_NtCs1QoIgR6d7ey_6seaorm18discourse_categoryNtB5_10ColumnIterNtNtCsliVzVx4luf9_4core3fmt5Debug3fmt
FN:35,_RNvMsx_NtCs1QoIgR6d7ey_6seaorm18discourse_categoryNtB5_10ColumnIter3get
FN:35,_RNvXsy_NtCs1QoIgR6d7ey_6seaorm18discourse_categoryNtB5_6ColumnNtCs2R46ZWsohtG_5strum16IntoEnumIterator4iter
FN:35,_RNvXsz_NtCs1QoIgR6d7ey_6seaorm18discourse_categoryNtB5_10ColumnIterNtNtNtNtCsliVzVx4luf9_4core4iter6traits8iterator8Iterator4next
FN:35,_RNvXsz_NtCs1QoIgR6d7ey_6seaorm18discourse_categoryNtB5_10ColumnIterNtNtNtNtCsliVzVx4luf9_4core4iter6traits8iterator8Iterator9size_hint
FN:35,_RNvXsz_NtCs1QoIgR6d7ey_6seaorm18discourse_categoryNtB5_10ColumnIterNtNtNtNtCsliVzVx4luf9_4core4iter6traits8iterator8Iterator3nth
FN:35,_RNvXsA_NtCs1QoIgR6d7ey_6seaorm18discourse_categoryNtB5_10ColumnIterNtNtNtNtCsliVzVx4luf9_4core4iter6traits10exact_size17ExactSizeIterator3len
FN:35,_RNvXsB_NtCs1QoIgR6d7ey_6seaorm18discourse_categoryNtB5_10ColumnIterNtNtNtNtCsliVzVx4luf9_4core4iter6traits12double_ended19DoubleEndedIterator9next_back
FN:35,_RNvXsD_NtCs1QoIgR6d7ey_6seaorm18discourse_categoryNtB5_10ColumnIterNtNtCsliVzVx4luf9_4core5clone5Clone5clone
FN:55,_RNvXsL_NtCs1QoIgR6d7ey_6seaorm18discourse_categoryNtB5_14PrimaryKeyIterNtNtCsliVzVx4luf9_4core3fmt5Debug3fmt
FN:55,_RNvMsM_NtCs1QoIgR6d7ey_6seaorm18discourse_categoryNtB5_14PrimaryKeyIter3get
FN:55,_RNvXsN_NtCs1QoIgR6d7ey_6seaorm18discourse_categoryNtB5_10PrimaryKeyNtCs2R46ZWsohtG_5strum16IntoEnumIterator4iter
FN:55,_RNvXsO_NtCs1QoIgR6d7ey_6seaorm18discourse_categoryNtB5_14PrimaryKeyIterNtNtNtNtCsliVzVx4luf9_4core4iter6traits8iterator8Iterator4next
FN:55,_RNvXsO_NtCs1QoIgR6d7ey_6seaorm18discourse_categoryNtB5_14PrimaryKeyIterNtNtNtNtCsliVzVx4luf9_4core4iter6traits8iterator8Iterator9size_hint
FN:55,_RNvXsO_NtCs1QoIgR6d7ey_6seaorm18discourse_categoryNtB5_14PrimaryKeyIterNtNtNtNtCsliVzVx4luf9_4core4iter6traits8iterator8Iterator3nth
FN:55,_RNvXsP_NtCs1QoIgR6d7ey_6seaorm18discourse_categoryNtB5_14PrimaryKeyIterNtNtNtNtCsliVzVx4luf9_4core4iter6traits10exact_size17ExactSizeIterator3len
FN:55,_RNvXsQ_NtCs1QoIgR6d7ey_6seaorm18discourse_categoryNtB5_14PrimaryKeyIterNtNtNtNtCsliVzVx4luf9_4core4iter6traits12double_ended19DoubleEndedIterator9next_back
FN:55,_RNvXsS_NtCs1QoIgR6d7ey_6seaorm18discourse_categoryNtB5_14PrimaryKeyIterNtNtCsliVzVx4luf9_4core5clone5Clone5clone
FN:62,_RNvXs_NtCs1QoIgR6d7ey_6seaorm18discourse_categoryNtB4_10PrimaryKeyNtNtNtCsjYlr2Bj3iq_7sea_orm6entity11primary_key15PrimaryKeyTrait14auto_increment
FN:67,_RNvXsZ_NtCs1QoIgR6d7ey_6seaorm18discourse_categoryNtB5_12RelationIterNtNtCsliVzVx4luf9_4core3fmt5Debug3fmt
FN:67,_RNvMs10_NtCs1QoIgR6d7ey_6seaorm18discourse_categoryNtB6_12RelationIter3get
FN:67,_RNvXs11_NtCs1QoIgR6d7ey_6seaorm18discourse_categoryNtB6_8RelationNtCs2R46ZWsohtG_5strum16IntoEnumIterator4iter
FN:67,_RNvXs12_NtCs1QoIgR6d7ey_6seaorm18discourse_categoryNtB6_12RelationIterNtNtNtNtCsliVzVx4luf9_4core4iter6traits8iterator8Iterator4next
FN:67,_RNvXs12_NtCs1QoIgR6d7ey_6seaorm18discourse_categoryNtB6_12RelationIterNtNtNtNtCsliVzVx4luf9_4core4iter6traits8iterator8Iterator9size_hint
FN:67,_RNvXs12_NtCs1QoIgR6d7ey_6seaorm18discourse_categoryNtB6_12RelationIterNtNtNtNtCsliVzVx4luf9_4core4iter6traits8iterator8Iterator3nth
FN:67,_RNvXs13_NtCs1QoIgR6d7ey_6seaorm18discourse_categoryNtB6_12RelationIterNtNtNtNtCsliVzVx4luf9_4core4iter6traits10exact_size17ExactSizeIterator3len
FN:67,_RNvXs14_NtCs1QoIgR6d7ey_6seaorm18discourse_categoryNtB6_12RelationIterNtNtNtNtCsliVzVx4luf9_4core4iter6traits12double_ended19DoubleEndedIterator9next_back
FN:67,_RNvXs16_NtCs1QoIgR6d7ey_6seaorm18discourse_categoryNtB6_12RelationIterNtNtCsliVzVx4luf9_4core5clone5Clone5clone
FN:75,_RNvXs0_NtCs1QoIgR6d7ey_6seaorm18discourse_categoryNtB5_6ColumnNtNtNtCsjYlr2Bj3iq_7sea_orm6entity6column11ColumnTrait3def
FN:98,_RNvXs1_NtCs1QoIgR6d7ey_6seaorm18discourse_categoryNtB5_8RelationNtNtNtCsjYlr2Bj3iq_7sea_orm6entity8relation13RelationTrait3def
FN:110,_RNvXs2_NtCs1QoIgR6d7ey_6seaorm18discourse_categoryNtB5_6EntityINtNtNtCsjYlr2Bj3iq_7sea_orm6entity8relation7RelatedNtNtB7_13dao_discourse6EntityE2to
FN:116,_RNvXs3_NtCs1QoIgR6d7ey_6seaorm18discourse_categoryNtB5_6EntityINtNtNtCsjYlr2Bj3iq_7sea_orm6entity8relation7RelatedNtNtB7_15discourse_topic6EntityE2to
FNDA:0,_RINvXNvXNvNtCshdZFMozNxrb_6seaorm18discourse_categorys_1__NtB8_5ModelNtNtCsi2zptu4QhLv_5serde2de11Deserialize11deserializeNtB3_14___FieldVisitorNtB17_7Visitor9visit_u64pEBa_
FNDA:0,_RINvXNvXNvNtCshdZFMozNxrb_6seaorm18discourse_categorys_1__NtB8_5ModelNtNtCsi2zptu4QhLv_5serde2de11Deserialize11deserializeNtB3_14___FieldVisitorNtB17_7Visitor9visit_strpEBa_
FNDA:0,_RINvXNvXNvNtCshdZFMozNxrb_6seaorm18discourse_categorys_1__NtB8_5ModelNtNtCsi2zptu4QhLv_5serde2de11Deserialize11deserializeNtB3_14___FieldVisitorNtB17_7Visitor11visit_bytespEBa_
FNDA:0,_RINvXs_NvXNvNtCshdZFMozNxrb_6seaorm18discourse_categorys_1__NtBa_5ModelNtNtCsi2zptu4QhLv_5serde2de11Deserialize11deserializeNtB5_7___FieldB17_11deserializepEBc_
FNDA:0,_RINvXs0_NvXNvNtCshdZFMozNxrb_6seaorm18discourse_categorys_1__NtBb_5ModelNtNtCsi2zptu4QhLv_5serde2de11Deserialize11deserializeNtB6_9___VisitorNtB1a_7Visitor9visit_seqpEBd_
FNDA:0,_RINvXs0_NvXNvNtCshdZFMozNxrb_6seaorm18discourse_categorys_1__NtBb_5ModelNtNtCsi2zptu4QhLv_5serde2de11Deserialize11deserializeNtB6_9___VisitorNtB1a_7Visitor9visit_mappEBd_
FNDA:0,_RNvXNtCshdZFMozNxrb_6seaorm18discourse_categoryNtB2_6EntityNtNtNtCsjYlr2Bj3iq_7sea_orm6entity11base_entity10EntityName10table_name
FNDA:0,_RNvXs_NtCshdZFMozNxrb_6seaorm18discourse_categoryNtB4_10PrimaryKeyNtNtNtCsjYlr2Bj3iq_7sea_orm6entity11primary_key15PrimaryKeyTrait14auto_increment
FNDA:0,_RNvXs0_NtCshdZFMozNxrb_6seaorm18discourse_categoryNtB5_6ColumnNtNtNtCsjYlr2Bj3iq_7sea_orm6entity6column11ColumnTrait3def
FNDA:0,_RNvXs1_NtCshdZFMozNxrb_6seaorm18discourse_categoryNtB5_8RelationNtNtNtCsjYlr2Bj3iq_7sea_orm6entity8relation13RelationTrait3def
FNDA:0,_RNvXs2_NtCshdZFMozNxrb_6seaorm18discourse_categoryNtB5_6EntityINtNtNtCsjYlr2Bj3iq_7sea_orm6entity8relation7RelatedNtNtB7_13dao_discourse6EntityE2to
FNDA:0,_RNvXs3_NtCshdZFMozNxrb_6seaorm18discourse_categoryNtB5_6EntityINtNtNtCsjYlr2Bj3iq_7sea_orm6entity8relation7RelatedNtNtB7_15discourse_topic6EntityE2to
FNDA:0,_RNvXNvXNvNtCshdZFMozNxrb_6seaorm18discourse_categorys_1__NtB7_5ModelNtNtCsi2zptu4QhLv_5serde2de11Deserialize11deserializeNtB2_14___FieldVisitorNtB16_7Visitor9expecting
FNDA:0,_RNvXs0_NvXNvNtCshdZFMozNxrb_6seaorm18discourse_categorys_1__NtBa_5ModelNtNtCsi2zptu4QhLv_5serde2de11Deserialize11deserializeNtB5_9___VisitorNtB19_7Visitor9expecting
FNDA:0,_RNvXsw_NtCshdZFMozNxrb_6seaorm18discourse_categoryNtB5_10ColumnIterNtNtCsliVzVx4luf9_4core3fmt5Debug3fmt
FNDA:0,_RNvMsx_NtCshdZFMozNxrb_6seaorm18discourse_categoryNtB5_10ColumnIter3get
FNDA:0,_RNvXsy_NtCshdZFMozNxrb_6seaorm18discourse_categoryNtB5_6ColumnNtCs2R46ZWsohtG_5strum16IntoEnumIterator4iter
FNDA:0,_RNvXsz_NtCshdZFMozNxrb_6seaorm18discourse_categoryNtB5_10ColumnIterNtNtNtNtCsliVzVx4luf9_4core4iter6traits8iterator8Iterator4next
FNDA:0,_RNvXsz_NtCshdZFMozNxrb_6seaorm18discourse_categoryNtB5_10ColumnIterNtNtNtNtCsliVzVx4luf9_4core4iter6traits8iterator8Iterator9size_hint
FNDA:0,_RNvXsz_NtCshdZFMozNxrb_6seaorm18discourse_categoryNtB5_10ColumnIterNtNtNtNtCsliVzVx4luf9_4core4iter6traits8iterator8Iterator3nth
FNDA:0,_RNvXsA_NtCshdZFMozNxrb_6seaorm18discourse_categoryNtB5_10ColumnIterNtNtNtNtCsliVzVx4luf9_4core4iter6traits10exact_size17ExactSizeIterator3len
FNDA:0,_RNvXsB_NtCshdZFMozNxrb_6seaorm18discourse_categoryNtB5_10ColumnIterNtNtNtNtCsliVzVx4luf9_4core4iter6traits12double_ended19DoubleEndedIterator9next_back
FNDA:0,_RNvXsD_NtCshdZFMozNxrb_6seaorm18discourse_categoryNtB5_10ColumnIterNtNtCsliVzVx4luf9_4core5clone5Clone5clone
FNDA:0,_RNvXsL_NtCshdZFMozNxrb_6seaorm18discourse_categoryNtB5_14PrimaryKeyIterNtNtCsliVzVx4luf9_4core3fmt5Debug3fmt
FNDA:0,_RNvMsM_NtCshdZFMozNxrb_6seaorm18discourse_categoryNtB5_14PrimaryKeyIter3get
FNDA:0,_RNvXsN_NtCshdZFMozNxrb_6seaorm18discourse_categoryNtB5_10PrimaryKeyNtCs2R46ZWsohtG_5strum16IntoEnumIterator4iter
FNDA:0,_RNvXsO_NtCshdZFMozNxrb_6seaorm18discourse_categoryNtB5_14PrimaryKeyIterNtNtNtNtCsliVzVx4luf9_4core4iter6traits8iterator8Iterator4next
FNDA:0,_RNvXsO_NtCshdZFMozNxrb_6seaorm18discourse_categoryNtB5_14PrimaryKeyIterNtNtNtNtCsliVzVx4luf9_4core4iter6traits8iterator8Iterator9size_hint
FNDA:0,_RNvXsO_NtCshdZFMozNxrb_6seaorm18discourse_categoryNtB5_14PrimaryKeyIterNtNtNtNtCsliVzVx4luf9_4core4iter6traits8iterator8Iterator3nth
FNDA:0,_RNvXsP_NtCshdZFMozNxrb_6seaorm18discourse_categoryNtB5_14PrimaryKeyIterNtNtNtNtCsliVzVx4luf9_4core4iter6traits10exact_size17ExactSizeIterator3len
FNDA:0,_RNvXsQ_NtCshdZFMozNxrb_6seaorm18discourse_categoryNtB5_14PrimaryKeyIterNtNtNtNtCsliVzVx4luf9_4core4iter6traits12double_ended19DoubleEndedIterator9next_back
FNDA:0,_RNvXsS_NtCshdZFMozNxrb_6seaorm18discourse_categoryNtB5_14PrimaryKeyIterNtNtCsliVzVx4luf9_4core5clone5Clone5clone
FNDA:0,_RNvXsZ_NtCshdZFMozNxrb_6seaorm18discourse_categoryNtB5_12RelationIterNtNtCsliVzVx4luf9_4core3fmt5Debug3fmt
FNDA:0,_RNvMs10_NtCshdZFMozNxrb_6seaorm18discourse_categoryNtB6_12RelationIter3get
FNDA:0,_RNvXs11_NtCshdZFMozNxrb_6seaorm18discourse_categoryNtB6_8RelationNtCs2R46ZWsohtG_5strum16IntoEnumIterator4iter
FNDA:0,_RNvXs12_NtCshdZFMozNxrb_6seaorm18discourse_categoryNtB6_12RelationIterNtNtNtNtCsliVzVx4luf9_4core4iter6traits8iterator8Iterator4next
FNDA:0,_RNvXs12_NtCshdZFMozNxrb_6seaorm18discourse_categoryNtB6_12RelationIterNtNtNtNtCsliVzVx4luf9_4core4iter6traits8iterator8Iterator9size_hint
FNDA:0,_RNvXs12_NtCshdZFMozNxrb_6seaorm18discourse_categoryNtB6_12RelationIterNtNtNtNtCsliVzVx4luf9_4core4iter6traits8iterator8Iterator3nth
FNDA:0,_RNvXs13_NtCshdZFMozNxrb_6seaorm18discourse_categoryNtB6_12RelationIterNtNtNtNtCsliVzVx4luf9_4core4iter6traits10exact_size17ExactSizeIterator3len
FNDA:0,_RNvXs14_NtCshdZFMozNxrb_6seaorm18discourse_categoryNtB6_12RelationIterNtNtNtNtCsliVzVx4luf9_4core4iter6traits12double_ended19DoubleEndedIterator9next_back
FNDA:0,_RNvXs16_NtCshdZFMozNxrb_6seaorm18discourse_categoryNtB6_12RelationIterNtNtCsliVzVx4luf9_4core5clone5Clone5clone
FNDA:0,_RNvXNtCs1QoIgR6d7ey_6seaorm18discourse_categoryNtB2_6EntityNtNtNtCsjYlr2Bj3iq_7sea_orm6entity11base_entity10EntityName10table_name
FNDA:0,_RNvXNvXNvNtCs1QoIgR6d7ey_6seaorm18discourse_categorys_1__NtB7_5ModelNtNtCsi2zptu4QhLv_5serde2de11Deserialize11deserializeNtB2_14___FieldVisitorNtB16_7Visitor9expecting
FNDA:0,_RINvXNvXNvNtCs1QoIgR6d7ey_6seaorm18discourse_categorys_1__NtB8_5ModelNtNtCsi2zptu4QhLv_5serde2de11Deserialize11deserializeNtB3_14___FieldVisitorNtB17_7Visitor9visit_u64pEBa_
FNDA:0,_RINvXNvXNvNtCs1QoIgR6d7ey_6seaorm18discourse_categorys_1__NtB8_5ModelNtNtCsi2zptu4QhLv_5serde2de11Deserialize11deserializeNtB3_14___FieldVisitorNtB17_7Visitor9visit_strpEBa_
FNDA:0,_RINvXNvXNvNtCs1QoIgR6d7ey_6seaorm18discourse_categorys_1__NtB8_5ModelNtNtCsi2zptu4QhLv_5serde2de11Deserialize11deserializeNtB3_14___FieldVisitorNtB17_7Visitor11visit_bytespEBa_
FNDA:0,_RINvXs_NvXNvNtCs1QoIgR6d7ey_6seaorm18discourse_categorys_1__NtBa_5ModelNtNtCsi2zptu4QhLv_5serde2de11Deserialize11deserializeNtB5_7___FieldB17_11deserializepEBc_
FNDA:0,_RNvXs0_NvXNvNtCs1QoIgR6d7ey_6seaorm18discourse_categorys_1__NtBa_5ModelNtNtCsi2zptu4QhLv_5serde2de11Deserialize11deserializeNtB5_9___VisitorNtB19_7Visitor9expecting
FNDA:0,_RINvXs0_NvXNvNtCs1QoIgR6d7ey_6seaorm18discourse_categorys_1__NtBb_5ModelNtNtCsi2zptu4QhLv_5serde2de11Deserialize11deserializeNtB6_9___VisitorNtB1a_7Visitor9visit_seqpEBd_
FNDA:0,_RINvXs0_NvXNvNtCs1QoIgR6d7ey_6seaorm18discourse_categorys_1__NtBb_5ModelNtNtCsi2zptu4QhLv_5serde2de11Deserialize11deserializeNtB6_9___VisitorNtB1a_7Visitor9visit_mappEBd_
FNDA:0,_RNvXsw_NtCs1QoIgR6d7ey_6seaorm18discourse_categoryNtB5_10ColumnIterNtNtCsliVzVx4luf9_4core3fmt5Debug3fmt
FNDA:0,_RNvMsx_NtCs1QoIgR6d7ey_6seaorm18discourse_categoryNtB5_10ColumnIter3get
FNDA:0,_RNvXsy_NtCs1QoIgR6d7ey_6seaorm18discourse_categoryNtB5_6ColumnNtCs2R46ZWsohtG_5strum16IntoEnumIterator4iter
FNDA:0,_RNvXsz_NtCs1QoIgR6d7ey_6seaorm18discourse_categoryNtB5_10ColumnIterNtNtNtNtCsliVzVx4luf9_4core4iter6traits8iterator8Iterator4next
FNDA:0,_RNvXsz_NtCs1QoIgR6d7ey_6seaorm18discourse_categoryNtB5_10ColumnIterNtNtNtNtCsliVzVx4luf9_4core4iter6traits8iterator8Iterator9size_hint
FNDA:0,_RNvXsz_NtCs1QoIgR6d7ey_6seaorm18discourse_categoryNtB5_10ColumnIterNtNtNtNtCsliVzVx4luf9_4core4iter6traits8iterator8Iterator3nth
FNDA:0,_RNvXsA_NtCs1QoIgR6d7ey_6seaorm18discourse_categoryNtB5_10ColumnIterNtNtNtNtCsliVzVx4luf9_4core4iter6traits10exact_size17ExactSizeIterator3len
FNDA:0,_RNvXsB_NtCs1QoIgR6d7ey_6seaorm18discourse_categoryNtB5_10ColumnIterNtNtNtNtCsliVzVx4luf9_4core4iter6traits12double_ended19DoubleEndedIterator9next_back
FNDA:0,_RNvXsD_NtCs1QoIgR6d7ey_6seaorm18discourse_categoryNtB5_10ColumnIterNtNtCsliVzVx4luf9_4core5clone5Clone5clone
FNDA:0,_RNvXsL_NtCs1QoIgR6d7ey_6seaorm18discourse_categoryNtB5_14PrimaryKeyIterNtNtCsliVzVx4luf9_4core3fmt5Debug3fmt
FNDA:0,_RNvMsM_NtCs1QoIgR6d7ey_6seaorm18discourse_categoryNtB5_14PrimaryKeyIter3get
FNDA:0,_RNvXsN_NtCs1QoIgR6d7ey_6seaorm18discourse_categoryNtB5_10PrimaryKeyNtCs2R46ZWsohtG_5strum16IntoEnumIterator4iter
FNDA:0,_RNvXsO_NtCs1QoIgR6d7ey_6seaorm18discourse_categoryNtB5_14PrimaryKeyIterNtNtNtNtCsliVzVx4luf9_4core4iter6traits8iterator8Iterator4next
FNDA:0,_RNvXsO_NtCs1QoIgR6d7ey_6seaorm18discourse_categoryNtB5_14PrimaryKeyIterNtNtNtNtCsliVzVx4luf9_4core4iter6traits8iterator8Iterator9size_hint
FNDA:0,_RNvXsO_NtCs1QoIgR6d7ey_6seaorm18discourse_categoryNtB5_14PrimaryKeyIterNtNtNtNtCsliVzVx4luf9_4core4iter6traits8iterator8Iterator3nth
FNDA:0,_RNvXsP_NtCs1QoIgR6d7ey_6seaorm18discourse_categoryNtB5_14PrimaryKeyIterNtNtNtNtCsliVzVx4luf9_4core4iter6traits10exact_size17ExactSizeIterator3len
FNDA:0,_RNvXsQ_NtCs1QoIgR6d7ey_6seaorm18discourse_categoryNtB5_14PrimaryKeyIterNtNtNtNtCsliVzVx4luf9_4core4iter6traits12double_ended19DoubleEndedIterator9next_back
FNDA:0,_RNvXsS_NtCs1QoIgR6d7ey_6seaorm18discourse_categoryNtB5_14PrimaryKeyIterNtNtCsliVzVx4luf9_4core5clone5Clone5clone
FNDA:0,_RNvXs_NtCs1QoIgR6d7ey_6seaorm18discourse_categoryNtB4_10PrimaryKeyNtNtNtCsjYlr2Bj3iq_7sea_orm6entity11primary_key15PrimaryKeyTrait14auto_increment
FNDA:0,_RNvXsZ_NtCs1QoIgR6d7ey_6seaorm18discourse_categoryNtB5_12RelationIterNtNtCsliVzVx4luf9_4core3fmt5Debug3fmt
FNDA:0,_RNvMs10_NtCs1QoIgR6d7ey_6seaorm18discourse_categoryNtB6_12RelationIter3get
FNDA:0,_RNvXs11_NtCs1QoIgR6d7ey_6seaorm18discourse_categoryNtB6_8RelationNtCs2R46ZWsohtG_5strum16IntoEnumIterator4iter
FNDA:0,_RNvXs12_NtCs1QoIgR6d7ey_6seaorm18discourse_categoryNtB6_12RelationIterNtNtNtNtCsliVzVx4luf9_4core4iter6traits8iterator8Iterator4next
FNDA:0,_RNvXs12_NtCs1QoIgR6d7ey_6seaorm18discourse_categoryNtB6_12RelationIterNtNtNtNtCsliVzVx4luf9_4core4iter6traits8iterator8Iterator9size_hint
FNDA:0,_RNvXs12_NtCs1QoIgR6d7ey_6seaorm18discourse_categoryNtB6_12RelationIterNtNtNtNtCsliVzVx4luf9_4core4iter6traits8iterator8Iterator3nth
FNDA:0,_RNvXs13_NtCs1QoIgR6d7ey_6seaorm18discourse_categoryNtB6_12RelationIterNtNtNtNtCsliVzVx4luf9_4core4iter6traits10exact_size17ExactSizeIterator3len
FNDA:0,_RNvXs14_NtCs1QoIgR6d7ey_6seaorm18discourse_categoryNtB6_12RelationIterNtNtNtNtCsliVzVx4luf9_4core4iter6traits12double_ended19DoubleEndedIterator9next_back
FNDA:0,_RNvXs16_NtCs1QoIgR6d7ey_6seaorm18discourse_categoryNtB6_12RelationIterNtNtCsliVzVx4luf9_4core5clone5Clone5clone
FNDA:0,_RNvXs0_NtCs1QoIgR6d7ey_6seaorm18discourse_categoryNtB5_6ColumnNtNtNtCsjYlr2Bj3iq_7sea_orm6entity6column11ColumnTrait3def
FNDA:0,_RNvXs1_NtCs1QoIgR6d7ey_6seaorm18discourse_categoryNtB5_8RelationNtNtNtCsjYlr2Bj3iq_7sea_orm6entity8relation13RelationTrait3def
FNDA:0,_RNvXs2_NtCs1QoIgR6d7ey_6seaorm18discourse_categoryNtB5_6EntityINtNtNtCsjYlr2Bj3iq_7sea_orm6entity8relation7RelatedNtNtB7_13dao_discourse6EntityE2to
FNDA:0,_RNvXs3_NtCs1QoIgR6d7ey_6seaorm18discourse_categoryNtB5_6EntityINtNtNtCsjYlr2Bj3iq_7sea_orm6entity8relation7RelatedNtNtB7_15discourse_topic6EntityE2to
FNF:10
FNH:0
DA:10,0
DA:11,0
DA:12,0
DA:15,0
DA:35,0
DA:55,0
DA:62,0
DA:63,0
DA:64,0
DA:67,0
DA:75,0
DA:76,0
DA:77,0
DA:78,0
DA:79,0
DA:80,0
DA:81,0
DA:82,0
DA:83,0
DA:84,0
DA:85,0
DA:86,0
DA:87,0
DA:88,0
DA:89,0
DA:90,0
DA:91,0
DA:92,0
DA:94,0
DA:98,0
DA:99,0
DA:100,0
DA:101,0
DA:102,0
DA:103,0
DA:104,0
DA:106,0
DA:110,0
DA:111,0
DA:112,0
DA:116,0
DA:117,0
DA:118,0
BRF:0
BRH:0
LF:43
LH:0
end_of_record
SF:/Users/andrei/git/proposalsapp/libs/rust/seaorm/src/discourse_post.rs
FN:10,_RNvXNtCshdZFMozNxrb_6seaorm14discourse_postNtB2_6EntityNtNtNtCsjYlr2Bj3iq_7sea_orm6entity11base_entity10EntityName10table_name
FN:84,_RNvXs_NtCshdZFMozNxrb_6seaorm14discourse_postNtB4_10PrimaryKeyNtNtNtCsjYlr2Bj3iq_7sea_orm6entity11primary_key15PrimaryKeyTrait14auto_increment
